In archive librtthread.a:

rt_channel.o:     file format elf32-littlearm


Disassembly of section .text:

00000000 <rt_channel_open>:
   0:	e92d4800 	push	{fp, lr}
   4:	e28db004 	add	fp, sp, #4
   8:	e24dd008 	sub	sp, sp, #8
   c:	e50b0008 	str	r0, [fp, #-8]
  10:	e50b100c 	str	r1, [fp, #-12]
  14:	e51b200c 	ldr	r2, [fp, #-12]
  18:	e51b1008 	ldr	r1, [fp, #-8]
  1c:	e3a0002c 	mov	r0, #44	; 0x2c
  20:	ebfffffe 	bl	0 <syscall>
  24:	e1a03000 	mov	r3, r0
  28:	e1a00003 	mov	r0, r3
  2c:	e24bd004 	sub	sp, fp, #4
  30:	e8bd8800 	pop	{fp, pc}

00000034 <rt_channel_close>:
  34:	e92d4800 	push	{fp, lr}
  38:	e28db004 	add	fp, sp, #4
  3c:	e24dd008 	sub	sp, sp, #8
  40:	e50b0008 	str	r0, [fp, #-8]
  44:	e51b1008 	ldr	r1, [fp, #-8]
  48:	e3a0002d 	mov	r0, #45	; 0x2d
  4c:	ebfffffe 	bl	0 <syscall>
  50:	e1a03000 	mov	r3, r0
  54:	e1a00003 	mov	r0, r3
  58:	e24bd004 	sub	sp, fp, #4
  5c:	e8bd8800 	pop	{fp, pc}

00000060 <rt_channel_send_recv>:
  60:	e92d4800 	push	{fp, lr}
  64:	e28db004 	add	fp, sp, #4
  68:	e24dd018 	sub	sp, sp, #24
  6c:	e50b0008 	str	r0, [fp, #-8]
  70:	e50b100c 	str	r1, [fp, #-12]
  74:	e50b2010 	str	r2, [fp, #-16]
  78:	e3e03000 	mvn	r3, #0
  7c:	e58d3000 	str	r3, [sp]
  80:	e51b3010 	ldr	r3, [fp, #-16]
  84:	e51b200c 	ldr	r2, [fp, #-12]
  88:	e51b1008 	ldr	r1, [fp, #-8]
  8c:	e3a0002f 	mov	r0, #47	; 0x2f
  90:	ebfffffe 	bl	0 <syscall>
  94:	e1a03000 	mov	r3, r0
  98:	e1a00003 	mov	r0, r3
  9c:	e24bd004 	sub	sp, fp, #4
  a0:	e8bd8800 	pop	{fp, pc}

000000a4 <rt_channel_send_recv_timeout>:
  a4:	e92d4800 	push	{fp, lr}
  a8:	e28db004 	add	fp, sp, #4
  ac:	e24dd018 	sub	sp, sp, #24
  b0:	e50b0008 	str	r0, [fp, #-8]
  b4:	e50b100c 	str	r1, [fp, #-12]
  b8:	e50b2010 	str	r2, [fp, #-16]
  bc:	e50b3014 	str	r3, [fp, #-20]	; 0xffffffec
  c0:	e51b3014 	ldr	r3, [fp, #-20]	; 0xffffffec
  c4:	e58d3000 	str	r3, [sp]
  c8:	e51b3010 	ldr	r3, [fp, #-16]
  cc:	e51b200c 	ldr	r2, [fp, #-12]
  d0:	e51b1008 	ldr	r1, [fp, #-8]
  d4:	e3a0002f 	mov	r0, #47	; 0x2f
  d8:	ebfffffe 	bl	0 <syscall>
  dc:	e1a03000 	mov	r3, r0
  e0:	e1a00003 	mov	r0, r3
  e4:	e24bd004 	sub	sp, fp, #4
  e8:	e8bd8800 	pop	{fp, pc}

000000ec <rt_channel_send>:
  ec:	e92d4800 	push	{fp, lr}
  f0:	e28db004 	add	fp, sp, #4
  f4:	e24dd008 	sub	sp, sp, #8
  f8:	e50b0008 	str	r0, [fp, #-8]
  fc:	e50b100c 	str	r1, [fp, #-12]
 100:	e51b200c 	ldr	r2, [fp, #-12]
 104:	e51b1008 	ldr	r1, [fp, #-8]
 108:	e3a0002e 	mov	r0, #46	; 0x2e
 10c:	ebfffffe 	bl	0 <syscall>
 110:	e1a03000 	mov	r3, r0
 114:	e1a00003 	mov	r0, r3
 118:	e24bd004 	sub	sp, fp, #4
 11c:	e8bd8800 	pop	{fp, pc}

00000120 <rt_channel_reply>:
 120:	e92d4800 	push	{fp, lr}
 124:	e28db004 	add	fp, sp, #4
 128:	e24dd008 	sub	sp, sp, #8
 12c:	e50b0008 	str	r0, [fp, #-8]
 130:	e50b100c 	str	r1, [fp, #-12]
 134:	e51b200c 	ldr	r2, [fp, #-12]
 138:	e51b1008 	ldr	r1, [fp, #-8]
 13c:	e3a00030 	mov	r0, #48	; 0x30
 140:	ebfffffe 	bl	0 <syscall>
 144:	e1a03000 	mov	r3, r0
 148:	e1a00003 	mov	r0, r3
 14c:	e24bd004 	sub	sp, fp, #4
 150:	e8bd8800 	pop	{fp, pc}

00000154 <rt_channel_recv>:
 154:	e92d4800 	push	{fp, lr}
 158:	e28db004 	add	fp, sp, #4
 15c:	e24dd008 	sub	sp, sp, #8
 160:	e50b0008 	str	r0, [fp, #-8]
 164:	e50b100c 	str	r1, [fp, #-12]
 168:	e3e03000 	mvn	r3, #0
 16c:	e51b200c 	ldr	r2, [fp, #-12]
 170:	e51b1008 	ldr	r1, [fp, #-8]
 174:	e3a00031 	mov	r0, #49	; 0x31
 178:	ebfffffe 	bl	0 <syscall>
 17c:	e1a03000 	mov	r3, r0
 180:	e1a00003 	mov	r0, r3
 184:	e24bd004 	sub	sp, fp, #4
 188:	e8bd8800 	pop	{fp, pc}

0000018c <rt_channel_recv_timeout>:
 18c:	e92d4800 	push	{fp, lr}
 190:	e28db004 	add	fp, sp, #4
 194:	e24dd010 	sub	sp, sp, #16
 198:	e50b0008 	str	r0, [fp, #-8]
 19c:	e50b100c 	str	r1, [fp, #-12]
 1a0:	e50b2010 	str	r2, [fp, #-16]
 1a4:	e51b3010 	ldr	r3, [fp, #-16]
 1a8:	e51b200c 	ldr	r2, [fp, #-12]
 1ac:	e51b1008 	ldr	r1, [fp, #-8]
 1b0:	e3a00031 	mov	r0, #49	; 0x31
 1b4:	ebfffffe 	bl	0 <syscall>
 1b8:	e1a03000 	mov	r3, r0
 1bc:	e1a00003 	mov	r0, r3
 1c0:	e24bd004 	sub	sp, fp, #4
 1c4:	e8bd8800 	pop	{fp, pc}

000001c8 <rt_channel_peek>:
 1c8:	e92d4800 	push	{fp, lr}
 1cc:	e28db004 	add	fp, sp, #4
 1d0:	e24dd008 	sub	sp, sp, #8
 1d4:	e50b0008 	str	r0, [fp, #-8]
 1d8:	e50b100c 	str	r1, [fp, #-12]
 1dc:	e3a03000 	mov	r3, #0
 1e0:	e51b200c 	ldr	r2, [fp, #-12]
 1e4:	e51b1008 	ldr	r1, [fp, #-8]
 1e8:	e3a00031 	mov	r0, #49	; 0x31
 1ec:	ebfffffe 	bl	0 <syscall>
 1f0:	e1a03000 	mov	r3, r0
 1f4:	e1a00003 	mov	r0, r3
 1f8:	e24bd004 	sub	sp, fp, #4
 1fc:	e8bd8800 	pop	{fp, pc}

Disassembly of section .text:

00000000 <rt_completion_init>:
   0:	e92d4800 	push	{fp, lr}
   4:	e28db004 	add	fp, sp, #4
   8:	e24dd008 	sub	sp, sp, #8
   c:	e50b0008 	str	r0, [fp, #-8]
  10:	e51b3008 	ldr	r3, [fp, #-8]
  14:	e3530000 	cmp	r3, #0
  18:	0a00000d 	beq	54 <rt_completion_init+0x54>
  1c:	e51b3008 	ldr	r3, [fp, #-8]
  20:	e5933000 	ldr	r3, [r3]
  24:	e3530000 	cmp	r3, #0
  28:	1a000009 	bne	54 <rt_completion_init+0x54>
  2c:	e51b3008 	ldr	r3, [fp, #-8]
  30:	e3052a5a 	movw	r2, #23130	; 0x5a5a
  34:	e5832000 	str	r2, [r3]
  38:	e3a01000 	mov	r1, #0
  3c:	e3000000 	movw	r0, #0
  40:	e3400000 	movt	r0, #0
  44:	ebfffffe 	bl	0 <rt_event_create>
  48:	e1a02000 	mov	r2, r0
  4c:	e51b3008 	ldr	r3, [fp, #-8]
  50:	e5832004 	str	r2, [r3, #4]
  54:	e320f000 	nop	{0}
  58:	e24bd004 	sub	sp, fp, #4
  5c:	e8bd8800 	pop	{fp, pc}

00000060 <rt_completion_wait>:
  60:	e92d4800 	push	{fp, lr}
  64:	e28db004 	add	fp, sp, #4
  68:	e24dd018 	sub	sp, sp, #24
  6c:	e50b0010 	str	r0, [fp, #-16]
  70:	e50b1014 	str	r1, [fp, #-20]	; 0xffffffec
  74:	e3a03000 	mov	r3, #0
  78:	e50b300c 	str	r3, [fp, #-12]
  7c:	e51b3010 	ldr	r3, [fp, #-16]
  80:	e5930004 	ldr	r0, [r3, #4]
  84:	e24b300c 	sub	r3, fp, #12
  88:	e58d3000 	str	r3, [sp]
  8c:	e51b3014 	ldr	r3, [fp, #-20]	; 0xffffffec
  90:	e3a02006 	mov	r2, #6
  94:	e3a01001 	mov	r1, #1
  98:	ebfffffe 	bl	0 <rt_event_recv>
  9c:	e50b0008 	str	r0, [fp, #-8]
  a0:	e51b3008 	ldr	r3, [fp, #-8]
  a4:	e1a00003 	mov	r0, r3
  a8:	e24bd004 	sub	sp, fp, #4
  ac:	e8bd8800 	pop	{fp, pc}

000000b0 <rt_completion_done>:
  b0:	e92d4800 	push	{fp, lr}
  b4:	e28db004 	add	fp, sp, #4
  b8:	e24dd008 	sub	sp, sp, #8
  bc:	e50b0008 	str	r0, [fp, #-8]
  c0:	e51b3008 	ldr	r3, [fp, #-8]
  c4:	e5933004 	ldr	r3, [r3, #4]
  c8:	e3a01001 	mov	r1, #1
  cc:	e1a00003 	mov	r0, r3
  d0:	ebfffffe 	bl	0 <rt_event_send>
  d4:	e320f000 	nop	{0}
  d8:	e24bd004 	sub	sp, fp, #4
  dc:	e8bd8800 	pop	{fp, pc}

Disassembly of section .text:

00000000 <rt_device_init>:
   0:	e92d4800 	push	{fp, lr}
   4:	e28db004 	add	fp, sp, #4
   8:	e24dd008 	sub	sp, sp, #8
   c:	e50b0008 	str	r0, [fp, #-8]
  10:	e51b1008 	ldr	r1, [fp, #-8]
  14:	e3a0003b 	mov	r0, #59	; 0x3b
  18:	ebfffffe 	bl	0 <syscall>
  1c:	e1a03000 	mov	r3, r0
  20:	e1a00003 	mov	r0, r3
  24:	e24bd004 	sub	sp, fp, #4
  28:	e8bd8800 	pop	{fp, pc}

0000002c <rt_device_register>:
  2c:	e92d4800 	push	{fp, lr}
  30:	e28db004 	add	fp, sp, #4
  34:	e24dd010 	sub	sp, sp, #16
  38:	e50b0008 	str	r0, [fp, #-8]
  3c:	e50b100c 	str	r1, [fp, #-12]
  40:	e1a03002 	mov	r3, r2
  44:	e14b30be 	strh	r3, [fp, #-14]
  48:	e15b30be 	ldrh	r3, [fp, #-14]
  4c:	e51b200c 	ldr	r2, [fp, #-12]
  50:	e51b1008 	ldr	r1, [fp, #-8]
  54:	e3a0003c 	mov	r0, #60	; 0x3c
  58:	ebfffffe 	bl	0 <syscall>
  5c:	e1a03000 	mov	r3, r0
  60:	e1a00003 	mov	r0, r3
  64:	e24bd004 	sub	sp, fp, #4
  68:	e8bd8800 	pop	{fp, pc}

0000006c <rt_device_control>:
  6c:	e92d4800 	push	{fp, lr}
  70:	e28db004 	add	fp, sp, #4
  74:	e24dd010 	sub	sp, sp, #16
  78:	e50b0008 	str	r0, [fp, #-8]
  7c:	e50b100c 	str	r1, [fp, #-12]
  80:	e50b2010 	str	r2, [fp, #-16]
  84:	e51b3010 	ldr	r3, [fp, #-16]
  88:	e51b200c 	ldr	r2, [fp, #-12]
  8c:	e51b1008 	ldr	r1, [fp, #-8]
  90:	e3a0003d 	mov	r0, #61	; 0x3d
  94:	ebfffffe 	bl	0 <syscall>
  98:	e1a03000 	mov	r3, r0
  9c:	e1a00003 	mov	r0, r3
  a0:	e24bd004 	sub	sp, fp, #4
  a4:	e8bd8800 	pop	{fp, pc}

000000a8 <rt_device_find>:
  a8:	e92d4800 	push	{fp, lr}
  ac:	e28db004 	add	fp, sp, #4
  b0:	e24dd008 	sub	sp, sp, #8
  b4:	e50b0008 	str	r0, [fp, #-8]
  b8:	e51b1008 	ldr	r1, [fp, #-8]
  bc:	e3a0003e 	mov	r0, #62	; 0x3e
  c0:	ebfffffe 	bl	0 <syscall>
  c4:	e1a03000 	mov	r3, r0
  c8:	e1a00003 	mov	r0, r3
  cc:	e24bd004 	sub	sp, fp, #4
  d0:	e8bd8800 	pop	{fp, pc}

000000d4 <rt_device_open>:
  d4:	e92d4800 	push	{fp, lr}
  d8:	e28db004 	add	fp, sp, #4
  dc:	e24dd008 	sub	sp, sp, #8
  e0:	e50b0008 	str	r0, [fp, #-8]
  e4:	e1a03001 	mov	r3, r1
  e8:	e14b30ba 	strh	r3, [fp, #-10]
  ec:	e15b30ba 	ldrh	r3, [fp, #-10]
  f0:	e1a02003 	mov	r2, r3
  f4:	e51b1008 	ldr	r1, [fp, #-8]
  f8:	e3a0003f 	mov	r0, #63	; 0x3f
  fc:	ebfffffe 	bl	0 <syscall>
 100:	e1a03000 	mov	r3, r0
 104:	e1a00003 	mov	r0, r3
 108:	e24bd004 	sub	sp, fp, #4
 10c:	e8bd8800 	pop	{fp, pc}

00000110 <rt_device_close>:
 110:	e92d4800 	push	{fp, lr}
 114:	e28db004 	add	fp, sp, #4
 118:	e24dd008 	sub	sp, sp, #8
 11c:	e50b0008 	str	r0, [fp, #-8]
 120:	e51b1008 	ldr	r1, [fp, #-8]
 124:	e3a00040 	mov	r0, #64	; 0x40
 128:	ebfffffe 	bl	0 <syscall>
 12c:	e1a03000 	mov	r3, r0
 130:	e1a00003 	mov	r0, r3
 134:	e24bd004 	sub	sp, fp, #4
 138:	e8bd8800 	pop	{fp, pc}

0000013c <rt_device_read>:
 13c:	e92d4800 	push	{fp, lr}
 140:	e28db004 	add	fp, sp, #4
 144:	e24dd018 	sub	sp, sp, #24
 148:	e50b0008 	str	r0, [fp, #-8]
 14c:	e50b100c 	str	r1, [fp, #-12]
 150:	e50b2010 	str	r2, [fp, #-16]
 154:	e50b3014 	str	r3, [fp, #-20]	; 0xffffffec
 158:	e51b3014 	ldr	r3, [fp, #-20]	; 0xffffffec
 15c:	e58d3000 	str	r3, [sp]
 160:	e51b3010 	ldr	r3, [fp, #-16]
 164:	e51b200c 	ldr	r2, [fp, #-12]
 168:	e51b1008 	ldr	r1, [fp, #-8]
 16c:	e3a00041 	mov	r0, #65	; 0x41
 170:	ebfffffe 	bl	0 <syscall>
 174:	e1a03000 	mov	r3, r0
 178:	e1a00003 	mov	r0, r3
 17c:	e24bd004 	sub	sp, fp, #4
 180:	e8bd8800 	pop	{fp, pc}

00000184 <rt_device_write>:
 184:	e92d4800 	push	{fp, lr}
 188:	e28db004 	add	fp, sp, #4
 18c:	e24dd018 	sub	sp, sp, #24
 190:	e50b0008 	str	r0, [fp, #-8]
 194:	e50b100c 	str	r1, [fp, #-12]
 198:	e50b2010 	str	r2, [fp, #-16]
 19c:	e50b3014 	str	r3, [fp, #-20]	; 0xffffffec
 1a0:	e51b3014 	ldr	r3, [fp, #-20]	; 0xffffffec
 1a4:	e58d3000 	str	r3, [sp]
 1a8:	e51b3010 	ldr	r3, [fp, #-16]
 1ac:	e51b200c 	ldr	r2, [fp, #-12]
 1b0:	e51b1008 	ldr	r1, [fp, #-8]
 1b4:	e3a00042 	mov	r0, #66	; 0x42
 1b8:	ebfffffe 	bl	0 <syscall>
 1bc:	e1a03000 	mov	r3, r0
 1c0:	e1a00003 	mov	r0, r3
 1c4:	e24bd004 	sub	sp, fp, #4
 1c8:	e8bd8800 	pop	{fp, pc}

Disassembly of section .text:

00000000 <closesocket>:
   0:	e92d4800 	push	{fp, lr}
   4:	e28db004 	add	fp, sp, #4
   8:	e24dd008 	sub	sp, sp, #8
   c:	e50b0008 	str	r0, [fp, #-8]
  10:	e51b1008 	ldr	r1, [fp, #-8]
  14:	e3a00053 	mov	r0, #83	; 0x53
  18:	ebfffffe 	bl	0 <syscall>
  1c:	e1a03000 	mov	r3, r0
  20:	e1a00003 	mov	r0, r3
  24:	e24bd004 	sub	sp, fp, #4
  28:	e8bd8800 	pop	{fp, pc}

0000002c <getaddrinfo>:
  2c:	e92d4800 	push	{fp, lr}
  30:	e28db004 	add	fp, sp, #4
  34:	e24dd020 	sub	sp, sp, #32
  38:	e50b0010 	str	r0, [fp, #-16]
  3c:	e50b1014 	str	r1, [fp, #-20]	; 0xffffffec
  40:	e50b2018 	str	r2, [fp, #-24]	; 0xffffffe8
  44:	e50b301c 	str	r3, [fp, #-28]	; 0xffffffe4
  48:	e3a03000 	mov	r3, #0
  4c:	e50b3008 	str	r3, [fp, #-8]
  50:	e3a00030 	mov	r0, #48	; 0x30
  54:	ebfffffe 	bl	0 <malloc>
  58:	e1a03000 	mov	r3, r0
  5c:	e50b3008 	str	r3, [fp, #-8]
  60:	e51b3008 	ldr	r3, [fp, #-8]
  64:	e3530000 	cmp	r3, #0
  68:	0a000011 	beq	b4 <getaddrinfo+0x88>
  6c:	e51b3008 	ldr	r3, [fp, #-8]
  70:	e2832020 	add	r2, r3, #32
  74:	e51b3008 	ldr	r3, [fp, #-8]
  78:	e5832014 	str	r2, [r3, #20]
  7c:	e51b3008 	ldr	r3, [fp, #-8]
  80:	e58d3000 	str	r3, [sp]
  84:	e51b3018 	ldr	r3, [fp, #-24]	; 0xffffffe8
  88:	e51b2014 	ldr	r2, [fp, #-20]	; 0xffffffec
  8c:	e51b1010 	ldr	r1, [fp, #-16]
  90:	e3a00054 	mov	r0, #84	; 0x54
  94:	ebfffffe 	bl	0 <syscall>
  98:	e50b000c 	str	r0, [fp, #-12]
  9c:	e51b300c 	ldr	r3, [fp, #-12]
  a0:	e3530000 	cmp	r3, #0
  a4:	1a000002 	bne	b4 <getaddrinfo+0x88>
  a8:	e51b301c 	ldr	r3, [fp, #-28]	; 0xffffffe4
  ac:	e51b2008 	ldr	r2, [fp, #-8]
  b0:	e5832000 	str	r2, [r3]
  b4:	e3a03000 	mov	r3, #0
  b8:	e1a00003 	mov	r0, r3
  bc:	e24bd004 	sub	sp, fp, #4
  c0:	e8bd8800 	pop	{fp, pc}

000000c4 <freeaddrinfo>:
  c4:	e92d4800 	push	{fp, lr}
  c8:	e28db004 	add	fp, sp, #4
  cc:	e24dd008 	sub	sp, sp, #8
  d0:	e50b0008 	str	r0, [fp, #-8]
  d4:	e51b0008 	ldr	r0, [fp, #-8]
  d8:	ebfffffe 	bl	0 <free>
  dc:	e320f000 	nop	{0}
  e0:	e24bd004 	sub	sp, fp, #4
  e4:	e8bd8800 	pop	{fp, pc}

000000e8 <gethostbyname2_r>:
  e8:	e92d4800 	push	{fp, lr}
  ec:	e28db004 	add	fp, sp, #4
  f0:	e24dd020 	sub	sp, sp, #32
  f4:	e50b0008 	str	r0, [fp, #-8]
  f8:	e50b100c 	str	r1, [fp, #-12]
  fc:	e50b2010 	str	r2, [fp, #-16]
 100:	e50b3014 	str	r3, [fp, #-20]	; 0xffffffec
 104:	e59b300c 	ldr	r3, [fp, #12]
 108:	e58d300c 	str	r3, [sp, #12]
 10c:	e59b3008 	ldr	r3, [fp, #8]
 110:	e58d3008 	str	r3, [sp, #8]
 114:	e59b3004 	ldr	r3, [fp, #4]
 118:	e58d3004 	str	r3, [sp, #4]
 11c:	e51b3014 	ldr	r3, [fp, #-20]	; 0xffffffec
 120:	e58d3000 	str	r3, [sp]
 124:	e51b3010 	ldr	r3, [fp, #-16]
 128:	e51b200c 	ldr	r2, [fp, #-12]
 12c:	e51b1008 	ldr	r1, [fp, #-8]
 130:	e3a00055 	mov	r0, #85	; 0x55
 134:	ebfffffe 	bl	0 <syscall>
 138:	e1a03000 	mov	r3, r0
 13c:	e1a00003 	mov	r0, r3
 140:	e24bd004 	sub	sp, fp, #4
 144:	e8bd8800 	pop	{fp, pc}

00000148 <setnonblocking>:
 148:	e92d4800 	push	{fp, lr}
 14c:	e28db004 	add	fp, sp, #4
 150:	e24dd010 	sub	sp, sp, #16
 154:	e50b0010 	str	r0, [fp, #-16]
 158:	e3a02000 	mov	r2, #0
 15c:	e3a01003 	mov	r1, #3
 160:	e51b0010 	ldr	r0, [fp, #-16]
 164:	ebfffffe 	bl	0 <fcntl>
 168:	e50b0008 	str	r0, [fp, #-8]
 16c:	e51b3008 	ldr	r3, [fp, #-8]
 170:	e3833b02 	orr	r3, r3, #2048	; 0x800
 174:	e50b300c 	str	r3, [fp, #-12]
 178:	e51b200c 	ldr	r2, [fp, #-12]
 17c:	e3a01004 	mov	r1, #4
 180:	e51b0010 	ldr	r0, [fp, #-16]
 184:	ebfffffe 	bl	0 <fcntl>
 188:	e1a03000 	mov	r3, r0
 18c:	e3730001 	cmn	r3, #1
 190:	1a000004 	bne	1a8 <setnonblocking+0x60>
 194:	e3000000 	movw	r0, #0
 198:	e3400000 	movt	r0, #0
 19c:	ebfffffe 	bl	0 <puts>
 1a0:	e3a03001 	mov	r3, #1
 1a4:	ea000000 	b	1ac <setnonblocking+0x64>
 1a8:	e51b3008 	ldr	r3, [fp, #-8]
 1ac:	e1a00003 	mov	r0, r3
 1b0:	e24bd004 	sub	sp, fp, #4
 1b4:	e8bd8800 	pop	{fp, pc}

000001b8 <socketpair>:
 1b8:	e92d4810 	push	{r4, fp, lr}
 1bc:	e28db008 	add	fp, sp, #8
 1c0:	e24ddf41 	sub	sp, sp, #260	; 0x104
 1c4:	e50b00f8 	str	r0, [fp, #-248]	; 0xffffff08
 1c8:	e50b10fc 	str	r1, [fp, #-252]	; 0xffffff04
 1cc:	e50b2100 	str	r2, [fp, #-256]	; 0xffffff00
 1d0:	e50b3104 	str	r3, [fp, #-260]	; 0xfffffefc
 1d4:	e3a03010 	mov	r3, #16
 1d8:	e50b3064 	str	r3, [fp, #-100]	; 0xffffff9c
 1dc:	e3a03001 	mov	r3, #1
 1e0:	e50b3068 	str	r3, [fp, #-104]	; 0xffffff98
 1e4:	e3a03000 	mov	r3, #0
 1e8:	e50b301c 	str	r3, [fp, #-28]	; 0xffffffe4
 1ec:	e3a03000 	mov	r3, #0
 1f0:	e50b30f0 	str	r3, [fp, #-240]	; 0xffffff10
 1f4:	e3a03ffa 	mov	r3, #1000	; 0x3e8
 1f8:	e50b30ec 	str	r3, [fp, #-236]	; 0xffffff14
 1fc:	e51b2100 	ldr	r2, [fp, #-256]	; 0xffffff00
 200:	e51b10fc 	ldr	r1, [fp, #-252]	; 0xffffff04
 204:	e51b00f8 	ldr	r0, [fp, #-248]	; 0xffffff08
 208:	ebfffffe 	bl	0 <socket>
 20c:	e50b0020 	str	r0, [fp, #-32]	; 0xffffffe0
 210:	e51b3020 	ldr	r3, [fp, #-32]	; 0xffffffe0
 214:	e3530000 	cmp	r3, #0
 218:	aa00000f 	bge	25c <socketpair+0xa4>
 21c:	ebfffffe 	bl	0 <__errno_location>
 220:	e1a03000 	mov	r3, r0
 224:	e5933000 	ldr	r3, [r3]
 228:	e1a00003 	mov	r0, r3
 22c:	ebfffffe 	bl	0 <strerror>
 230:	e1a04000 	mov	r4, r0
 234:	ebfffffe 	bl	0 <__errno_location>
 238:	e1a03000 	mov	r3, r0
 23c:	e5933000 	ldr	r3, [r3]
 240:	e1a02003 	mov	r2, r3
 244:	e1a01004 	mov	r1, r4
 248:	e3000000 	movw	r0, #0
 24c:	e3400000 	movt	r0, #0
 250:	ebfffffe 	bl	0 <printf>
 254:	e3e03000 	mvn	r3, #0
 258:	ea000115 	b	6b4 <socketpair+0x4fc>
 25c:	e51b0020 	ldr	r0, [fp, #-32]	; 0xffffffe0
 260:	ebfffffe 	bl	148 <setnonblocking>
 264:	e3a00000 	mov	r0, #0
 268:	ebfffffe 	bl	0 <time>
 26c:	e1a03000 	mov	r3, r0
 270:	e1a00003 	mov	r0, r3
 274:	ebfffffe 	bl	0 <srand>
 278:	ebfffffe 	bl	0 <rand>
 27c:	e1a02000 	mov	r2, r0
 280:	e30b3273 	movw	r3, #45683	; 0xb273
 284:	e34435e7 	movt	r3, #17895	; 0x45e7
 288:	e0c10392 	smull	r0, r1, r2, r3
 28c:	e1a01741 	asr	r1, r1, #14
 290:	e1a03fc2 	asr	r3, r2, #31
 294:	e0413003 	sub	r3, r1, r3
 298:	e30e1a60 	movw	r1, #60000	; 0xea60
 29c:	e0030391 	mul	r3, r1, r3
 2a0:	e0423003 	sub	r3, r2, r3
 2a4:	e2833d4e 	add	r3, r3, #4992	; 0x1380
 2a8:	e2833009 	add	r3, r3, #9
 2ac:	e50b3024 	str	r3, [fp, #-36]	; 0xffffffdc
 2b0:	e24b3040 	sub	r3, fp, #64	; 0x40
 2b4:	e3a02010 	mov	r2, #16
 2b8:	e3a01000 	mov	r1, #0
 2bc:	e1a00003 	mov	r0, r3
 2c0:	ebfffffe 	bl	0 <memset>
 2c4:	e24b3050 	sub	r3, fp, #80	; 0x50
 2c8:	e3a02010 	mov	r2, #16
 2cc:	e3a01000 	mov	r1, #0
 2d0:	e1a00003 	mov	r0, r3
 2d4:	ebfffffe 	bl	0 <memset>
 2d8:	e51b30f8 	ldr	r3, [fp, #-248]	; 0xffffff08
 2dc:	e6ff3073 	uxth	r3, r3
 2e0:	e14b34b0 	strh	r3, [fp, #-64]	; 0xffffffc0
 2e4:	e51b3024 	ldr	r3, [fp, #-36]	; 0xffffffdc
 2e8:	e6ff3073 	uxth	r3, r3
 2ec:	e1a00003 	mov	r0, r3
 2f0:	ebfffffe 	bl	0 <htons>
 2f4:	e1a03000 	mov	r3, r0
 2f8:	e14b33be 	strh	r3, [fp, #-62]	; 0xffffffc2
 2fc:	e3a00000 	mov	r0, #0
 300:	ebfffffe 	bl	0 <htonl>
 304:	e1a03000 	mov	r3, r0
 308:	e50b303c 	str	r3, [fp, #-60]	; 0xffffffc4
 30c:	e24b2068 	sub	r2, fp, #104	; 0x68
 310:	e3a03004 	mov	r3, #4
 314:	e58d3000 	str	r3, [sp]
 318:	e1a03002 	mov	r3, r2
 31c:	e3a02002 	mov	r2, #2
 320:	e3a01001 	mov	r1, #1
 324:	e51b0020 	ldr	r0, [fp, #-32]	; 0xffffffe0
 328:	ebfffffe 	bl	0 <setsockopt>
 32c:	e1a03000 	mov	r3, r0
 330:	e3530000 	cmp	r3, #0
 334:	aa000003 	bge	348 <socketpair+0x190>
 338:	e3000000 	movw	r0, #0
 33c:	e3400000 	movt	r0, #0
 340:	ebfffffe 	bl	0 <perror>
 344:	ea0000cf 	b	688 <socketpair+0x4d0>
 348:	e24b3040 	sub	r3, fp, #64	; 0x40
 34c:	e3a02010 	mov	r2, #16
 350:	e1a01003 	mov	r1, r3
 354:	e51b0020 	ldr	r0, [fp, #-32]	; 0xffffffe0
 358:	ebfffffe 	bl	0 <bind>
 35c:	e1a03000 	mov	r3, r0
 360:	e3730001 	cmn	r3, #1
 364:	1a00000e 	bne	3a4 <socketpair+0x1ec>
 368:	ebfffffe 	bl	0 <__errno_location>
 36c:	e1a03000 	mov	r3, r0
 370:	e5933000 	ldr	r3, [r3]
 374:	e1a00003 	mov	r0, r3
 378:	ebfffffe 	bl	0 <strerror>
 37c:	e1a04000 	mov	r4, r0
 380:	ebfffffe 	bl	0 <__errno_location>
 384:	e1a03000 	mov	r3, r0
 388:	e5932000 	ldr	r2, [r3]
 38c:	e51b3020 	ldr	r3, [fp, #-32]	; 0xffffffe0
 390:	e1a01004 	mov	r1, r4
 394:	e3000000 	movw	r0, #0
 398:	e3400000 	movt	r0, #0
 39c:	ebfffffe 	bl	0 <printf>
 3a0:	ea0000b8 	b	688 <socketpair+0x4d0>
 3a4:	e3a0100a 	mov	r1, #10
 3a8:	e51b0020 	ldr	r0, [fp, #-32]	; 0xffffffe0
 3ac:	ebfffffe 	bl	0 <listen>
 3b0:	e1a03000 	mov	r3, r0
 3b4:	e3730001 	cmn	r3, #1
 3b8:	1a00000e 	bne	3f8 <socketpair+0x240>
 3bc:	ebfffffe 	bl	0 <__errno_location>
 3c0:	e1a03000 	mov	r3, r0
 3c4:	e5933000 	ldr	r3, [r3]
 3c8:	e1a00003 	mov	r0, r3
 3cc:	ebfffffe 	bl	0 <strerror>
 3d0:	e1a04000 	mov	r4, r0
 3d4:	ebfffffe 	bl	0 <__errno_location>
 3d8:	e1a03000 	mov	r3, r0
 3dc:	e5933000 	ldr	r3, [r3]
 3e0:	e1a02003 	mov	r2, r3
 3e4:	e1a01004 	mov	r1, r4
 3e8:	e3000000 	movw	r0, #0
 3ec:	e3400000 	movt	r0, #0
 3f0:	ebfffffe 	bl	0 <printf>
 3f4:	ea0000a3 	b	688 <socketpair+0x4d0>
 3f8:	e51b2100 	ldr	r2, [fp, #-256]	; 0xffffff00
 3fc:	e51b10fc 	ldr	r1, [fp, #-252]	; 0xffffff04
 400:	e51b00f8 	ldr	r0, [fp, #-248]	; 0xffffff08
 404:	ebfffffe 	bl	0 <socket>
 408:	e50b0010 	str	r0, [fp, #-16]
 40c:	e51b3010 	ldr	r3, [fp, #-16]
 410:	e3530000 	cmp	r3, #0
 414:	aa00000e 	bge	454 <socketpair+0x29c>
 418:	ebfffffe 	bl	0 <__errno_location>
 41c:	e1a03000 	mov	r3, r0
 420:	e5933000 	ldr	r3, [r3]
 424:	e1a00003 	mov	r0, r3
 428:	ebfffffe 	bl	0 <strerror>
 42c:	e1a04000 	mov	r4, r0
 430:	ebfffffe 	bl	0 <__errno_location>
 434:	e1a03000 	mov	r3, r0
 438:	e5933000 	ldr	r3, [r3]
 43c:	e1a02003 	mov	r2, r3
 440:	e1a01004 	mov	r1, r4
 444:	e3000000 	movw	r0, #0
 448:	e3400000 	movt	r0, #0
 44c:	ebfffffe 	bl	0 <printf>
 450:	ea00008c 	b	688 <socketpair+0x4d0>
 454:	e51b0010 	ldr	r0, [fp, #-16]
 458:	ebfffffe 	bl	148 <setnonblocking>
 45c:	e50b0028 	str	r0, [fp, #-40]	; 0xffffffd8
 460:	e24b3060 	sub	r3, fp, #96	; 0x60
 464:	e3a02010 	mov	r2, #16
 468:	e3a01000 	mov	r1, #0
 46c:	e1a00003 	mov	r0, r3
 470:	ebfffffe 	bl	0 <memset>
 474:	e51b30f8 	ldr	r3, [fp, #-248]	; 0xffffff08
 478:	e6ff3073 	uxth	r3, r3
 47c:	e14b36b0 	strh	r3, [fp, #-96]	; 0xffffffa0
 480:	e51b3024 	ldr	r3, [fp, #-36]	; 0xffffffdc
 484:	e6ff3073 	uxth	r3, r3
 488:	e1a00003 	mov	r0, r3
 48c:	ebfffffe 	bl	0 <htons>
 490:	e1a03000 	mov	r3, r0
 494:	e14b35be 	strh	r3, [fp, #-94]	; 0xffffffa2
 498:	e3a00000 	mov	r0, #0
 49c:	ebfffffe 	bl	0 <htonl>
 4a0:	e1a03000 	mov	r3, r0
 4a4:	e50b305c 	str	r3, [fp, #-92]	; 0xffffffa4
 4a8:	e24b3060 	sub	r3, fp, #96	; 0x60
 4ac:	e3a02010 	mov	r2, #16
 4b0:	e1a01003 	mov	r1, r3
 4b4:	e51b0010 	ldr	r0, [fp, #-16]
 4b8:	ebfffffe 	bl	0 <connect>
 4bc:	e24b30e8 	sub	r3, fp, #232	; 0xe8
 4c0:	e50b3018 	str	r3, [fp, #-24]	; 0xffffffe8
 4c4:	e3a03020 	mov	r3, #32
 4c8:	e50b3014 	str	r3, [fp, #-20]	; 0xffffffec
 4cc:	ea000007 	b	4f0 <socketpair+0x338>
 4d0:	e51b3018 	ldr	r3, [fp, #-24]	; 0xffffffe8
 4d4:	e2832004 	add	r2, r3, #4
 4d8:	e50b2018 	str	r2, [fp, #-24]	; 0xffffffe8
 4dc:	e3a02000 	mov	r2, #0
 4e0:	e5832000 	str	r2, [r3]
 4e4:	e51b3014 	ldr	r3, [fp, #-20]	; 0xffffffec
 4e8:	e2433001 	sub	r3, r3, #1
 4ec:	e50b3014 	str	r3, [fp, #-20]	; 0xffffffec
 4f0:	e51b3014 	ldr	r3, [fp, #-20]	; 0xffffffec
 4f4:	e3530000 	cmp	r3, #0
 4f8:	1afffff4 	bne	4d0 <socketpair+0x318>
 4fc:	e51b3020 	ldr	r3, [fp, #-32]	; 0xffffffe0
 500:	e1a022a3 	lsr	r2, r3, #5
 504:	e1a03102 	lsl	r3, r2, #2
 508:	e24b100c 	sub	r1, fp, #12
 50c:	e0813003 	add	r3, r1, r3
 510:	e51310dc 	ldr	r1, [r3, #-220]	; 0xffffff24
 514:	e51b3020 	ldr	r3, [fp, #-32]	; 0xffffffe0
 518:	e203301f 	and	r3, r3, #31
 51c:	e3a00001 	mov	r0, #1
 520:	e1a03310 	lsl	r3, r0, r3
 524:	e1811003 	orr	r1, r1, r3
 528:	e1a03102 	lsl	r3, r2, #2
 52c:	e24b200c 	sub	r2, fp, #12
 530:	e0823003 	add	r3, r2, r3
 534:	e50310dc 	str	r1, [r3, #-220]	; 0xffffff24
 538:	e51b3010 	ldr	r3, [fp, #-16]
 53c:	e1a022a3 	lsr	r2, r3, #5
 540:	e1a03102 	lsl	r3, r2, #2
 544:	e24b100c 	sub	r1, fp, #12
 548:	e0813003 	add	r3, r1, r3
 54c:	e51310dc 	ldr	r1, [r3, #-220]	; 0xffffff24
 550:	e51b3010 	ldr	r3, [fp, #-16]
 554:	e203301f 	and	r3, r3, #31
 558:	e3a00001 	mov	r0, #1
 55c:	e1a03310 	lsl	r3, r0, r3
 560:	e1811003 	orr	r1, r1, r3
 564:	e1a03102 	lsl	r3, r2, #2
 568:	e24b200c 	sub	r2, fp, #12
 56c:	e0823003 	add	r3, r2, r3
 570:	e50310dc 	str	r1, [r3, #-220]	; 0xffffff24
 574:	e51b2020 	ldr	r2, [fp, #-32]	; 0xffffffe0
 578:	e51b3010 	ldr	r3, [fp, #-16]
 57c:	e1520003 	cmp	r2, r3
 580:	da000002 	ble	590 <socketpair+0x3d8>
 584:	e51b3020 	ldr	r3, [fp, #-32]	; 0xffffffe0
 588:	e2833001 	add	r3, r3, #1
 58c:	ea000001 	b	598 <socketpair+0x3e0>
 590:	e51b3010 	ldr	r3, [fp, #-16]
 594:	e2833001 	add	r3, r3, #1
 598:	e50b301c 	str	r3, [fp, #-28]	; 0xffffffe4
 59c:	e24b10e8 	sub	r1, fp, #232	; 0xe8
 5a0:	e24b30f0 	sub	r3, fp, #240	; 0xf0
 5a4:	e58d3000 	str	r3, [sp]
 5a8:	e3a03000 	mov	r3, #0
 5ac:	e3a02000 	mov	r2, #0
 5b0:	e51b001c 	ldr	r0, [fp, #-28]	; 0xffffffe4
 5b4:	ebfffffe 	bl	0 <select>
 5b8:	e50b002c 	str	r0, [fp, #-44]	; 0xffffffd4
 5bc:	e51b302c 	ldr	r3, [fp, #-44]	; 0xffffffd4
 5c0:	e3730001 	cmn	r3, #1
 5c4:	0a000002 	beq	5d4 <socketpair+0x41c>
 5c8:	e3530000 	cmp	r3, #0
 5cc:	0a000004 	beq	5e4 <socketpair+0x42c>
 5d0:	ea000007 	b	5f4 <socketpair+0x43c>
 5d4:	e3000000 	movw	r0, #0
 5d8:	e3400000 	movt	r0, #0
 5dc:	ebfffffe 	bl	0 <perror>
 5e0:	ea000028 	b	688 <socketpair+0x4d0>
 5e4:	e3000000 	movw	r0, #0
 5e8:	e3400000 	movt	r0, #0
 5ec:	ebfffffe 	bl	0 <perror>
 5f0:	ea000024 	b	688 <socketpair+0x4d0>
 5f4:	e51b3020 	ldr	r3, [fp, #-32]	; 0xffffffe0
 5f8:	e1a032a3 	lsr	r3, r3, #5
 5fc:	e1a03103 	lsl	r3, r3, #2
 600:	e24b200c 	sub	r2, fp, #12
 604:	e0823003 	add	r3, r2, r3
 608:	e51320dc 	ldr	r2, [r3, #-220]	; 0xffffff24
 60c:	e51b3020 	ldr	r3, [fp, #-32]	; 0xffffffe0
 610:	e203301f 	and	r3, r3, #31
 614:	e1a03332 	lsr	r3, r2, r3
 618:	e2033001 	and	r3, r3, #1
 61c:	e3530000 	cmp	r3, #0
 620:	0a000017 	beq	684 <socketpair+0x4cc>
 624:	e24b2064 	sub	r2, fp, #100	; 0x64
 628:	e24b3060 	sub	r3, fp, #96	; 0x60
 62c:	e1a01003 	mov	r1, r3
 630:	e51b0020 	ldr	r0, [fp, #-32]	; 0xffffffe0
 634:	ebfffffe 	bl	0 <accept>
 638:	e50b0030 	str	r0, [fp, #-48]	; 0xffffffd0
 63c:	e51b3030 	ldr	r3, [fp, #-48]	; 0xffffffd0
 640:	e3530000 	cmp	r3, #0
 644:	da00000c 	ble	67c <socketpair+0x4c4>
 648:	e51b0020 	ldr	r0, [fp, #-32]	; 0xffffffe0
 64c:	ebfffffe 	bl	0 <close>
 650:	e51b2028 	ldr	r2, [fp, #-40]	; 0xffffffd8
 654:	e3a01004 	mov	r1, #4
 658:	e51b0010 	ldr	r0, [fp, #-16]
 65c:	ebfffffe 	bl	0 <fcntl>
 660:	e51b3104 	ldr	r3, [fp, #-260]	; 0xfffffefc
 664:	e51b2010 	ldr	r2, [fp, #-16]
 668:	e5832000 	str	r2, [r3]
 66c:	e51b3104 	ldr	r3, [fp, #-260]	; 0xfffffefc
 670:	e2833004 	add	r3, r3, #4
 674:	e51b2030 	ldr	r2, [fp, #-48]	; 0xffffffd0
 678:	e5832000 	str	r2, [r3]
 67c:	e3a03000 	mov	r3, #0
 680:	ea00000b 	b	6b4 <socketpair+0x4fc>
 684:	e320f000 	nop	{0}
 688:	e51b3020 	ldr	r3, [fp, #-32]	; 0xffffffe0
 68c:	e3530000 	cmp	r3, #0
 690:	ba000001 	blt	69c <socketpair+0x4e4>
 694:	e51b0020 	ldr	r0, [fp, #-32]	; 0xffffffe0
 698:	ebfffffe 	bl	0 <close>
 69c:	e51b3010 	ldr	r3, [fp, #-16]
 6a0:	e3530000 	cmp	r3, #0
 6a4:	ba000001 	blt	6b0 <socketpair+0x4f8>
 6a8:	e51b0010 	ldr	r0, [fp, #-16]
 6ac:	ebfffffe 	bl	0 <close>
 6b0:	e3e03000 	mvn	r3, #0
 6b4:	e1a00003 	mov	r0, r3
 6b8:	e24bd008 	sub	sp, fp, #8
 6bc:	e8bd8810 	pop	{r4, fp, pc}

Disassembly of section .text:

00000000 <rt_mutex_create>:
       0:	e92d4800 	push	{fp, lr}
       4:	e28db004 	add	fp, sp, #4
       8:	e24dd010 	sub	sp, sp, #16
       c:	e50b0010 	str	r0, [fp, #-16]
      10:	e1a03001 	mov	r3, r1
      14:	e54b3011 	strb	r3, [fp, #-17]	; 0xffffffef
      18:	e3a00008 	mov	r0, #8
      1c:	ebfffffe 	bl	0 <malloc>
      20:	e1a03000 	mov	r3, r0
      24:	e50b3008 	str	r3, [fp, #-8]
      28:	e51b3008 	ldr	r3, [fp, #-8]
      2c:	e3530000 	cmp	r3, #0
      30:	1a000001 	bne	3c <rt_mutex_create+0x3c>
      34:	e3a03000 	mov	r3, #0
      38:	ea000015 	b	94 <rt_mutex_create+0x94>
      3c:	e55b3011 	ldrb	r3, [fp, #-17]	; 0xffffffef
      40:	e1a02003 	mov	r2, r3
      44:	e51b1010 	ldr	r1, [fp, #-16]
      48:	e3a00016 	mov	r0, #22
      4c:	ebfffffe 	bl	0 <syscall>
      50:	e1a03000 	mov	r3, r0
      54:	e1a02003 	mov	r2, r3
      58:	e51b3008 	ldr	r3, [fp, #-8]
      5c:	e5832004 	str	r2, [r3, #4]
      60:	e51b3008 	ldr	r3, [fp, #-8]
      64:	e5933004 	ldr	r3, [r3, #4]
      68:	e3530000 	cmp	r3, #0
      6c:	0a000003 	beq	80 <rt_mutex_create+0x80>
      70:	e51b3008 	ldr	r3, [fp, #-8]
      74:	e3a02003 	mov	r2, #3
      78:	e5832000 	str	r2, [r3]
      7c:	ea000003 	b	90 <rt_mutex_create+0x90>
      80:	e51b0008 	ldr	r0, [fp, #-8]
      84:	ebfffffe 	bl	0 <free>
      88:	e3a03000 	mov	r3, #0
      8c:	e50b3008 	str	r3, [fp, #-8]
      90:	e51b3008 	ldr	r3, [fp, #-8]
      94:	e1a00003 	mov	r0, r3
      98:	e24bd004 	sub	sp, fp, #4
      9c:	e8bd8800 	pop	{fp, pc}

000000a0 <rt_mutex_init>:
      a0:	e92d4800 	push	{fp, lr}
      a4:	e28db004 	add	fp, sp, #4
      a8:	e24dd010 	sub	sp, sp, #16
      ac:	e50b0008 	str	r0, [fp, #-8]
      b0:	e50b100c 	str	r1, [fp, #-12]
      b4:	e1a03002 	mov	r3, r2
      b8:	e54b300d 	strb	r3, [fp, #-13]
      bc:	e51b3008 	ldr	r3, [fp, #-8]
      c0:	e3530000 	cmp	r3, #0
      c4:	1a000001 	bne	d0 <rt_mutex_init+0x30>
      c8:	e3a03008 	mov	r3, #8
      cc:	ea000012 	b	11c <rt_mutex_init+0x7c>
      d0:	e55b300d 	ldrb	r3, [fp, #-13]
      d4:	e1a02003 	mov	r2, r3
      d8:	e51b100c 	ldr	r1, [fp, #-12]
      dc:	e3a00016 	mov	r0, #22
      e0:	ebfffffe 	bl	0 <syscall>
      e4:	e1a03000 	mov	r3, r0
      e8:	e1a02003 	mov	r2, r3
      ec:	e51b3008 	ldr	r3, [fp, #-8]
      f0:	e5832004 	str	r2, [r3, #4]
      f4:	e51b3008 	ldr	r3, [fp, #-8]
      f8:	e5933004 	ldr	r3, [r3, #4]
      fc:	e3530000 	cmp	r3, #0
     100:	0a000004 	beq	118 <rt_mutex_init+0x78>
     104:	e51b3008 	ldr	r3, [fp, #-8]
     108:	e3a02003 	mov	r2, #3
     10c:	e5832000 	str	r2, [r3]
     110:	e3a03000 	mov	r3, #0
     114:	ea000000 	b	11c <rt_mutex_init+0x7c>
     118:	e3a03001 	mov	r3, #1
     11c:	e1a00003 	mov	r0, r3
     120:	e24bd004 	sub	sp, fp, #4
     124:	e8bd8800 	pop	{fp, pc}

00000128 <rt_mutex_delete>:
     128:	e92d4800 	push	{fp, lr}
     12c:	e28db004 	add	fp, sp, #4
     130:	e24dd010 	sub	sp, sp, #16
     134:	e50b0010 	str	r0, [fp, #-16]
     138:	e51b3010 	ldr	r3, [fp, #-16]
     13c:	e3530000 	cmp	r3, #0
     140:	0a000003 	beq	154 <rt_mutex_delete+0x2c>
     144:	e51b3010 	ldr	r3, [fp, #-16]
     148:	e5933004 	ldr	r3, [r3, #4]
     14c:	e3530000 	cmp	r3, #0
     150:	1a000001 	bne	15c <rt_mutex_delete+0x34>
     154:	e3a03008 	mov	r3, #8
     158:	ea000013 	b	1ac <rt_mutex_delete+0x84>
     15c:	e51b3010 	ldr	r3, [fp, #-16]
     160:	e5933000 	ldr	r3, [r3]
     164:	e3530003 	cmp	r3, #3
     168:	0a000001 	beq	174 <rt_mutex_delete+0x4c>
     16c:	e3a03008 	mov	r3, #8
     170:	ea00000d 	b	1ac <rt_mutex_delete+0x84>
     174:	e51b3010 	ldr	r3, [fp, #-16]
     178:	e5933004 	ldr	r3, [r3, #4]
     17c:	e1a01003 	mov	r1, r3
     180:	e3a00017 	mov	r0, #23
     184:	ebfffffe 	bl	0 <syscall>
     188:	e50b0008 	str	r0, [fp, #-8]
     18c:	e51b3008 	ldr	r3, [fp, #-8]
     190:	e3530000 	cmp	r3, #0
     194:	0a000001 	beq	1a0 <rt_mutex_delete+0x78>
     198:	e51b3008 	ldr	r3, [fp, #-8]
     19c:	ea000002 	b	1ac <rt_mutex_delete+0x84>
     1a0:	e51b0010 	ldr	r0, [fp, #-16]
     1a4:	ebfffffe 	bl	0 <free>
     1a8:	e3a03000 	mov	r3, #0
     1ac:	e1a00003 	mov	r0, r3
     1b0:	e24bd004 	sub	sp, fp, #4
     1b4:	e8bd8800 	pop	{fp, pc}

000001b8 <rt_mutex_detach>:
     1b8:	e92d4800 	push	{fp, lr}
     1bc:	e28db004 	add	fp, sp, #4
     1c0:	e24dd010 	sub	sp, sp, #16
     1c4:	e50b0010 	str	r0, [fp, #-16]
     1c8:	e51b3010 	ldr	r3, [fp, #-16]
     1cc:	e3530000 	cmp	r3, #0
     1d0:	0a000003 	beq	1e4 <rt_mutex_detach+0x2c>
     1d4:	e51b3010 	ldr	r3, [fp, #-16]
     1d8:	e5933004 	ldr	r3, [r3, #4]
     1dc:	e3530000 	cmp	r3, #0
     1e0:	1a000001 	bne	1ec <rt_mutex_detach+0x34>
     1e4:	e3a03008 	mov	r3, #8
     1e8:	ea000017 	b	24c <rt_mutex_detach+0x94>
     1ec:	e51b3010 	ldr	r3, [fp, #-16]
     1f0:	e5933000 	ldr	r3, [r3]
     1f4:	e3530003 	cmp	r3, #3
     1f8:	0a000001 	beq	204 <rt_mutex_detach+0x4c>
     1fc:	e3a03008 	mov	r3, #8
     200:	ea000011 	b	24c <rt_mutex_detach+0x94>
     204:	e51b3010 	ldr	r3, [fp, #-16]
     208:	e5933004 	ldr	r3, [r3, #4]
     20c:	e1a01003 	mov	r1, r3
     210:	e3a00017 	mov	r0, #23
     214:	ebfffffe 	bl	0 <syscall>
     218:	e50b0008 	str	r0, [fp, #-8]
     21c:	e51b3008 	ldr	r3, [fp, #-8]
     220:	e3530000 	cmp	r3, #0
     224:	0a000001 	beq	230 <rt_mutex_detach+0x78>
     228:	e51b3008 	ldr	r3, [fp, #-8]
     22c:	ea000006 	b	24c <rt_mutex_detach+0x94>
     230:	e51b3010 	ldr	r3, [fp, #-16]
     234:	e3a02000 	mov	r2, #0
     238:	e5832000 	str	r2, [r3]
     23c:	e51b3010 	ldr	r3, [fp, #-16]
     240:	e3a02000 	mov	r2, #0
     244:	e5832004 	str	r2, [r3, #4]
     248:	e3a03000 	mov	r3, #0
     24c:	e1a00003 	mov	r0, r3
     250:	e24bd004 	sub	sp, fp, #4
     254:	e8bd8800 	pop	{fp, pc}

00000258 <rt_mutex_take>:
     258:	e92d4800 	push	{fp, lr}
     25c:	e28db004 	add	fp, sp, #4
     260:	e24dd008 	sub	sp, sp, #8
     264:	e50b0008 	str	r0, [fp, #-8]
     268:	e50b100c 	str	r1, [fp, #-12]
     26c:	e51b3008 	ldr	r3, [fp, #-8]
     270:	e3530000 	cmp	r3, #0
     274:	0a000003 	beq	288 <rt_mutex_take+0x30>
     278:	e51b3008 	ldr	r3, [fp, #-8]
     27c:	e5933004 	ldr	r3, [r3, #4]
     280:	e3530000 	cmp	r3, #0
     284:	1a000001 	bne	290 <rt_mutex_take+0x38>
     288:	e3a03008 	mov	r3, #8
     28c:	ea00000c 	b	2c4 <rt_mutex_take+0x6c>
     290:	e51b3008 	ldr	r3, [fp, #-8]
     294:	e5933000 	ldr	r3, [r3]
     298:	e3530003 	cmp	r3, #3
     29c:	0a000001 	beq	2a8 <rt_mutex_take+0x50>
     2a0:	e3a03008 	mov	r3, #8
     2a4:	ea000006 	b	2c4 <rt_mutex_take+0x6c>
     2a8:	e51b3008 	ldr	r3, [fp, #-8]
     2ac:	e5933004 	ldr	r3, [r3, #4]
     2b0:	e51b200c 	ldr	r2, [fp, #-12]
     2b4:	e1a01003 	mov	r1, r3
     2b8:	e3a00018 	mov	r0, #24
     2bc:	ebfffffe 	bl	0 <syscall>
     2c0:	e1a03000 	mov	r3, r0
     2c4:	e1a00003 	mov	r0, r3
     2c8:	e24bd004 	sub	sp, fp, #4
     2cc:	e8bd8800 	pop	{fp, pc}

000002d0 <rt_mutex_release>:
     2d0:	e92d4800 	push	{fp, lr}
     2d4:	e28db004 	add	fp, sp, #4
     2d8:	e24dd008 	sub	sp, sp, #8
     2dc:	e50b0008 	str	r0, [fp, #-8]
     2e0:	e51b3008 	ldr	r3, [fp, #-8]
     2e4:	e3530000 	cmp	r3, #0
     2e8:	0a000003 	beq	2fc <rt_mutex_release+0x2c>
     2ec:	e51b3008 	ldr	r3, [fp, #-8]
     2f0:	e5933004 	ldr	r3, [r3, #4]
     2f4:	e3530000 	cmp	r3, #0
     2f8:	1a000001 	bne	304 <rt_mutex_release+0x34>
     2fc:	e3a03008 	mov	r3, #8
     300:	ea00000b 	b	334 <rt_mutex_release+0x64>
     304:	e51b3008 	ldr	r3, [fp, #-8]
     308:	e5933000 	ldr	r3, [r3]
     30c:	e3530003 	cmp	r3, #3
     310:	0a000001 	beq	31c <rt_mutex_release+0x4c>
     314:	e3a03008 	mov	r3, #8
     318:	ea000005 	b	334 <rt_mutex_release+0x64>
     31c:	e51b3008 	ldr	r3, [fp, #-8]
     320:	e5933004 	ldr	r3, [r3, #4]
     324:	e1a01003 	mov	r1, r3
     328:	e3a00019 	mov	r0, #25
     32c:	ebfffffe 	bl	0 <syscall>
     330:	e1a03000 	mov	r3, r0
     334:	e1a00003 	mov	r0, r3
     338:	e24bd004 	sub	sp, fp, #4
     33c:	e8bd8800 	pop	{fp, pc}

00000340 <rt_sem_create>:
     340:	e92d4800 	push	{fp, lr}
     344:	e28db004 	add	fp, sp, #4
     348:	e24dd018 	sub	sp, sp, #24
     34c:	e50b0010 	str	r0, [fp, #-16]
     350:	e50b1014 	str	r1, [fp, #-20]	; 0xffffffec
     354:	e1a03002 	mov	r3, r2
     358:	e54b3015 	strb	r3, [fp, #-21]	; 0xffffffeb
     35c:	e3a00008 	mov	r0, #8
     360:	ebfffffe 	bl	0 <malloc>
     364:	e1a03000 	mov	r3, r0
     368:	e50b3008 	str	r3, [fp, #-8]
     36c:	e51b3008 	ldr	r3, [fp, #-8]
     370:	e3530000 	cmp	r3, #0
     374:	1a000001 	bne	380 <rt_sem_create+0x40>
     378:	e3a03000 	mov	r3, #0
     37c:	ea000015 	b	3d8 <rt_sem_create+0x98>
     380:	e55b3015 	ldrb	r3, [fp, #-21]	; 0xffffffeb
     384:	e51b2014 	ldr	r2, [fp, #-20]	; 0xffffffec
     388:	e51b1010 	ldr	r1, [fp, #-16]
     38c:	e3a00012 	mov	r0, #18
     390:	ebfffffe 	bl	0 <syscall>
     394:	e1a03000 	mov	r3, r0
     398:	e1a02003 	mov	r2, r3
     39c:	e51b3008 	ldr	r3, [fp, #-8]
     3a0:	e5832004 	str	r2, [r3, #4]
     3a4:	e51b3008 	ldr	r3, [fp, #-8]
     3a8:	e5933004 	ldr	r3, [r3, #4]
     3ac:	e3530000 	cmp	r3, #0
     3b0:	0a000003 	beq	3c4 <rt_sem_create+0x84>
     3b4:	e51b3008 	ldr	r3, [fp, #-8]
     3b8:	e3a02002 	mov	r2, #2
     3bc:	e5832000 	str	r2, [r3]
     3c0:	ea000003 	b	3d4 <rt_sem_create+0x94>
     3c4:	e51b0008 	ldr	r0, [fp, #-8]
     3c8:	ebfffffe 	bl	0 <free>
     3cc:	e3a03000 	mov	r3, #0
     3d0:	e50b3008 	str	r3, [fp, #-8]
     3d4:	e51b3008 	ldr	r3, [fp, #-8]
     3d8:	e1a00003 	mov	r0, r3
     3dc:	e24bd004 	sub	sp, fp, #4
     3e0:	e8bd8800 	pop	{fp, pc}

000003e4 <rt_sem_init>:
     3e4:	e92d4800 	push	{fp, lr}
     3e8:	e28db004 	add	fp, sp, #4
     3ec:	e24dd010 	sub	sp, sp, #16
     3f0:	e50b0008 	str	r0, [fp, #-8]
     3f4:	e50b100c 	str	r1, [fp, #-12]
     3f8:	e50b2010 	str	r2, [fp, #-16]
     3fc:	e54b3011 	strb	r3, [fp, #-17]	; 0xffffffef
     400:	e51b3008 	ldr	r3, [fp, #-8]
     404:	e3530000 	cmp	r3, #0
     408:	1a000001 	bne	414 <rt_sem_init+0x30>
     40c:	e3a03008 	mov	r3, #8
     410:	ea000012 	b	460 <rt_sem_init+0x7c>
     414:	e55b3011 	ldrb	r3, [fp, #-17]	; 0xffffffef
     418:	e51b2010 	ldr	r2, [fp, #-16]
     41c:	e51b100c 	ldr	r1, [fp, #-12]
     420:	e3a00012 	mov	r0, #18
     424:	ebfffffe 	bl	0 <syscall>
     428:	e1a03000 	mov	r3, r0
     42c:	e1a02003 	mov	r2, r3
     430:	e51b3008 	ldr	r3, [fp, #-8]
     434:	e5832004 	str	r2, [r3, #4]
     438:	e51b3008 	ldr	r3, [fp, #-8]
     43c:	e5933004 	ldr	r3, [r3, #4]
     440:	e3530000 	cmp	r3, #0
     444:	0a000004 	beq	45c <rt_sem_init+0x78>
     448:	e51b3008 	ldr	r3, [fp, #-8]
     44c:	e3a02002 	mov	r2, #2
     450:	e5832000 	str	r2, [r3]
     454:	e3a03000 	mov	r3, #0
     458:	ea000000 	b	460 <rt_sem_init+0x7c>
     45c:	e3a03001 	mov	r3, #1
     460:	e1a00003 	mov	r0, r3
     464:	e24bd004 	sub	sp, fp, #4
     468:	e8bd8800 	pop	{fp, pc}

0000046c <rt_sem_delete>:
     46c:	e92d4800 	push	{fp, lr}
     470:	e28db004 	add	fp, sp, #4
     474:	e24dd010 	sub	sp, sp, #16
     478:	e50b0010 	str	r0, [fp, #-16]
     47c:	e51b3010 	ldr	r3, [fp, #-16]
     480:	e3530000 	cmp	r3, #0
     484:	0a000003 	beq	498 <rt_sem_delete+0x2c>
     488:	e51b3010 	ldr	r3, [fp, #-16]
     48c:	e5933004 	ldr	r3, [r3, #4]
     490:	e3530000 	cmp	r3, #0
     494:	1a000001 	bne	4a0 <rt_sem_delete+0x34>
     498:	e3a03008 	mov	r3, #8
     49c:	ea000013 	b	4f0 <rt_sem_delete+0x84>
     4a0:	e51b3010 	ldr	r3, [fp, #-16]
     4a4:	e5933000 	ldr	r3, [r3]
     4a8:	e3530002 	cmp	r3, #2
     4ac:	0a000001 	beq	4b8 <rt_sem_delete+0x4c>
     4b0:	e3a03008 	mov	r3, #8
     4b4:	ea00000d 	b	4f0 <rt_sem_delete+0x84>
     4b8:	e51b3010 	ldr	r3, [fp, #-16]
     4bc:	e5933004 	ldr	r3, [r3, #4]
     4c0:	e1a01003 	mov	r1, r3
     4c4:	e3a00013 	mov	r0, #19
     4c8:	ebfffffe 	bl	0 <syscall>
     4cc:	e50b0008 	str	r0, [fp, #-8]
     4d0:	e51b3008 	ldr	r3, [fp, #-8]
     4d4:	e3530000 	cmp	r3, #0
     4d8:	0a000001 	beq	4e4 <rt_sem_delete+0x78>
     4dc:	e51b3008 	ldr	r3, [fp, #-8]
     4e0:	ea000002 	b	4f0 <rt_sem_delete+0x84>
     4e4:	e51b0010 	ldr	r0, [fp, #-16]
     4e8:	ebfffffe 	bl	0 <free>
     4ec:	e3a03000 	mov	r3, #0
     4f0:	e1a00003 	mov	r0, r3
     4f4:	e24bd004 	sub	sp, fp, #4
     4f8:	e8bd8800 	pop	{fp, pc}

000004fc <rt_sem_detach>:
     4fc:	e92d4800 	push	{fp, lr}
     500:	e28db004 	add	fp, sp, #4
     504:	e24dd010 	sub	sp, sp, #16
     508:	e50b0010 	str	r0, [fp, #-16]
     50c:	e51b3010 	ldr	r3, [fp, #-16]
     510:	e3530000 	cmp	r3, #0
     514:	0a000003 	beq	528 <rt_sem_detach+0x2c>
     518:	e51b3010 	ldr	r3, [fp, #-16]
     51c:	e5933004 	ldr	r3, [r3, #4]
     520:	e3530000 	cmp	r3, #0
     524:	1a000001 	bne	530 <rt_sem_detach+0x34>
     528:	e3a03008 	mov	r3, #8
     52c:	ea000017 	b	590 <rt_sem_detach+0x94>
     530:	e51b3010 	ldr	r3, [fp, #-16]
     534:	e5933000 	ldr	r3, [r3]
     538:	e3530002 	cmp	r3, #2
     53c:	0a000001 	beq	548 <rt_sem_detach+0x4c>
     540:	e3a03008 	mov	r3, #8
     544:	ea000011 	b	590 <rt_sem_detach+0x94>
     548:	e51b3010 	ldr	r3, [fp, #-16]
     54c:	e5933004 	ldr	r3, [r3, #4]
     550:	e1a01003 	mov	r1, r3
     554:	e3a00013 	mov	r0, #19
     558:	ebfffffe 	bl	0 <syscall>
     55c:	e50b0008 	str	r0, [fp, #-8]
     560:	e51b3008 	ldr	r3, [fp, #-8]
     564:	e3530000 	cmp	r3, #0
     568:	0a000001 	beq	574 <rt_sem_detach+0x78>
     56c:	e51b3008 	ldr	r3, [fp, #-8]
     570:	ea000006 	b	590 <rt_sem_detach+0x94>
     574:	e51b3010 	ldr	r3, [fp, #-16]
     578:	e3a02000 	mov	r2, #0
     57c:	e5832000 	str	r2, [r3]
     580:	e51b3010 	ldr	r3, [fp, #-16]
     584:	e3a02000 	mov	r2, #0
     588:	e5832004 	str	r2, [r3, #4]
     58c:	e3a03000 	mov	r3, #0
     590:	e1a00003 	mov	r0, r3
     594:	e24bd004 	sub	sp, fp, #4
     598:	e8bd8800 	pop	{fp, pc}

0000059c <rt_sem_release>:
     59c:	e92d4800 	push	{fp, lr}
     5a0:	e28db004 	add	fp, sp, #4
     5a4:	e24dd008 	sub	sp, sp, #8
     5a8:	e50b0008 	str	r0, [fp, #-8]
     5ac:	e51b3008 	ldr	r3, [fp, #-8]
     5b0:	e3530000 	cmp	r3, #0
     5b4:	0a000003 	beq	5c8 <rt_sem_release+0x2c>
     5b8:	e51b3008 	ldr	r3, [fp, #-8]
     5bc:	e5933004 	ldr	r3, [r3, #4]
     5c0:	e3530000 	cmp	r3, #0
     5c4:	1a000001 	bne	5d0 <rt_sem_release+0x34>
     5c8:	e3a03008 	mov	r3, #8
     5cc:	ea00000b 	b	600 <rt_sem_release+0x64>
     5d0:	e51b3008 	ldr	r3, [fp, #-8]
     5d4:	e5933000 	ldr	r3, [r3]
     5d8:	e3530002 	cmp	r3, #2
     5dc:	0a000001 	beq	5e8 <rt_sem_release+0x4c>
     5e0:	e3a03008 	mov	r3, #8
     5e4:	ea000005 	b	600 <rt_sem_release+0x64>
     5e8:	e51b3008 	ldr	r3, [fp, #-8]
     5ec:	e5933004 	ldr	r3, [r3, #4]
     5f0:	e1a01003 	mov	r1, r3
     5f4:	e3a00015 	mov	r0, #21
     5f8:	ebfffffe 	bl	0 <syscall>
     5fc:	e1a03000 	mov	r3, r0
     600:	e1a00003 	mov	r0, r3
     604:	e24bd004 	sub	sp, fp, #4
     608:	e8bd8800 	pop	{fp, pc}

0000060c <rt_sem_take>:
     60c:	e92d4800 	push	{fp, lr}
     610:	e28db004 	add	fp, sp, #4
     614:	e24dd008 	sub	sp, sp, #8
     618:	e50b0008 	str	r0, [fp, #-8]
     61c:	e50b100c 	str	r1, [fp, #-12]
     620:	e51b3008 	ldr	r3, [fp, #-8]
     624:	e3530000 	cmp	r3, #0
     628:	0a000003 	beq	63c <rt_sem_take+0x30>
     62c:	e51b3008 	ldr	r3, [fp, #-8]
     630:	e5933004 	ldr	r3, [r3, #4]
     634:	e3530000 	cmp	r3, #0
     638:	1a000001 	bne	644 <rt_sem_take+0x38>
     63c:	e3a03008 	mov	r3, #8
     640:	ea00000c 	b	678 <rt_sem_take+0x6c>
     644:	e51b3008 	ldr	r3, [fp, #-8]
     648:	e5933000 	ldr	r3, [r3]
     64c:	e3530002 	cmp	r3, #2
     650:	0a000001 	beq	65c <rt_sem_take+0x50>
     654:	e3a03008 	mov	r3, #8
     658:	ea000006 	b	678 <rt_sem_take+0x6c>
     65c:	e51b3008 	ldr	r3, [fp, #-8]
     660:	e5933004 	ldr	r3, [r3, #4]
     664:	e51b200c 	ldr	r2, [fp, #-12]
     668:	e1a01003 	mov	r1, r3
     66c:	e3a00014 	mov	r0, #20
     670:	ebfffffe 	bl	0 <syscall>
     674:	e1a03000 	mov	r3, r0
     678:	e1a00003 	mov	r0, r3
     67c:	e24bd004 	sub	sp, fp, #4
     680:	e8bd8800 	pop	{fp, pc}

00000684 <rt_mb_create>:
     684:	e92d4800 	push	{fp, lr}
     688:	e28db004 	add	fp, sp, #4
     68c:	e24dd018 	sub	sp, sp, #24
     690:	e50b0010 	str	r0, [fp, #-16]
     694:	e50b1014 	str	r1, [fp, #-20]	; 0xffffffec
     698:	e1a03002 	mov	r3, r2
     69c:	e54b3015 	strb	r3, [fp, #-21]	; 0xffffffeb
     6a0:	e3a00008 	mov	r0, #8
     6a4:	ebfffffe 	bl	0 <malloc>
     6a8:	e1a03000 	mov	r3, r0
     6ac:	e50b3008 	str	r3, [fp, #-8]
     6b0:	e51b3008 	ldr	r3, [fp, #-8]
     6b4:	e3530000 	cmp	r3, #0
     6b8:	1a000001 	bne	6c4 <rt_mb_create+0x40>
     6bc:	e3a03000 	mov	r3, #0
     6c0:	ea000015 	b	71c <rt_mb_create+0x98>
     6c4:	e55b3015 	ldrb	r3, [fp, #-21]	; 0xffffffeb
     6c8:	e51b2014 	ldr	r2, [fp, #-20]	; 0xffffffec
     6cc:	e51b1010 	ldr	r1, [fp, #-16]
     6d0:	e3a0001e 	mov	r0, #30
     6d4:	ebfffffe 	bl	0 <syscall>
     6d8:	e1a03000 	mov	r3, r0
     6dc:	e1a02003 	mov	r2, r3
     6e0:	e51b3008 	ldr	r3, [fp, #-8]
     6e4:	e5832004 	str	r2, [r3, #4]
     6e8:	e51b3008 	ldr	r3, [fp, #-8]
     6ec:	e5933004 	ldr	r3, [r3, #4]
     6f0:	e3530000 	cmp	r3, #0
     6f4:	0a000003 	beq	708 <rt_mb_create+0x84>
     6f8:	e51b3008 	ldr	r3, [fp, #-8]
     6fc:	e3a02005 	mov	r2, #5
     700:	e5832000 	str	r2, [r3]
     704:	ea000003 	b	718 <rt_mb_create+0x94>
     708:	e51b0008 	ldr	r0, [fp, #-8]
     70c:	ebfffffe 	bl	0 <free>
     710:	e3a03000 	mov	r3, #0
     714:	e50b3008 	str	r3, [fp, #-8]
     718:	e51b3008 	ldr	r3, [fp, #-8]
     71c:	e1a00003 	mov	r0, r3
     720:	e24bd004 	sub	sp, fp, #4
     724:	e8bd8800 	pop	{fp, pc}

00000728 <rt_mb_init>:
     728:	e92d4800 	push	{fp, lr}
     72c:	e28db004 	add	fp, sp, #4
     730:	e24dd010 	sub	sp, sp, #16
     734:	e50b0008 	str	r0, [fp, #-8]
     738:	e50b100c 	str	r1, [fp, #-12]
     73c:	e50b2010 	str	r2, [fp, #-16]
     740:	e50b3014 	str	r3, [fp, #-20]	; 0xffffffec
     744:	e51b3008 	ldr	r3, [fp, #-8]
     748:	e3530000 	cmp	r3, #0
     74c:	1a000001 	bne	758 <rt_mb_init+0x30>
     750:	e3a03008 	mov	r3, #8
     754:	ea000012 	b	7a4 <rt_mb_init+0x7c>
     758:	e5db3004 	ldrb	r3, [fp, #4]
     75c:	e51b2014 	ldr	r2, [fp, #-20]	; 0xffffffec
     760:	e51b100c 	ldr	r1, [fp, #-12]
     764:	e3a0001e 	mov	r0, #30
     768:	ebfffffe 	bl	0 <syscall>
     76c:	e1a03000 	mov	r3, r0
     770:	e1a02003 	mov	r2, r3
     774:	e51b3008 	ldr	r3, [fp, #-8]
     778:	e5832004 	str	r2, [r3, #4]
     77c:	e51b3008 	ldr	r3, [fp, #-8]
     780:	e5933004 	ldr	r3, [r3, #4]
     784:	e3530000 	cmp	r3, #0
     788:	0a000004 	beq	7a0 <rt_mb_init+0x78>
     78c:	e51b3008 	ldr	r3, [fp, #-8]
     790:	e3a02005 	mov	r2, #5
     794:	e5832000 	str	r2, [r3]
     798:	e3a03000 	mov	r3, #0
     79c:	ea000000 	b	7a4 <rt_mb_init+0x7c>
     7a0:	e3a03001 	mov	r3, #1
     7a4:	e1a00003 	mov	r0, r3
     7a8:	e24bd004 	sub	sp, fp, #4
     7ac:	e8bd8800 	pop	{fp, pc}

000007b0 <rt_mb_delete>:
     7b0:	e92d4800 	push	{fp, lr}
     7b4:	e28db004 	add	fp, sp, #4
     7b8:	e24dd010 	sub	sp, sp, #16
     7bc:	e50b0010 	str	r0, [fp, #-16]
     7c0:	e51b3010 	ldr	r3, [fp, #-16]
     7c4:	e3530000 	cmp	r3, #0
     7c8:	0a000003 	beq	7dc <rt_mb_delete+0x2c>
     7cc:	e51b3010 	ldr	r3, [fp, #-16]
     7d0:	e5933004 	ldr	r3, [r3, #4]
     7d4:	e3530000 	cmp	r3, #0
     7d8:	1a000001 	bne	7e4 <rt_mb_delete+0x34>
     7dc:	e3a03008 	mov	r3, #8
     7e0:	ea000013 	b	834 <rt_mb_delete+0x84>
     7e4:	e51b3010 	ldr	r3, [fp, #-16]
     7e8:	e5933000 	ldr	r3, [r3]
     7ec:	e3530005 	cmp	r3, #5
     7f0:	0a000001 	beq	7fc <rt_mb_delete+0x4c>
     7f4:	e3a03008 	mov	r3, #8
     7f8:	ea00000d 	b	834 <rt_mb_delete+0x84>
     7fc:	e51b3010 	ldr	r3, [fp, #-16]
     800:	e5933004 	ldr	r3, [r3, #4]
     804:	e1a01003 	mov	r1, r3
     808:	e3a0001f 	mov	r0, #31
     80c:	ebfffffe 	bl	0 <syscall>
     810:	e50b0008 	str	r0, [fp, #-8]
     814:	e51b3008 	ldr	r3, [fp, #-8]
     818:	e3530000 	cmp	r3, #0
     81c:	0a000001 	beq	828 <rt_mb_delete+0x78>
     820:	e51b3008 	ldr	r3, [fp, #-8]
     824:	ea000002 	b	834 <rt_mb_delete+0x84>
     828:	e51b0010 	ldr	r0, [fp, #-16]
     82c:	ebfffffe 	bl	0 <free>
     830:	e3a03000 	mov	r3, #0
     834:	e1a00003 	mov	r0, r3
     838:	e24bd004 	sub	sp, fp, #4
     83c:	e8bd8800 	pop	{fp, pc}

00000840 <rt_mb_detach>:
     840:	e92d4800 	push	{fp, lr}
     844:	e28db004 	add	fp, sp, #4
     848:	e24dd010 	sub	sp, sp, #16
     84c:	e50b0010 	str	r0, [fp, #-16]
     850:	e51b3010 	ldr	r3, [fp, #-16]
     854:	e3530000 	cmp	r3, #0
     858:	0a000003 	beq	86c <rt_mb_detach+0x2c>
     85c:	e51b3010 	ldr	r3, [fp, #-16]
     860:	e5933004 	ldr	r3, [r3, #4]
     864:	e3530000 	cmp	r3, #0
     868:	1a000001 	bne	874 <rt_mb_detach+0x34>
     86c:	e3a03008 	mov	r3, #8
     870:	ea000017 	b	8d4 <rt_mb_detach+0x94>
     874:	e51b3010 	ldr	r3, [fp, #-16]
     878:	e5933000 	ldr	r3, [r3]
     87c:	e3530005 	cmp	r3, #5
     880:	0a000001 	beq	88c <rt_mb_detach+0x4c>
     884:	e3a03008 	mov	r3, #8
     888:	ea000011 	b	8d4 <rt_mb_detach+0x94>
     88c:	e51b3010 	ldr	r3, [fp, #-16]
     890:	e5933004 	ldr	r3, [r3, #4]
     894:	e1a01003 	mov	r1, r3
     898:	e3a0001f 	mov	r0, #31
     89c:	ebfffffe 	bl	0 <syscall>
     8a0:	e50b0008 	str	r0, [fp, #-8]
     8a4:	e51b3008 	ldr	r3, [fp, #-8]
     8a8:	e3530000 	cmp	r3, #0
     8ac:	0a000001 	beq	8b8 <rt_mb_detach+0x78>
     8b0:	e51b3008 	ldr	r3, [fp, #-8]
     8b4:	ea000006 	b	8d4 <rt_mb_detach+0x94>
     8b8:	e51b3010 	ldr	r3, [fp, #-16]
     8bc:	e3a02000 	mov	r2, #0
     8c0:	e5832000 	str	r2, [r3]
     8c4:	e51b3010 	ldr	r3, [fp, #-16]
     8c8:	e3a02000 	mov	r2, #0
     8cc:	e5832004 	str	r2, [r3, #4]
     8d0:	e3a03000 	mov	r3, #0
     8d4:	e1a00003 	mov	r0, r3
     8d8:	e24bd004 	sub	sp, fp, #4
     8dc:	e8bd8800 	pop	{fp, pc}

000008e0 <rt_mb_send_wait>:
     8e0:	e92d4800 	push	{fp, lr}
     8e4:	e28db004 	add	fp, sp, #4
     8e8:	e24dd010 	sub	sp, sp, #16
     8ec:	e50b0008 	str	r0, [fp, #-8]
     8f0:	e50b100c 	str	r1, [fp, #-12]
     8f4:	e50b2010 	str	r2, [fp, #-16]
     8f8:	e51b3008 	ldr	r3, [fp, #-8]
     8fc:	e3530000 	cmp	r3, #0
     900:	0a000003 	beq	914 <rt_mb_send_wait+0x34>
     904:	e51b3008 	ldr	r3, [fp, #-8]
     908:	e5933004 	ldr	r3, [r3, #4]
     90c:	e3530000 	cmp	r3, #0
     910:	1a000001 	bne	91c <rt_mb_send_wait+0x3c>
     914:	e3a03008 	mov	r3, #8
     918:	ea00000c 	b	950 <rt_mb_send_wait+0x70>
     91c:	e51b3008 	ldr	r3, [fp, #-8]
     920:	e5933000 	ldr	r3, [r3]
     924:	e3530005 	cmp	r3, #5
     928:	0a000001 	beq	934 <rt_mb_send_wait+0x54>
     92c:	e3a03008 	mov	r3, #8
     930:	ea000006 	b	950 <rt_mb_send_wait+0x70>
     934:	e51b3008 	ldr	r3, [fp, #-8]
     938:	e5931004 	ldr	r1, [r3, #4]
     93c:	e51b3010 	ldr	r3, [fp, #-16]
     940:	e51b200c 	ldr	r2, [fp, #-12]
     944:	e3a00021 	mov	r0, #33	; 0x21
     948:	ebfffffe 	bl	0 <syscall>
     94c:	e1a03000 	mov	r3, r0
     950:	e1a00003 	mov	r0, r3
     954:	e24bd004 	sub	sp, fp, #4
     958:	e8bd8800 	pop	{fp, pc}

0000095c <rt_mb_send>:
     95c:	e92d4800 	push	{fp, lr}
     960:	e28db004 	add	fp, sp, #4
     964:	e24dd008 	sub	sp, sp, #8
     968:	e50b0008 	str	r0, [fp, #-8]
     96c:	e50b100c 	str	r1, [fp, #-12]
     970:	e51b3008 	ldr	r3, [fp, #-8]
     974:	e3530000 	cmp	r3, #0
     978:	0a000003 	beq	98c <rt_mb_send+0x30>
     97c:	e51b3008 	ldr	r3, [fp, #-8]
     980:	e5933004 	ldr	r3, [r3, #4]
     984:	e3530000 	cmp	r3, #0
     988:	1a000001 	bne	994 <rt_mb_send+0x38>
     98c:	e3a03008 	mov	r3, #8
     990:	ea00000c 	b	9c8 <rt_mb_send+0x6c>
     994:	e51b3008 	ldr	r3, [fp, #-8]
     998:	e5933000 	ldr	r3, [r3]
     99c:	e3530005 	cmp	r3, #5
     9a0:	0a000001 	beq	9ac <rt_mb_send+0x50>
     9a4:	e3a03008 	mov	r3, #8
     9a8:	ea000006 	b	9c8 <rt_mb_send+0x6c>
     9ac:	e51b3008 	ldr	r3, [fp, #-8]
     9b0:	e5933004 	ldr	r3, [r3, #4]
     9b4:	e51b200c 	ldr	r2, [fp, #-12]
     9b8:	e1a01003 	mov	r1, r3
     9bc:	e3a00020 	mov	r0, #32
     9c0:	ebfffffe 	bl	0 <syscall>
     9c4:	e1a03000 	mov	r3, r0
     9c8:	e1a00003 	mov	r0, r3
     9cc:	e24bd004 	sub	sp, fp, #4
     9d0:	e8bd8800 	pop	{fp, pc}

000009d4 <rt_mb_recv>:
     9d4:	e92d4800 	push	{fp, lr}
     9d8:	e28db004 	add	fp, sp, #4
     9dc:	e24dd010 	sub	sp, sp, #16
     9e0:	e50b0008 	str	r0, [fp, #-8]
     9e4:	e50b100c 	str	r1, [fp, #-12]
     9e8:	e50b2010 	str	r2, [fp, #-16]
     9ec:	e51b3008 	ldr	r3, [fp, #-8]
     9f0:	e3530000 	cmp	r3, #0
     9f4:	0a000003 	beq	a08 <rt_mb_recv+0x34>
     9f8:	e51b3008 	ldr	r3, [fp, #-8]
     9fc:	e5933004 	ldr	r3, [r3, #4]
     a00:	e3530000 	cmp	r3, #0
     a04:	1a000001 	bne	a10 <rt_mb_recv+0x3c>
     a08:	e3a03008 	mov	r3, #8
     a0c:	ea00000c 	b	a44 <rt_mb_recv+0x70>
     a10:	e51b3008 	ldr	r3, [fp, #-8]
     a14:	e5933000 	ldr	r3, [r3]
     a18:	e3530005 	cmp	r3, #5
     a1c:	0a000001 	beq	a28 <rt_mb_recv+0x54>
     a20:	e3a03008 	mov	r3, #8
     a24:	ea000006 	b	a44 <rt_mb_recv+0x70>
     a28:	e51b3008 	ldr	r3, [fp, #-8]
     a2c:	e5931004 	ldr	r1, [r3, #4]
     a30:	e51b3010 	ldr	r3, [fp, #-16]
     a34:	e51b200c 	ldr	r2, [fp, #-12]
     a38:	e3a00022 	mov	r0, #34	; 0x22
     a3c:	ebfffffe 	bl	0 <syscall>
     a40:	e1a03000 	mov	r3, r0
     a44:	e1a00003 	mov	r0, r3
     a48:	e24bd004 	sub	sp, fp, #4
     a4c:	e8bd8800 	pop	{fp, pc}

00000a50 <rt_mq_create>:
     a50:	e92d4800 	push	{fp, lr}
     a54:	e28db004 	add	fp, sp, #4
     a58:	e24dd020 	sub	sp, sp, #32
     a5c:	e50b0010 	str	r0, [fp, #-16]
     a60:	e50b1014 	str	r1, [fp, #-20]	; 0xffffffec
     a64:	e50b2018 	str	r2, [fp, #-24]	; 0xffffffe8
     a68:	e54b3019 	strb	r3, [fp, #-25]	; 0xffffffe7
     a6c:	e3a00008 	mov	r0, #8
     a70:	ebfffffe 	bl	0 <malloc>
     a74:	e1a03000 	mov	r3, r0
     a78:	e50b3008 	str	r3, [fp, #-8]
     a7c:	e51b3008 	ldr	r3, [fp, #-8]
     a80:	e3530000 	cmp	r3, #0
     a84:	1a000001 	bne	a90 <rt_mq_create+0x40>
     a88:	e3a03000 	mov	r3, #0
     a8c:	ea000017 	b	af0 <rt_mq_create+0xa0>
     a90:	e55b3019 	ldrb	r3, [fp, #-25]	; 0xffffffe7
     a94:	e58d3000 	str	r3, [sp]
     a98:	e51b3018 	ldr	r3, [fp, #-24]	; 0xffffffe8
     a9c:	e51b2014 	ldr	r2, [fp, #-20]	; 0xffffffec
     aa0:	e51b1010 	ldr	r1, [fp, #-16]
     aa4:	e3a00023 	mov	r0, #35	; 0x23
     aa8:	ebfffffe 	bl	0 <syscall>
     aac:	e1a03000 	mov	r3, r0
     ab0:	e1a02003 	mov	r2, r3
     ab4:	e51b3008 	ldr	r3, [fp, #-8]
     ab8:	e5832004 	str	r2, [r3, #4]
     abc:	e51b3008 	ldr	r3, [fp, #-8]
     ac0:	e5933004 	ldr	r3, [r3, #4]
     ac4:	e3530000 	cmp	r3, #0
     ac8:	0a000003 	beq	adc <rt_mq_create+0x8c>
     acc:	e51b3008 	ldr	r3, [fp, #-8]
     ad0:	e3a02006 	mov	r2, #6
     ad4:	e5832000 	str	r2, [r3]
     ad8:	ea000003 	b	aec <rt_mq_create+0x9c>
     adc:	e51b0008 	ldr	r0, [fp, #-8]
     ae0:	ebfffffe 	bl	0 <free>
     ae4:	e3a03000 	mov	r3, #0
     ae8:	e50b3008 	str	r3, [fp, #-8]
     aec:	e51b3008 	ldr	r3, [fp, #-8]
     af0:	e1a00003 	mov	r0, r3
     af4:	e24bd004 	sub	sp, fp, #4
     af8:	e8bd8800 	pop	{fp, pc}

00000afc <rt_mq_init>:
     afc:	e92d4800 	push	{fp, lr}
     b00:	e28db004 	add	fp, sp, #4
     b04:	e24dd018 	sub	sp, sp, #24
     b08:	e50b0008 	str	r0, [fp, #-8]
     b0c:	e50b100c 	str	r1, [fp, #-12]
     b10:	e50b2010 	str	r2, [fp, #-16]
     b14:	e50b3014 	str	r3, [fp, #-20]	; 0xffffffec
     b18:	e51b3008 	ldr	r3, [fp, #-8]
     b1c:	e3530000 	cmp	r3, #0
     b20:	1a000001 	bne	b2c <rt_mq_init+0x30>
     b24:	e3a03008 	mov	r3, #8
     b28:	ea000019 	b	b94 <rt_mq_init+0x98>
     b2c:	e51b1014 	ldr	r1, [fp, #-20]	; 0xffffffec
     b30:	e59b0004 	ldr	r0, [fp, #4]
     b34:	ebfffffe 	bl	0 <__aeabi_uidiv>
     b38:	e1a03000 	mov	r3, r0
     b3c:	e1a02003 	mov	r2, r3
     b40:	e5db3008 	ldrb	r3, [fp, #8]
     b44:	e58d3000 	str	r3, [sp]
     b48:	e1a03002 	mov	r3, r2
     b4c:	e51b2014 	ldr	r2, [fp, #-20]	; 0xffffffec
     b50:	e51b100c 	ldr	r1, [fp, #-12]
     b54:	e3a00023 	mov	r0, #35	; 0x23
     b58:	ebfffffe 	bl	0 <syscall>
     b5c:	e1a03000 	mov	r3, r0
     b60:	e1a02003 	mov	r2, r3
     b64:	e51b3008 	ldr	r3, [fp, #-8]
     b68:	e5832004 	str	r2, [r3, #4]
     b6c:	e51b3008 	ldr	r3, [fp, #-8]
     b70:	e5933004 	ldr	r3, [r3, #4]
     b74:	e3530000 	cmp	r3, #0
     b78:	0a000004 	beq	b90 <rt_mq_init+0x94>
     b7c:	e51b3008 	ldr	r3, [fp, #-8]
     b80:	e3a02006 	mov	r2, #6
     b84:	e5832000 	str	r2, [r3]
     b88:	e3a03000 	mov	r3, #0
     b8c:	ea000000 	b	b94 <rt_mq_init+0x98>
     b90:	e3a03001 	mov	r3, #1
     b94:	e1a00003 	mov	r0, r3
     b98:	e24bd004 	sub	sp, fp, #4
     b9c:	e8bd8800 	pop	{fp, pc}

00000ba0 <rt_mq_delete>:
     ba0:	e92d4800 	push	{fp, lr}
     ba4:	e28db004 	add	fp, sp, #4
     ba8:	e24dd010 	sub	sp, sp, #16
     bac:	e50b0010 	str	r0, [fp, #-16]
     bb0:	e51b3010 	ldr	r3, [fp, #-16]
     bb4:	e3530000 	cmp	r3, #0
     bb8:	0a000003 	beq	bcc <rt_mq_delete+0x2c>
     bbc:	e51b3010 	ldr	r3, [fp, #-16]
     bc0:	e5933004 	ldr	r3, [r3, #4]
     bc4:	e3530000 	cmp	r3, #0
     bc8:	1a000001 	bne	bd4 <rt_mq_delete+0x34>
     bcc:	e3a03008 	mov	r3, #8
     bd0:	ea000013 	b	c24 <rt_mq_delete+0x84>
     bd4:	e51b3010 	ldr	r3, [fp, #-16]
     bd8:	e5933000 	ldr	r3, [r3]
     bdc:	e3530006 	cmp	r3, #6
     be0:	0a000001 	beq	bec <rt_mq_delete+0x4c>
     be4:	e3a03008 	mov	r3, #8
     be8:	ea00000d 	b	c24 <rt_mq_delete+0x84>
     bec:	e51b3010 	ldr	r3, [fp, #-16]
     bf0:	e5933004 	ldr	r3, [r3, #4]
     bf4:	e1a01003 	mov	r1, r3
     bf8:	e3a00024 	mov	r0, #36	; 0x24
     bfc:	ebfffffe 	bl	0 <syscall>
     c00:	e50b0008 	str	r0, [fp, #-8]
     c04:	e51b3008 	ldr	r3, [fp, #-8]
     c08:	e3530000 	cmp	r3, #0
     c0c:	0a000001 	beq	c18 <rt_mq_delete+0x78>
     c10:	e51b3008 	ldr	r3, [fp, #-8]
     c14:	ea000002 	b	c24 <rt_mq_delete+0x84>
     c18:	e51b0010 	ldr	r0, [fp, #-16]
     c1c:	ebfffffe 	bl	0 <free>
     c20:	e3a03000 	mov	r3, #0
     c24:	e1a00003 	mov	r0, r3
     c28:	e24bd004 	sub	sp, fp, #4
     c2c:	e8bd8800 	pop	{fp, pc}

00000c30 <rt_mq_detach>:
     c30:	e92d4800 	push	{fp, lr}
     c34:	e28db004 	add	fp, sp, #4
     c38:	e24dd010 	sub	sp, sp, #16
     c3c:	e50b0010 	str	r0, [fp, #-16]
     c40:	e51b3010 	ldr	r3, [fp, #-16]
     c44:	e3530000 	cmp	r3, #0
     c48:	0a000003 	beq	c5c <rt_mq_detach+0x2c>
     c4c:	e51b3010 	ldr	r3, [fp, #-16]
     c50:	e5933004 	ldr	r3, [r3, #4]
     c54:	e3530000 	cmp	r3, #0
     c58:	1a000001 	bne	c64 <rt_mq_detach+0x34>
     c5c:	e3a03008 	mov	r3, #8
     c60:	ea000017 	b	cc4 <rt_mq_detach+0x94>
     c64:	e51b3010 	ldr	r3, [fp, #-16]
     c68:	e5933000 	ldr	r3, [r3]
     c6c:	e3530006 	cmp	r3, #6
     c70:	0a000001 	beq	c7c <rt_mq_detach+0x4c>
     c74:	e3a03008 	mov	r3, #8
     c78:	ea000011 	b	cc4 <rt_mq_detach+0x94>
     c7c:	e51b3010 	ldr	r3, [fp, #-16]
     c80:	e5933004 	ldr	r3, [r3, #4]
     c84:	e1a01003 	mov	r1, r3
     c88:	e3a00024 	mov	r0, #36	; 0x24
     c8c:	ebfffffe 	bl	0 <syscall>
     c90:	e50b0008 	str	r0, [fp, #-8]
     c94:	e51b3008 	ldr	r3, [fp, #-8]
     c98:	e3530000 	cmp	r3, #0
     c9c:	0a000001 	beq	ca8 <rt_mq_detach+0x78>
     ca0:	e51b3008 	ldr	r3, [fp, #-8]
     ca4:	ea000006 	b	cc4 <rt_mq_detach+0x94>
     ca8:	e51b3010 	ldr	r3, [fp, #-16]
     cac:	e3a02000 	mov	r2, #0
     cb0:	e5832000 	str	r2, [r3]
     cb4:	e51b3010 	ldr	r3, [fp, #-16]
     cb8:	e3a02000 	mov	r2, #0
     cbc:	e5832004 	str	r2, [r3, #4]
     cc0:	e3a03000 	mov	r3, #0
     cc4:	e1a00003 	mov	r0, r3
     cc8:	e24bd004 	sub	sp, fp, #4
     ccc:	e8bd8800 	pop	{fp, pc}

00000cd0 <rt_mq_send>:
     cd0:	e92d4800 	push	{fp, lr}
     cd4:	e28db004 	add	fp, sp, #4
     cd8:	e24dd010 	sub	sp, sp, #16
     cdc:	e50b0008 	str	r0, [fp, #-8]
     ce0:	e50b100c 	str	r1, [fp, #-12]
     ce4:	e50b2010 	str	r2, [fp, #-16]
     ce8:	e51b3008 	ldr	r3, [fp, #-8]
     cec:	e3530000 	cmp	r3, #0
     cf0:	0a000003 	beq	d04 <rt_mq_send+0x34>
     cf4:	e51b3008 	ldr	r3, [fp, #-8]
     cf8:	e5933004 	ldr	r3, [r3, #4]
     cfc:	e3530000 	cmp	r3, #0
     d00:	1a000001 	bne	d0c <rt_mq_send+0x3c>
     d04:	e3a03008 	mov	r3, #8
     d08:	ea00000c 	b	d40 <rt_mq_send+0x70>
     d0c:	e51b3008 	ldr	r3, [fp, #-8]
     d10:	e5933000 	ldr	r3, [r3]
     d14:	e3530006 	cmp	r3, #6
     d18:	0a000001 	beq	d24 <rt_mq_send+0x54>
     d1c:	e3a03008 	mov	r3, #8
     d20:	ea000006 	b	d40 <rt_mq_send+0x70>
     d24:	e51b3008 	ldr	r3, [fp, #-8]
     d28:	e5931004 	ldr	r1, [r3, #4]
     d2c:	e51b3010 	ldr	r3, [fp, #-16]
     d30:	e51b200c 	ldr	r2, [fp, #-12]
     d34:	e3a00025 	mov	r0, #37	; 0x25
     d38:	ebfffffe 	bl	0 <syscall>
     d3c:	e1a03000 	mov	r3, r0
     d40:	e1a00003 	mov	r0, r3
     d44:	e24bd004 	sub	sp, fp, #4
     d48:	e8bd8800 	pop	{fp, pc}

00000d4c <rt_mq_urgent>:
     d4c:	e92d4800 	push	{fp, lr}
     d50:	e28db004 	add	fp, sp, #4
     d54:	e24dd010 	sub	sp, sp, #16
     d58:	e50b0008 	str	r0, [fp, #-8]
     d5c:	e50b100c 	str	r1, [fp, #-12]
     d60:	e50b2010 	str	r2, [fp, #-16]
     d64:	e51b3008 	ldr	r3, [fp, #-8]
     d68:	e3530000 	cmp	r3, #0
     d6c:	0a000003 	beq	d80 <rt_mq_urgent+0x34>
     d70:	e51b3008 	ldr	r3, [fp, #-8]
     d74:	e5933004 	ldr	r3, [r3, #4]
     d78:	e3530000 	cmp	r3, #0
     d7c:	1a000001 	bne	d88 <rt_mq_urgent+0x3c>
     d80:	e3a03008 	mov	r3, #8
     d84:	ea00000c 	b	dbc <rt_mq_urgent+0x70>
     d88:	e51b3008 	ldr	r3, [fp, #-8]
     d8c:	e5933000 	ldr	r3, [r3]
     d90:	e3530006 	cmp	r3, #6
     d94:	0a000001 	beq	da0 <rt_mq_urgent+0x54>
     d98:	e3a03008 	mov	r3, #8
     d9c:	ea000006 	b	dbc <rt_mq_urgent+0x70>
     da0:	e51b3008 	ldr	r3, [fp, #-8]
     da4:	e5931004 	ldr	r1, [r3, #4]
     da8:	e51b3010 	ldr	r3, [fp, #-16]
     dac:	e51b200c 	ldr	r2, [fp, #-12]
     db0:	e3a00026 	mov	r0, #38	; 0x26
     db4:	ebfffffe 	bl	0 <syscall>
     db8:	e1a03000 	mov	r3, r0
     dbc:	e1a00003 	mov	r0, r3
     dc0:	e24bd004 	sub	sp, fp, #4
     dc4:	e8bd8800 	pop	{fp, pc}

00000dc8 <rt_mq_recv>:
     dc8:	e92d4800 	push	{fp, lr}
     dcc:	e28db004 	add	fp, sp, #4
     dd0:	e24dd018 	sub	sp, sp, #24
     dd4:	e50b0008 	str	r0, [fp, #-8]
     dd8:	e50b100c 	str	r1, [fp, #-12]
     ddc:	e50b2010 	str	r2, [fp, #-16]
     de0:	e50b3014 	str	r3, [fp, #-20]	; 0xffffffec
     de4:	e51b3008 	ldr	r3, [fp, #-8]
     de8:	e3530000 	cmp	r3, #0
     dec:	0a000003 	beq	e00 <rt_mq_recv+0x38>
     df0:	e51b3008 	ldr	r3, [fp, #-8]
     df4:	e5933004 	ldr	r3, [r3, #4]
     df8:	e3530000 	cmp	r3, #0
     dfc:	1a000001 	bne	e08 <rt_mq_recv+0x40>
     e00:	e3a03008 	mov	r3, #8
     e04:	ea00000e 	b	e44 <rt_mq_recv+0x7c>
     e08:	e51b3008 	ldr	r3, [fp, #-8]
     e0c:	e5933000 	ldr	r3, [r3]
     e10:	e3530006 	cmp	r3, #6
     e14:	0a000001 	beq	e20 <rt_mq_recv+0x58>
     e18:	e3a03008 	mov	r3, #8
     e1c:	ea000008 	b	e44 <rt_mq_recv+0x7c>
     e20:	e51b3008 	ldr	r3, [fp, #-8]
     e24:	e5931004 	ldr	r1, [r3, #4]
     e28:	e51b3014 	ldr	r3, [fp, #-20]	; 0xffffffec
     e2c:	e58d3000 	str	r3, [sp]
     e30:	e51b3010 	ldr	r3, [fp, #-16]
     e34:	e51b200c 	ldr	r2, [fp, #-12]
     e38:	e3a00027 	mov	r0, #39	; 0x27
     e3c:	ebfffffe 	bl	0 <syscall>
     e40:	e1a03000 	mov	r3, r0
     e44:	e1a00003 	mov	r0, r3
     e48:	e24bd004 	sub	sp, fp, #4
     e4c:	e8bd8800 	pop	{fp, pc}

00000e50 <rt_event_create>:
     e50:	e92d4800 	push	{fp, lr}
     e54:	e28db004 	add	fp, sp, #4
     e58:	e24dd010 	sub	sp, sp, #16
     e5c:	e50b0010 	str	r0, [fp, #-16]
     e60:	e1a03001 	mov	r3, r1
     e64:	e54b3011 	strb	r3, [fp, #-17]	; 0xffffffef
     e68:	e3a00008 	mov	r0, #8
     e6c:	ebfffffe 	bl	0 <malloc>
     e70:	e1a03000 	mov	r3, r0
     e74:	e50b3008 	str	r3, [fp, #-8]
     e78:	e51b3008 	ldr	r3, [fp, #-8]
     e7c:	e3530000 	cmp	r3, #0
     e80:	1a000001 	bne	e8c <rt_event_create+0x3c>
     e84:	e3a03000 	mov	r3, #0
     e88:	ea000015 	b	ee4 <rt_event_create+0x94>
     e8c:	e55b3011 	ldrb	r3, [fp, #-17]	; 0xffffffef
     e90:	e1a02003 	mov	r2, r3
     e94:	e51b1010 	ldr	r1, [fp, #-16]
     e98:	e3a0001a 	mov	r0, #26
     e9c:	ebfffffe 	bl	0 <syscall>
     ea0:	e1a03000 	mov	r3, r0
     ea4:	e1a02003 	mov	r2, r3
     ea8:	e51b3008 	ldr	r3, [fp, #-8]
     eac:	e5832004 	str	r2, [r3, #4]
     eb0:	e51b3008 	ldr	r3, [fp, #-8]
     eb4:	e5933004 	ldr	r3, [r3, #4]
     eb8:	e3530000 	cmp	r3, #0
     ebc:	0a000003 	beq	ed0 <rt_event_create+0x80>
     ec0:	e51b3008 	ldr	r3, [fp, #-8]
     ec4:	e3a02004 	mov	r2, #4
     ec8:	e5832000 	str	r2, [r3]
     ecc:	ea000003 	b	ee0 <rt_event_create+0x90>
     ed0:	e51b0008 	ldr	r0, [fp, #-8]
     ed4:	ebfffffe 	bl	0 <free>
     ed8:	e3a03000 	mov	r3, #0
     edc:	e50b3008 	str	r3, [fp, #-8]
     ee0:	e51b3008 	ldr	r3, [fp, #-8]
     ee4:	e1a00003 	mov	r0, r3
     ee8:	e24bd004 	sub	sp, fp, #4
     eec:	e8bd8800 	pop	{fp, pc}

00000ef0 <rt_event_init>:
     ef0:	e92d4800 	push	{fp, lr}
     ef4:	e28db004 	add	fp, sp, #4
     ef8:	e24dd010 	sub	sp, sp, #16
     efc:	e50b0008 	str	r0, [fp, #-8]
     f00:	e50b100c 	str	r1, [fp, #-12]
     f04:	e1a03002 	mov	r3, r2
     f08:	e54b300d 	strb	r3, [fp, #-13]
     f0c:	e51b3008 	ldr	r3, [fp, #-8]
     f10:	e3530000 	cmp	r3, #0
     f14:	1a000001 	bne	f20 <rt_event_init+0x30>
     f18:	e3a03008 	mov	r3, #8
     f1c:	ea000012 	b	f6c <rt_event_init+0x7c>
     f20:	e55b300d 	ldrb	r3, [fp, #-13]
     f24:	e1a02003 	mov	r2, r3
     f28:	e51b100c 	ldr	r1, [fp, #-12]
     f2c:	e3a0001a 	mov	r0, #26
     f30:	ebfffffe 	bl	0 <syscall>
     f34:	e1a03000 	mov	r3, r0
     f38:	e1a02003 	mov	r2, r3
     f3c:	e51b3008 	ldr	r3, [fp, #-8]
     f40:	e5832004 	str	r2, [r3, #4]
     f44:	e51b3008 	ldr	r3, [fp, #-8]
     f48:	e5933004 	ldr	r3, [r3, #4]
     f4c:	e3530000 	cmp	r3, #0
     f50:	0a000004 	beq	f68 <rt_event_init+0x78>
     f54:	e51b3008 	ldr	r3, [fp, #-8]
     f58:	e3a02004 	mov	r2, #4
     f5c:	e5832000 	str	r2, [r3]
     f60:	e3a03000 	mov	r3, #0
     f64:	ea000000 	b	f6c <rt_event_init+0x7c>
     f68:	e3a03001 	mov	r3, #1
     f6c:	e1a00003 	mov	r0, r3
     f70:	e24bd004 	sub	sp, fp, #4
     f74:	e8bd8800 	pop	{fp, pc}

00000f78 <rt_event_delete>:
     f78:	e92d4800 	push	{fp, lr}
     f7c:	e28db004 	add	fp, sp, #4
     f80:	e24dd010 	sub	sp, sp, #16
     f84:	e50b0010 	str	r0, [fp, #-16]
     f88:	e51b3010 	ldr	r3, [fp, #-16]
     f8c:	e3530000 	cmp	r3, #0
     f90:	0a000003 	beq	fa4 <rt_event_delete+0x2c>
     f94:	e51b3010 	ldr	r3, [fp, #-16]
     f98:	e5933004 	ldr	r3, [r3, #4]
     f9c:	e3530000 	cmp	r3, #0
     fa0:	1a000001 	bne	fac <rt_event_delete+0x34>
     fa4:	e3a03008 	mov	r3, #8
     fa8:	ea000013 	b	ffc <rt_event_delete+0x84>
     fac:	e51b3010 	ldr	r3, [fp, #-16]
     fb0:	e5933000 	ldr	r3, [r3]
     fb4:	e3530004 	cmp	r3, #4
     fb8:	0a000001 	beq	fc4 <rt_event_delete+0x4c>
     fbc:	e3a03008 	mov	r3, #8
     fc0:	ea00000d 	b	ffc <rt_event_delete+0x84>
     fc4:	e51b3010 	ldr	r3, [fp, #-16]
     fc8:	e5933004 	ldr	r3, [r3, #4]
     fcc:	e1a01003 	mov	r1, r3
     fd0:	e3a0001b 	mov	r0, #27
     fd4:	ebfffffe 	bl	0 <syscall>
     fd8:	e50b0008 	str	r0, [fp, #-8]
     fdc:	e51b3008 	ldr	r3, [fp, #-8]
     fe0:	e3530000 	cmp	r3, #0
     fe4:	0a000001 	beq	ff0 <rt_event_delete+0x78>
     fe8:	e51b3008 	ldr	r3, [fp, #-8]
     fec:	ea000002 	b	ffc <rt_event_delete+0x84>
     ff0:	e51b0010 	ldr	r0, [fp, #-16]
     ff4:	ebfffffe 	bl	0 <free>
     ff8:	e3a03000 	mov	r3, #0
     ffc:	e1a00003 	mov	r0, r3
    1000:	e24bd004 	sub	sp, fp, #4
    1004:	e8bd8800 	pop	{fp, pc}

00001008 <rt_event_detach>:
    1008:	e92d4800 	push	{fp, lr}
    100c:	e28db004 	add	fp, sp, #4
    1010:	e24dd010 	sub	sp, sp, #16
    1014:	e50b0010 	str	r0, [fp, #-16]
    1018:	e51b3010 	ldr	r3, [fp, #-16]
    101c:	e3530000 	cmp	r3, #0
    1020:	0a000003 	beq	1034 <rt_event_detach+0x2c>
    1024:	e51b3010 	ldr	r3, [fp, #-16]
    1028:	e5933004 	ldr	r3, [r3, #4]
    102c:	e3530000 	cmp	r3, #0
    1030:	1a000001 	bne	103c <rt_event_detach+0x34>
    1034:	e3a03008 	mov	r3, #8
    1038:	ea000017 	b	109c <rt_event_detach+0x94>
    103c:	e51b3010 	ldr	r3, [fp, #-16]
    1040:	e5933000 	ldr	r3, [r3]
    1044:	e3530004 	cmp	r3, #4
    1048:	0a000001 	beq	1054 <rt_event_detach+0x4c>
    104c:	e3a03008 	mov	r3, #8
    1050:	ea000011 	b	109c <rt_event_detach+0x94>
    1054:	e51b3010 	ldr	r3, [fp, #-16]
    1058:	e5933004 	ldr	r3, [r3, #4]
    105c:	e1a01003 	mov	r1, r3
    1060:	e3a0001b 	mov	r0, #27
    1064:	ebfffffe 	bl	0 <syscall>
    1068:	e50b0008 	str	r0, [fp, #-8]
    106c:	e51b3008 	ldr	r3, [fp, #-8]
    1070:	e3530000 	cmp	r3, #0
    1074:	0a000001 	beq	1080 <rt_event_detach+0x78>
    1078:	e51b3008 	ldr	r3, [fp, #-8]
    107c:	ea000006 	b	109c <rt_event_detach+0x94>
    1080:	e51b3010 	ldr	r3, [fp, #-16]
    1084:	e3a02000 	mov	r2, #0
    1088:	e5832000 	str	r2, [r3]
    108c:	e51b3010 	ldr	r3, [fp, #-16]
    1090:	e3a02000 	mov	r2, #0
    1094:	e5832004 	str	r2, [r3, #4]
    1098:	e3a03000 	mov	r3, #0
    109c:	e1a00003 	mov	r0, r3
    10a0:	e24bd004 	sub	sp, fp, #4
    10a4:	e8bd8800 	pop	{fp, pc}

000010a8 <rt_event_send>:
    10a8:	e92d4800 	push	{fp, lr}
    10ac:	e28db004 	add	fp, sp, #4
    10b0:	e24dd008 	sub	sp, sp, #8
    10b4:	e50b0008 	str	r0, [fp, #-8]
    10b8:	e50b100c 	str	r1, [fp, #-12]
    10bc:	e51b3008 	ldr	r3, [fp, #-8]
    10c0:	e3530000 	cmp	r3, #0
    10c4:	0a000003 	beq	10d8 <rt_event_send+0x30>
    10c8:	e51b3008 	ldr	r3, [fp, #-8]
    10cc:	e5933004 	ldr	r3, [r3, #4]
    10d0:	e3530000 	cmp	r3, #0
    10d4:	1a000001 	bne	10e0 <rt_event_send+0x38>
    10d8:	e3a03008 	mov	r3, #8
    10dc:	ea00000c 	b	1114 <rt_event_send+0x6c>
    10e0:	e51b3008 	ldr	r3, [fp, #-8]
    10e4:	e5933000 	ldr	r3, [r3]
    10e8:	e3530004 	cmp	r3, #4
    10ec:	0a000001 	beq	10f8 <rt_event_send+0x50>
    10f0:	e3a03008 	mov	r3, #8
    10f4:	ea000006 	b	1114 <rt_event_send+0x6c>
    10f8:	e51b3008 	ldr	r3, [fp, #-8]
    10fc:	e5933004 	ldr	r3, [r3, #4]
    1100:	e51b200c 	ldr	r2, [fp, #-12]
    1104:	e1a01003 	mov	r1, r3
    1108:	e3a0001c 	mov	r0, #28
    110c:	ebfffffe 	bl	0 <syscall>
    1110:	e1a03000 	mov	r3, r0
    1114:	e1a00003 	mov	r0, r3
    1118:	e24bd004 	sub	sp, fp, #4
    111c:	e8bd8800 	pop	{fp, pc}

00001120 <rt_event_recv>:
    1120:	e92d4800 	push	{fp, lr}
    1124:	e28db004 	add	fp, sp, #4
    1128:	e24dd018 	sub	sp, sp, #24
    112c:	e50b0008 	str	r0, [fp, #-8]
    1130:	e50b100c 	str	r1, [fp, #-12]
    1134:	e50b3014 	str	r3, [fp, #-20]	; 0xffffffec
    1138:	e1a03002 	mov	r3, r2
    113c:	e54b300d 	strb	r3, [fp, #-13]
    1140:	e51b3008 	ldr	r3, [fp, #-8]
    1144:	e3530000 	cmp	r3, #0
    1148:	0a000003 	beq	115c <rt_event_recv+0x3c>
    114c:	e51b3008 	ldr	r3, [fp, #-8]
    1150:	e5933004 	ldr	r3, [r3, #4]
    1154:	e3530000 	cmp	r3, #0
    1158:	1a000001 	bne	1164 <rt_event_recv+0x44>
    115c:	e3a03008 	mov	r3, #8
    1160:	ea000011 	b	11ac <rt_event_recv+0x8c>
    1164:	e51b3008 	ldr	r3, [fp, #-8]
    1168:	e5933000 	ldr	r3, [r3]
    116c:	e3530004 	cmp	r3, #4
    1170:	0a000001 	beq	117c <rt_event_recv+0x5c>
    1174:	e3a03008 	mov	r3, #8
    1178:	ea00000b 	b	11ac <rt_event_recv+0x8c>
    117c:	e51b3008 	ldr	r3, [fp, #-8]
    1180:	e5931004 	ldr	r1, [r3, #4]
    1184:	e55b200d 	ldrb	r2, [fp, #-13]
    1188:	e59b3004 	ldr	r3, [fp, #4]
    118c:	e58d3004 	str	r3, [sp, #4]
    1190:	e51b3014 	ldr	r3, [fp, #-20]	; 0xffffffec
    1194:	e58d3000 	str	r3, [sp]
    1198:	e1a03002 	mov	r3, r2
    119c:	e51b200c 	ldr	r2, [fp, #-12]
    11a0:	e3a0001d 	mov	r0, #29
    11a4:	ebfffffe 	bl	0 <syscall>
    11a8:	e1a03000 	mov	r3, r0
    11ac:	e1a00003 	mov	r0, r3
    11b0:	e24bd004 	sub	sp, fp, #4
    11b4:	e8bd8800 	pop	{fp, pc}

000011b8 <rt_tick_get>:
    11b8:	e92d4800 	push	{fp, lr}
    11bc:	e28db004 	add	fp, sp, #4
    11c0:	e3a00061 	mov	r0, #97	; 0x61
    11c4:	ebfffffe 	bl	0 <syscall>
    11c8:	e1a03000 	mov	r3, r0
    11cc:	e1a00003 	mov	r0, r3
    11d0:	e8bd8800 	pop	{fp, pc}

000011d4 <rt_thread_mdelay>:
    11d4:	e92d4800 	push	{fp, lr}
    11d8:	e28db004 	add	fp, sp, #4
    11dc:	e24dd008 	sub	sp, sp, #8
    11e0:	e50b0008 	str	r0, [fp, #-8]
    11e4:	e51b1008 	ldr	r1, [fp, #-8]
    11e8:	e3a00066 	mov	r0, #102	; 0x66
    11ec:	ebfffffe 	bl	0 <syscall>
    11f0:	e1a03000 	mov	r3, r0
    11f4:	e1a00003 	mov	r0, r3
    11f8:	e24bd004 	sub	sp, fp, #4
    11fc:	e8bd8800 	pop	{fp, pc}

00001200 <lwp_shmget>:
    1200:	e92d4800 	push	{fp, lr}
    1204:	e28db004 	add	fp, sp, #4
    1208:	e24dd010 	sub	sp, sp, #16
    120c:	e50b0008 	str	r0, [fp, #-8]
    1210:	e50b100c 	str	r1, [fp, #-12]
    1214:	e50b2010 	str	r2, [fp, #-16]
    1218:	e51b3010 	ldr	r3, [fp, #-16]
    121c:	e51b200c 	ldr	r2, [fp, #-12]
    1220:	e51b1008 	ldr	r1, [fp, #-8]
    1224:	e3a00037 	mov	r0, #55	; 0x37
    1228:	ebfffffe 	bl	0 <syscall>
    122c:	e1a03000 	mov	r3, r0
    1230:	e1a00003 	mov	r0, r3
    1234:	e24bd004 	sub	sp, fp, #4
    1238:	e8bd8800 	pop	{fp, pc}

0000123c <lwp_shmrm>:
    123c:	e92d4800 	push	{fp, lr}
    1240:	e28db004 	add	fp, sp, #4
    1244:	e24dd008 	sub	sp, sp, #8
    1248:	e50b0008 	str	r0, [fp, #-8]
    124c:	e51b1008 	ldr	r1, [fp, #-8]
    1250:	e3a00038 	mov	r0, #56	; 0x38
    1254:	ebfffffe 	bl	0 <syscall>
    1258:	e1a03000 	mov	r3, r0
    125c:	e1a00003 	mov	r0, r3
    1260:	e24bd004 	sub	sp, fp, #4
    1264:	e8bd8800 	pop	{fp, pc}

00001268 <lwp_shmat>:
    1268:	e92d4800 	push	{fp, lr}
    126c:	e28db004 	add	fp, sp, #4
    1270:	e24dd008 	sub	sp, sp, #8
    1274:	e50b0008 	str	r0, [fp, #-8]
    1278:	e50b100c 	str	r1, [fp, #-12]
    127c:	e51b200c 	ldr	r2, [fp, #-12]
    1280:	e51b1008 	ldr	r1, [fp, #-8]
    1284:	e3a00039 	mov	r0, #57	; 0x39
    1288:	ebfffffe 	bl	0 <syscall>
    128c:	e1a03000 	mov	r3, r0
    1290:	e1a00003 	mov	r0, r3
    1294:	e24bd004 	sub	sp, fp, #4
    1298:	e8bd8800 	pop	{fp, pc}

0000129c <lwp_shmdt>:
    129c:	e92d4800 	push	{fp, lr}
    12a0:	e28db004 	add	fp, sp, #4
    12a4:	e24dd008 	sub	sp, sp, #8
    12a8:	e50b0008 	str	r0, [fp, #-8]
    12ac:	e51b1008 	ldr	r1, [fp, #-8]
    12b0:	e3a0003a 	mov	r0, #58	; 0x3a
    12b4:	ebfffffe 	bl	0 <syscall>
    12b8:	e1a03000 	mov	r3, r0
    12bc:	e1a00003 	mov	r0, r3
    12c0:	e24bd004 	sub	sp, fp, #4
    12c4:	e8bd8800 	pop	{fp, pc}

000012c8 <exec>:
    12c8:	e92d4800 	push	{fp, lr}
    12cc:	e28db004 	add	fp, sp, #4
    12d0:	e24dd018 	sub	sp, sp, #24
    12d4:	e50b0008 	str	r0, [fp, #-8]
    12d8:	e50b100c 	str	r1, [fp, #-12]
    12dc:	e50b2010 	str	r2, [fp, #-16]
    12e0:	e50b3014 	str	r3, [fp, #-20]	; 0xffffffec
    12e4:	e51b3014 	ldr	r3, [fp, #-20]	; 0xffffffec
    12e8:	e58d3000 	str	r3, [sp]
    12ec:	e51b3010 	ldr	r3, [fp, #-16]
    12f0:	e51b200c 	ldr	r2, [fp, #-12]
    12f4:	e51b1008 	ldr	r1, [fp, #-8]
    12f8:	e3a0000d 	mov	r0, #13
    12fc:	ebfffffe 	bl	0 <syscall>
    1300:	e1a03000 	mov	r3, r0
    1304:	e1a00003 	mov	r0, r3
    1308:	e24bd004 	sub	sp, fp, #4
    130c:	e8bd8800 	pop	{fp, pc}

00001310 <lwp_kill>:
    1310:	e92d4800 	push	{fp, lr}
    1314:	e28db004 	add	fp, sp, #4
    1318:	e24dd008 	sub	sp, sp, #8
    131c:	e50b0008 	str	r0, [fp, #-8]
    1320:	e50b100c 	str	r1, [fp, #-12]
    1324:	e51b200c 	ldr	r2, [fp, #-12]
    1328:	e51b1008 	ldr	r1, [fp, #-8]
    132c:	e3a0000e 	mov	r0, #14
    1330:	ebfffffe 	bl	0 <syscall>
    1334:	e1a03000 	mov	r3, r0
    1338:	e1a00003 	mov	r0, r3
    133c:	e24bd004 	sub	sp, fp, #4
    1340:	e8bd8800 	pop	{fp, pc}

00001344 <lwp_tkill>:
    1344:	e92d4800 	push	{fp, lr}
    1348:	e28db004 	add	fp, sp, #4
    134c:	e24dd008 	sub	sp, sp, #8
    1350:	e50b0008 	str	r0, [fp, #-8]
    1354:	e50b100c 	str	r1, [fp, #-12]
    1358:	e51b200c 	ldr	r2, [fp, #-12]
    135c:	e51b1008 	ldr	r1, [fp, #-8]
    1360:	e3a00069 	mov	r0, #105	; 0x69
    1364:	ebfffffe 	bl	0 <syscall>
    1368:	e1a03000 	mov	r3, r0
    136c:	e1a00003 	mov	r0, r3
    1370:	e24bd004 	sub	sp, fp, #4
    1374:	e8bd8800 	pop	{fp, pc}

00001378 <waitpid>:
    1378:	e92d4800 	push	{fp, lr}
    137c:	e28db004 	add	fp, sp, #4
    1380:	e24dd010 	sub	sp, sp, #16
    1384:	e50b0008 	str	r0, [fp, #-8]
    1388:	e50b100c 	str	r1, [fp, #-12]
    138c:	e50b2010 	str	r2, [fp, #-16]
    1390:	e51b3010 	ldr	r3, [fp, #-16]
    1394:	e51b200c 	ldr	r2, [fp, #-12]
    1398:	e51b1008 	ldr	r1, [fp, #-8]
    139c:	e3a0006e 	mov	r0, #110	; 0x6e
    13a0:	ebfffffe 	bl	0 <syscall>
    13a4:	e1a03000 	mov	r3, r0
    13a8:	e1a00003 	mov	r0, r3
    13ac:	e24bd004 	sub	sp, fp, #4
    13b0:	e8bd8800 	pop	{fp, pc}

000013b4 <rt_get_errno>:
    13b4:	e92d4800 	push	{fp, lr}
    13b8:	e28db004 	add	fp, sp, #4
    13bc:	e3a0007a 	mov	r0, #122	; 0x7a
    13c0:	ebfffffe 	bl	0 <syscall>
    13c4:	e1a03000 	mov	r3, r0
    13c8:	e1a00003 	mov	r0, r3
    13cc:	e8bd8800 	pop	{fp, pc}

Disassembly of section .text:

00000000 <rt_thread_find>:
   0:	e92d4800 	push	{fp, lr}
   4:	e28db004 	add	fp, sp, #4
   8:	e24dd008 	sub	sp, sp, #8
   c:	e50b0008 	str	r0, [fp, #-8]
  10:	e51b1008 	ldr	r1, [fp, #-8]
  14:	e3a00044 	mov	r0, #68	; 0x44
  18:	ebfffffe 	bl	0 <syscall>
  1c:	e1a03000 	mov	r3, r0
  20:	e1a00003 	mov	r0, r3
  24:	e24bd004 	sub	sp, fp, #4
  28:	e8bd8800 	pop	{fp, pc}

0000002c <rt_thread_create>:
  2c:	e92d4800 	push	{fp, lr}
  30:	e28db004 	add	fp, sp, #4
  34:	e24dd028 	sub	sp, sp, #40	; 0x28
  38:	e50b0020 	str	r0, [fp, #-32]	; 0xffffffe0
  3c:	e50b1024 	str	r1, [fp, #-36]	; 0xffffffdc
  40:	e50b2028 	str	r2, [fp, #-40]	; 0xffffffd8
  44:	e50b302c 	str	r3, [fp, #-44]	; 0xffffffd4
  48:	e51b3020 	ldr	r3, [fp, #-32]	; 0xffffffe0
  4c:	e50b301c 	str	r3, [fp, #-28]	; 0xffffffe4
  50:	e51b3024 	ldr	r3, [fp, #-36]	; 0xffffffdc
  54:	e50b3018 	str	r3, [fp, #-24]	; 0xffffffe8
  58:	e51b3028 	ldr	r3, [fp, #-40]	; 0xffffffd8
  5c:	e50b3014 	str	r3, [fp, #-20]	; 0xffffffec
  60:	e51b302c 	ldr	r3, [fp, #-44]	; 0xffffffd4
  64:	e50b3010 	str	r3, [fp, #-16]
  68:	e5db3004 	ldrb	r3, [fp, #4]
  6c:	e50b300c 	str	r3, [fp, #-12]
  70:	e59b3008 	ldr	r3, [fp, #8]
  74:	e50b3008 	str	r3, [fp, #-8]
  78:	e24b301c 	sub	r3, fp, #28
  7c:	e1a01003 	mov	r1, r3
  80:	e3a00028 	mov	r0, #40	; 0x28
  84:	ebfffffe 	bl	0 <syscall>
  88:	e1a03000 	mov	r3, r0
  8c:	e1a00003 	mov	r0, r3
  90:	e24bd004 	sub	sp, fp, #4
  94:	e8bd8800 	pop	{fp, pc}

00000098 <rt_thread_startup>:
  98:	e92d4800 	push	{fp, lr}
  9c:	e28db004 	add	fp, sp, #4
  a0:	e24dd008 	sub	sp, sp, #8
  a4:	e50b0008 	str	r0, [fp, #-8]
  a8:	e51b1008 	ldr	r1, [fp, #-8]
  ac:	e3a0002a 	mov	r0, #42	; 0x2a
  b0:	ebfffffe 	bl	0 <syscall>
  b4:	e1a03000 	mov	r3, r0
  b8:	e1a00003 	mov	r0, r3
  bc:	e24bd004 	sub	sp, fp, #4
  c0:	e8bd8800 	pop	{fp, pc}

000000c4 <rt_thread_self>:
  c4:	e92d4800 	push	{fp, lr}
  c8:	e28db004 	add	fp, sp, #4
  cc:	e3a0002b 	mov	r0, #43	; 0x2b
  d0:	ebfffffe 	bl	0 <syscall>
  d4:	e1a03000 	mov	r3, r0
  d8:	e1a00003 	mov	r0, r3
  dc:	e8bd8800 	pop	{fp, pc}

000000e0 <rt_thread_delete>:
  e0:	e92d4800 	push	{fp, lr}
  e4:	e28db004 	add	fp, sp, #4
  e8:	e24dd008 	sub	sp, sp, #8
  ec:	e50b0008 	str	r0, [fp, #-8]
  f0:	e51b1008 	ldr	r1, [fp, #-8]
  f4:	e3a00029 	mov	r0, #41	; 0x29
  f8:	ebfffffe 	bl	0 <syscall>
  fc:	e1a03000 	mov	r3, r0
 100:	e1a00003 	mov	r0, r3
 104:	e24bd004 	sub	sp, fp, #4
 108:	e8bd8800 	pop	{fp, pc}

0000010c <rt_enter_critical>:
 10c:	e92d4800 	push	{fp, lr}
 110:	e28db004 	add	fp, sp, #4
 114:	e3a00032 	mov	r0, #50	; 0x32
 118:	ebfffffe 	bl	0 <syscall>
 11c:	e320f000 	nop	{0}
 120:	e8bd8800 	pop	{fp, pc}

00000124 <rt_exit_critical>:
 124:	e92d4800 	push	{fp, lr}
 128:	e28db004 	add	fp, sp, #4
 12c:	e3a00033 	mov	r0, #51	; 0x33
 130:	ebfffffe 	bl	0 <syscall>
 134:	e320f000 	nop	{0}
 138:	e8bd8800 	pop	{fp, pc}

0000013c <cacheflush>:
 13c:	e92d4800 	push	{fp, lr}
 140:	e28db004 	add	fp, sp, #4
 144:	e24dd010 	sub	sp, sp, #16
 148:	e50b0008 	str	r0, [fp, #-8]
 14c:	e50b100c 	str	r1, [fp, #-12]
 150:	e50b2010 	str	r2, [fp, #-16]
 154:	e51b3010 	ldr	r3, [fp, #-16]
 158:	e51b200c 	ldr	r2, [fp, #-12]
 15c:	e51b1008 	ldr	r1, [fp, #-8]
 160:	e3a0006b 	mov	r0, #107	; 0x6b
 164:	ebfffffe 	bl	0 <syscall>
 168:	e1a03000 	mov	r3, r0
 16c:	e1a00003 	mov	r0, r3
 170:	e24bd004 	sub	sp, fp, #4
 174:	e8bd8800 	pop	{fp, pc}

Disassembly of section .text:

00000000 <rt_list_init>:
   0:	e52db004 	push	{fp}		; (str fp, [sp, #-4]!)
   4:	e28db000 	add	fp, sp, #0
   8:	e24dd00c 	sub	sp, sp, #12
   c:	e50b0008 	str	r0, [fp, #-8]
  10:	e51b3008 	ldr	r3, [fp, #-8]
  14:	e51b2008 	ldr	r2, [fp, #-8]
  18:	e5832004 	str	r2, [r3, #4]
  1c:	e51b3008 	ldr	r3, [fp, #-8]
  20:	e5932004 	ldr	r2, [r3, #4]
  24:	e51b3008 	ldr	r3, [fp, #-8]
  28:	e5832000 	str	r2, [r3]
  2c:	e320f000 	nop	{0}
  30:	e28bd000 	add	sp, fp, #0
  34:	e49db004 	pop	{fp}		; (ldr fp, [sp], #4)
  38:	e12fff1e 	bx	lr

0000003c <rt_list_insert_after>:
  3c:	e52db004 	push	{fp}		; (str fp, [sp, #-4]!)
  40:	e28db000 	add	fp, sp, #0
  44:	e24dd00c 	sub	sp, sp, #12
  48:	e50b0008 	str	r0, [fp, #-8]
  4c:	e50b100c 	str	r1, [fp, #-12]
  50:	e51b3008 	ldr	r3, [fp, #-8]
  54:	e5933000 	ldr	r3, [r3]
  58:	e51b200c 	ldr	r2, [fp, #-12]
  5c:	e5832004 	str	r2, [r3, #4]
  60:	e51b3008 	ldr	r3, [fp, #-8]
  64:	e5932000 	ldr	r2, [r3]
  68:	e51b300c 	ldr	r3, [fp, #-12]
  6c:	e5832000 	str	r2, [r3]
  70:	e51b3008 	ldr	r3, [fp, #-8]
  74:	e51b200c 	ldr	r2, [fp, #-12]
  78:	e5832000 	str	r2, [r3]
  7c:	e51b300c 	ldr	r3, [fp, #-12]
  80:	e51b2008 	ldr	r2, [fp, #-8]
  84:	e5832004 	str	r2, [r3, #4]
  88:	e320f000 	nop	{0}
  8c:	e28bd000 	add	sp, fp, #0
  90:	e49db004 	pop	{fp}		; (ldr fp, [sp], #4)
  94:	e12fff1e 	bx	lr

00000098 <rt_list_remove>:
  98:	e52db004 	push	{fp}		; (str fp, [sp, #-4]!)
  9c:	e28db000 	add	fp, sp, #0
  a0:	e24dd00c 	sub	sp, sp, #12
  a4:	e50b0008 	str	r0, [fp, #-8]
  a8:	e51b3008 	ldr	r3, [fp, #-8]
  ac:	e5933000 	ldr	r3, [r3]
  b0:	e51b2008 	ldr	r2, [fp, #-8]
  b4:	e5922004 	ldr	r2, [r2, #4]
  b8:	e5832004 	str	r2, [r3, #4]
  bc:	e51b3008 	ldr	r3, [fp, #-8]
  c0:	e5933004 	ldr	r3, [r3, #4]
  c4:	e51b2008 	ldr	r2, [fp, #-8]
  c8:	e5922000 	ldr	r2, [r2]
  cc:	e5832000 	str	r2, [r3]
  d0:	e51b3008 	ldr	r3, [fp, #-8]
  d4:	e51b2008 	ldr	r2, [fp, #-8]
  d8:	e5832004 	str	r2, [r3, #4]
  dc:	e51b3008 	ldr	r3, [fp, #-8]
  e0:	e5932004 	ldr	r2, [r3, #4]
  e4:	e51b3008 	ldr	r3, [fp, #-8]
  e8:	e5832000 	str	r2, [r3]
  ec:	e320f000 	nop	{0}
  f0:	e28bd000 	add	sp, fp, #0
  f4:	e49db004 	pop	{fp}		; (ldr fp, [sp], #4)
  f8:	e12fff1e 	bx	lr

000000fc <rt_list_isempty>:
  fc:	e52db004 	push	{fp}		; (str fp, [sp, #-4]!)
 100:	e28db000 	add	fp, sp, #0
 104:	e24dd00c 	sub	sp, sp, #12
 108:	e50b0008 	str	r0, [fp, #-8]
 10c:	e51b3008 	ldr	r3, [fp, #-8]
 110:	e5933000 	ldr	r3, [r3]
 114:	e51b2008 	ldr	r2, [fp, #-8]
 118:	e1520003 	cmp	r2, r3
 11c:	03a03001 	moveq	r3, #1
 120:	13a03000 	movne	r3, #0
 124:	e6ef3073 	uxtb	r3, r3
 128:	e1a00003 	mov	r0, r3
 12c:	e28bd000 	add	sp, fp, #0
 130:	e49db004 	pop	{fp}		; (ldr fp, [sp], #4)
 134:	e12fff1e 	bx	lr

00000138 <_rt_timer_init>:
 138:	e92d4800 	push	{fp, lr}
 13c:	e28db004 	add	fp, sp, #4
 140:	e24dd018 	sub	sp, sp, #24
 144:	e50b0010 	str	r0, [fp, #-16]
 148:	e50b1014 	str	r1, [fp, #-20]	; 0xffffffec
 14c:	e50b2018 	str	r2, [fp, #-24]	; 0xffffffe8
 150:	e50b301c 	str	r3, [fp, #-28]	; 0xffffffe4
 154:	e51b3010 	ldr	r3, [fp, #-16]
 158:	e5db2004 	ldrb	r2, [fp, #4]
 15c:	e5c32009 	strb	r2, [r3, #9]
 160:	e51b3010 	ldr	r3, [fp, #-16]
 164:	e5d33009 	ldrb	r3, [r3, #9]
 168:	e3c33001 	bic	r3, r3, #1
 16c:	e6ef2073 	uxtb	r2, r3
 170:	e51b3010 	ldr	r3, [fp, #-16]
 174:	e5c32009 	strb	r2, [r3, #9]
 178:	e51b3010 	ldr	r3, [fp, #-16]
 17c:	e51b2014 	ldr	r2, [fp, #-20]	; 0xffffffec
 180:	e583201c 	str	r2, [r3, #28]
 184:	e51b3010 	ldr	r3, [fp, #-16]
 188:	e51b2018 	ldr	r2, [fp, #-24]	; 0xffffffe8
 18c:	e5832020 	str	r2, [r3, #32]
 190:	e51b3010 	ldr	r3, [fp, #-16]
 194:	e3a02000 	mov	r2, #0
 198:	e5832028 	str	r2, [r3, #40]	; 0x28
 19c:	e51b3010 	ldr	r3, [fp, #-16]
 1a0:	e51b201c 	ldr	r2, [fp, #-28]	; 0xffffffe4
 1a4:	e5832024 	str	r2, [r3, #36]	; 0x24
 1a8:	e3a03000 	mov	r3, #0
 1ac:	e50b3008 	str	r3, [fp, #-8]
 1b0:	ea00000a 	b	1e0 <_rt_timer_init+0xa8>
 1b4:	e51b3008 	ldr	r3, [fp, #-8]
 1b8:	e2833002 	add	r3, r3, #2
 1bc:	e1a03183 	lsl	r3, r3, #3
 1c0:	e51b2010 	ldr	r2, [fp, #-16]
 1c4:	e0823003 	add	r3, r2, r3
 1c8:	e2833004 	add	r3, r3, #4
 1cc:	e1a00003 	mov	r0, r3
 1d0:	ebffff8a 	bl	0 <rt_list_init>
 1d4:	e51b3008 	ldr	r3, [fp, #-8]
 1d8:	e2833001 	add	r3, r3, #1
 1dc:	e50b3008 	str	r3, [fp, #-8]
 1e0:	e51b3008 	ldr	r3, [fp, #-8]
 1e4:	e3530000 	cmp	r3, #0
 1e8:	dafffff1 	ble	1b4 <_rt_timer_init+0x7c>
 1ec:	e320f000 	nop	{0}
 1f0:	e24bd004 	sub	sp, fp, #4
 1f4:	e8bd8800 	pop	{fp, pc}

000001f8 <rt_timer_list_next_timeout>:
 1f8:	e92d4800 	push	{fp, lr}
 1fc:	e28db004 	add	fp, sp, #4
 200:	e24dd010 	sub	sp, sp, #16
 204:	e50b0010 	str	r0, [fp, #-16]
 208:	e51b0010 	ldr	r0, [fp, #-16]
 20c:	ebffffba 	bl	fc <rt_list_isempty>
 210:	e1a03000 	mov	r3, r0
 214:	e3530000 	cmp	r3, #0
 218:	0a000001 	beq	224 <rt_timer_list_next_timeout+0x2c>
 21c:	e3e03000 	mvn	r3, #0
 220:	ea000005 	b	23c <rt_timer_list_next_timeout+0x44>
 224:	e51b3010 	ldr	r3, [fp, #-16]
 228:	e5933000 	ldr	r3, [r3]
 22c:	e2433014 	sub	r3, r3, #20
 230:	e50b3008 	str	r3, [fp, #-8]
 234:	e51b3008 	ldr	r3, [fp, #-8]
 238:	e5933028 	ldr	r3, [r3, #40]	; 0x28
 23c:	e1a00003 	mov	r0, r3
 240:	e24bd004 	sub	sp, fp, #4
 244:	e8bd8800 	pop	{fp, pc}

00000248 <_rt_timer_remove>:
 248:	e92d4800 	push	{fp, lr}
 24c:	e28db004 	add	fp, sp, #4
 250:	e24dd010 	sub	sp, sp, #16
 254:	e50b0010 	str	r0, [fp, #-16]
 258:	e3a03000 	mov	r3, #0
 25c:	e50b3008 	str	r3, [fp, #-8]
 260:	ea00000a 	b	290 <_rt_timer_remove+0x48>
 264:	e51b3008 	ldr	r3, [fp, #-8]
 268:	e2833002 	add	r3, r3, #2
 26c:	e1a03183 	lsl	r3, r3, #3
 270:	e51b2010 	ldr	r2, [fp, #-16]
 274:	e0823003 	add	r3, r2, r3
 278:	e2833004 	add	r3, r3, #4
 27c:	e1a00003 	mov	r0, r3
 280:	ebffff84 	bl	98 <rt_list_remove>
 284:	e51b3008 	ldr	r3, [fp, #-8]
 288:	e2833001 	add	r3, r3, #1
 28c:	e50b3008 	str	r3, [fp, #-8]
 290:	e51b3008 	ldr	r3, [fp, #-8]
 294:	e3530000 	cmp	r3, #0
 298:	dafffff1 	ble	264 <_rt_timer_remove+0x1c>
 29c:	e320f000 	nop	{0}
 2a0:	e24bd004 	sub	sp, fp, #4
 2a4:	e8bd8800 	pop	{fp, pc}

000002a8 <rt_timer_init>:
 2a8:	e92d4800 	push	{fp, lr}
 2ac:	e28db004 	add	fp, sp, #4
 2b0:	e24dd018 	sub	sp, sp, #24
 2b4:	e50b0008 	str	r0, [fp, #-8]
 2b8:	e50b100c 	str	r1, [fp, #-12]
 2bc:	e50b2010 	str	r2, [fp, #-16]
 2c0:	e50b3014 	str	r3, [fp, #-20]	; 0xffffffec
 2c4:	e5db3008 	ldrb	r3, [fp, #8]
 2c8:	e58d3000 	str	r3, [sp]
 2cc:	e59b3004 	ldr	r3, [fp, #4]
 2d0:	e51b2014 	ldr	r2, [fp, #-20]	; 0xffffffec
 2d4:	e51b1010 	ldr	r1, [fp, #-16]
 2d8:	e51b0008 	ldr	r0, [fp, #-8]
 2dc:	ebffff95 	bl	138 <_rt_timer_init>
 2e0:	e320f000 	nop	{0}
 2e4:	e24bd004 	sub	sp, fp, #4
 2e8:	e8bd8800 	pop	{fp, pc}

000002ec <rt_timer_detach>:
 2ec:	e92d4800 	push	{fp, lr}
 2f0:	e28db004 	add	fp, sp, #4
 2f4:	e24dd008 	sub	sp, sp, #8
 2f8:	e50b0008 	str	r0, [fp, #-8]
 2fc:	e320f000 	nop	{0}
 300:	e3003000 	movw	r3, #0
 304:	e3403000 	movt	r3, #0
 308:	e5933000 	ldr	r3, [r3]
 30c:	e3e01000 	mvn	r1, #0
 310:	e1a00003 	mov	r0, r3
 314:	ebfffffe 	bl	0 <rt_mutex_take>
 318:	e1a03000 	mov	r3, r0
 31c:	e3530000 	cmp	r3, #0
 320:	1afffff6 	bne	300 <rt_timer_detach+0x14>
 324:	e51b0008 	ldr	r0, [fp, #-8]
 328:	ebffffc6 	bl	248 <_rt_timer_remove>
 32c:	e3003000 	movw	r3, #0
 330:	e3403000 	movt	r3, #0
 334:	e5933000 	ldr	r3, [r3]
 338:	e1a00003 	mov	r0, r3
 33c:	ebfffffe 	bl	0 <rt_mutex_release>
 340:	e3a03000 	mov	r3, #0
 344:	e1a00003 	mov	r0, r3
 348:	e24bd004 	sub	sp, fp, #4
 34c:	e8bd8800 	pop	{fp, pc}

00000350 <rt_timer_create>:
 350:	e92d4800 	push	{fp, lr}
 354:	e28db004 	add	fp, sp, #4
 358:	e24dd020 	sub	sp, sp, #32
 35c:	e50b0010 	str	r0, [fp, #-16]
 360:	e50b1014 	str	r1, [fp, #-20]	; 0xffffffec
 364:	e50b2018 	str	r2, [fp, #-24]	; 0xffffffe8
 368:	e50b301c 	str	r3, [fp, #-28]	; 0xffffffe4
 36c:	e3a0002c 	mov	r0, #44	; 0x2c
 370:	ebfffffe 	bl	0 <malloc>
 374:	e1a03000 	mov	r3, r0
 378:	e50b3008 	str	r3, [fp, #-8]
 37c:	e51b3008 	ldr	r3, [fp, #-8]
 380:	e3530000 	cmp	r3, #0
 384:	1a000001 	bne	390 <rt_timer_create+0x40>
 388:	e3a03000 	mov	r3, #0
 38c:	ea000007 	b	3b0 <rt_timer_create+0x60>
 390:	e5db3004 	ldrb	r3, [fp, #4]
 394:	e58d3000 	str	r3, [sp]
 398:	e51b301c 	ldr	r3, [fp, #-28]	; 0xffffffe4
 39c:	e51b2018 	ldr	r2, [fp, #-24]	; 0xffffffe8
 3a0:	e51b1014 	ldr	r1, [fp, #-20]	; 0xffffffec
 3a4:	e51b0008 	ldr	r0, [fp, #-8]
 3a8:	ebffff62 	bl	138 <_rt_timer_init>
 3ac:	e51b3008 	ldr	r3, [fp, #-8]
 3b0:	e1a00003 	mov	r0, r3
 3b4:	e24bd004 	sub	sp, fp, #4
 3b8:	e8bd8800 	pop	{fp, pc}

000003bc <rt_timer_delete>:
 3bc:	e92d4800 	push	{fp, lr}
 3c0:	e28db004 	add	fp, sp, #4
 3c4:	e24dd008 	sub	sp, sp, #8
 3c8:	e50b0008 	str	r0, [fp, #-8]
 3cc:	e320f000 	nop	{0}
 3d0:	e3003000 	movw	r3, #0
 3d4:	e3403000 	movt	r3, #0
 3d8:	e5933000 	ldr	r3, [r3]
 3dc:	e3e01000 	mvn	r1, #0
 3e0:	e1a00003 	mov	r0, r3
 3e4:	ebfffffe 	bl	0 <rt_mutex_take>
 3e8:	e1a03000 	mov	r3, r0
 3ec:	e3530000 	cmp	r3, #0
 3f0:	1afffff6 	bne	3d0 <rt_timer_delete+0x14>
 3f4:	e51b0008 	ldr	r0, [fp, #-8]
 3f8:	ebffff92 	bl	248 <_rt_timer_remove>
 3fc:	e51b0008 	ldr	r0, [fp, #-8]
 400:	ebfffffe 	bl	0 <free>
 404:	e3003000 	movw	r3, #0
 408:	e3403000 	movt	r3, #0
 40c:	e5933000 	ldr	r3, [r3]
 410:	e1a00003 	mov	r0, r3
 414:	ebfffffe 	bl	0 <rt_mutex_release>
 418:	e3a03000 	mov	r3, #0
 41c:	e1a00003 	mov	r0, r3
 420:	e24bd004 	sub	sp, fp, #4
 424:	e8bd8800 	pop	{fp, pc}

00000428 <rt_timer_start>:
 428:	e92d4800 	push	{fp, lr}
 42c:	e28db004 	add	fp, sp, #4
 430:	e24dd020 	sub	sp, sp, #32
 434:	e50b0020 	str	r0, [fp, #-32]	; 0xffffffe0
 438:	e320f000 	nop	{0}
 43c:	e3003000 	movw	r3, #0
 440:	e3403000 	movt	r3, #0
 444:	e5933000 	ldr	r3, [r3]
 448:	e3e01000 	mvn	r1, #0
 44c:	e1a00003 	mov	r0, r3
 450:	ebfffffe 	bl	0 <rt_mutex_take>
 454:	e1a03000 	mov	r3, r0
 458:	e3530000 	cmp	r3, #0
 45c:	1afffff6 	bne	43c <rt_timer_start+0x14>
 460:	e51b0020 	ldr	r0, [fp, #-32]	; 0xffffffe0
 464:	ebffff77 	bl	248 <_rt_timer_remove>
 468:	e51b3020 	ldr	r3, [fp, #-32]	; 0xffffffe0
 46c:	e5d33009 	ldrb	r3, [r3, #9]
 470:	e3c33001 	bic	r3, r3, #1
 474:	e6ef2073 	uxtb	r2, r3
 478:	e51b3020 	ldr	r3, [fp, #-32]	; 0xffffffe0
 47c:	e5c32009 	strb	r2, [r3, #9]
 480:	e3003000 	movw	r3, #0
 484:	e3403000 	movt	r3, #0
 488:	e5933000 	ldr	r3, [r3]
 48c:	e1a00003 	mov	r0, r3
 490:	ebfffffe 	bl	0 <rt_mutex_release>
 494:	ebfffffe 	bl	0 <rt_tick_get>
 498:	e1a02000 	mov	r2, r0
 49c:	e51b3020 	ldr	r3, [fp, #-32]	; 0xffffffe0
 4a0:	e5933024 	ldr	r3, [r3, #36]	; 0x24
 4a4:	e0822003 	add	r2, r2, r3
 4a8:	e51b3020 	ldr	r3, [fp, #-32]	; 0xffffffe0
 4ac:	e5832028 	str	r2, [r3, #40]	; 0x28
 4b0:	e320f000 	nop	{0}
 4b4:	e3003000 	movw	r3, #0
 4b8:	e3403000 	movt	r3, #0
 4bc:	e5933000 	ldr	r3, [r3]
 4c0:	e3e01000 	mvn	r1, #0
 4c4:	e1a00003 	mov	r0, r3
 4c8:	ebfffffe 	bl	0 <rt_mutex_take>
 4cc:	e1a03000 	mov	r3, r0
 4d0:	e3530000 	cmp	r3, #0
 4d4:	1afffff6 	bne	4b4 <rt_timer_start+0x8c>
 4d8:	e3003000 	movw	r3, #0
 4dc:	e3403000 	movt	r3, #0
 4e0:	e50b3010 	str	r3, [fp, #-16]
 4e4:	e51b3010 	ldr	r3, [fp, #-16]
 4e8:	e50b301c 	str	r3, [fp, #-28]	; 0xffffffe4
 4ec:	e3a03000 	mov	r3, #0
 4f0:	e50b3008 	str	r3, [fp, #-8]
 4f4:	ea000047 	b	618 <rt_timer_start+0x1f0>
 4f8:	e51b3008 	ldr	r3, [fp, #-8]
 4fc:	e1a03103 	lsl	r3, r3, #2
 500:	e24b2004 	sub	r2, fp, #4
 504:	e0823003 	add	r3, r2, r3
 508:	e5133018 	ldr	r3, [r3, #-24]	; 0xffffffe8
 50c:	e5933000 	ldr	r3, [r3]
 510:	e50b3014 	str	r3, [fp, #-20]	; 0xffffffec
 514:	e51b3008 	ldr	r3, [fp, #-8]
 518:	e1a03183 	lsl	r3, r3, #3
 51c:	e2833014 	add	r3, r3, #20
 520:	e2633000 	rsb	r3, r3, #0
 524:	e51b2014 	ldr	r2, [fp, #-20]	; 0xffffffec
 528:	e0823003 	add	r3, r2, r3
 52c:	e50b3018 	str	r3, [fp, #-24]	; 0xffffffe8
 530:	e51b3018 	ldr	r3, [fp, #-24]	; 0xffffffe8
 534:	e5932028 	ldr	r2, [r3, #40]	; 0x28
 538:	e51b3020 	ldr	r3, [fp, #-32]	; 0xffffffe0
 53c:	e5933028 	ldr	r3, [r3, #40]	; 0x28
 540:	e1520003 	cmp	r2, r3
 544:	0a000007 	beq	568 <rt_timer_start+0x140>
 548:	e51b3018 	ldr	r3, [fp, #-24]	; 0xffffffe8
 54c:	e5932028 	ldr	r2, [r3, #40]	; 0x28
 550:	e51b3020 	ldr	r3, [fp, #-32]	; 0xffffffe0
 554:	e5933028 	ldr	r3, [r3, #40]	; 0x28
 558:	e0423003 	sub	r3, r2, r3
 55c:	e373010a 	cmn	r3, #-2147483646	; 0x80000002
 560:	9a000019 	bls	5cc <rt_timer_start+0x1a4>
 564:	ea000000 	b	56c <rt_timer_start+0x144>
 568:	e320f000 	nop	{0}
 56c:	e51b3008 	ldr	r3, [fp, #-8]
 570:	e1a03103 	lsl	r3, r3, #2
 574:	e24b2004 	sub	r2, fp, #4
 578:	e0823003 	add	r3, r2, r3
 57c:	e5133018 	ldr	r3, [r3, #-24]	; 0xffffffe8
 580:	e5932000 	ldr	r2, [r3]
 584:	e51b3008 	ldr	r3, [fp, #-8]
 588:	e1a03103 	lsl	r3, r3, #2
 58c:	e24b1004 	sub	r1, fp, #4
 590:	e0813003 	add	r3, r1, r3
 594:	e5032018 	str	r2, [r3, #-24]	; 0xffffffe8
 598:	e51b3008 	ldr	r3, [fp, #-8]
 59c:	e1a03103 	lsl	r3, r3, #2
 5a0:	e24b2004 	sub	r2, fp, #4
 5a4:	e0823003 	add	r3, r2, r3
 5a8:	e5132018 	ldr	r2, [r3, #-24]	; 0xffffffe8
 5ac:	e51b3008 	ldr	r3, [fp, #-8]
 5b0:	e1a03183 	lsl	r3, r3, #3
 5b4:	e51b1010 	ldr	r1, [fp, #-16]
 5b8:	e0813003 	add	r3, r1, r3
 5bc:	e5933004 	ldr	r3, [r3, #4]
 5c0:	e1520003 	cmp	r2, r3
 5c4:	1affffcb 	bne	4f8 <rt_timer_start+0xd0>
 5c8:	ea000000 	b	5d0 <rt_timer_start+0x1a8>
 5cc:	e320f000 	nop	{0}
 5d0:	e51b3008 	ldr	r3, [fp, #-8]
 5d4:	e3530000 	cmp	r3, #0
 5d8:	0a00000b 	beq	60c <rt_timer_start+0x1e4>
 5dc:	e51b3008 	ldr	r3, [fp, #-8]
 5e0:	e1a03103 	lsl	r3, r3, #2
 5e4:	e24b2004 	sub	r2, fp, #4
 5e8:	e0823003 	add	r3, r2, r3
 5ec:	e5132018 	ldr	r2, [r3, #-24]	; 0xffffffe8
 5f0:	e51b3008 	ldr	r3, [fp, #-8]
 5f4:	e2833001 	add	r3, r3, #1
 5f8:	e2822008 	add	r2, r2, #8
 5fc:	e1a03103 	lsl	r3, r3, #2
 600:	e24b1004 	sub	r1, fp, #4
 604:	e0813003 	add	r3, r1, r3
 608:	e5032018 	str	r2, [r3, #-24]	; 0xffffffe8
 60c:	e51b3008 	ldr	r3, [fp, #-8]
 610:	e2833001 	add	r3, r3, #1
 614:	e50b3008 	str	r3, [fp, #-8]
 618:	e51b3008 	ldr	r3, [fp, #-8]
 61c:	e3530000 	cmp	r3, #0
 620:	0affffdc 	beq	598 <rt_timer_start+0x170>
 624:	e3003000 	movw	r3, #0
 628:	e3403000 	movt	r3, #0
 62c:	e5933000 	ldr	r3, [r3]
 630:	e2832001 	add	r2, r3, #1
 634:	e3003000 	movw	r3, #0
 638:	e3403000 	movt	r3, #0
 63c:	e5832000 	str	r2, [r3]
 640:	e3003000 	movw	r3, #0
 644:	e3403000 	movt	r3, #0
 648:	e5933000 	ldr	r3, [r3]
 64c:	e50b300c 	str	r3, [fp, #-12]
 650:	e51b201c 	ldr	r2, [fp, #-28]	; 0xffffffe4
 654:	e51b3020 	ldr	r3, [fp, #-32]	; 0xffffffe0
 658:	e2833014 	add	r3, r3, #20
 65c:	e1a01003 	mov	r1, r3
 660:	e1a00002 	mov	r0, r2
 664:	ebfffe74 	bl	3c <rt_list_insert_after>
 668:	e3a03002 	mov	r3, #2
 66c:	e50b3008 	str	r3, [fp, #-8]
 670:	ea000018 	b	6d8 <rt_timer_start+0x2b0>
 674:	e51b300c 	ldr	r3, [fp, #-12]
 678:	e2033003 	and	r3, r3, #3
 67c:	e3530000 	cmp	r3, #0
 680:	1a000018 	bne	6e8 <rt_timer_start+0x2c0>
 684:	e51b3008 	ldr	r3, [fp, #-8]
 688:	e2633001 	rsb	r3, r3, #1
 68c:	e1a03103 	lsl	r3, r3, #2
 690:	e24b2004 	sub	r2, fp, #4
 694:	e0823003 	add	r3, r2, r3
 698:	e5130018 	ldr	r0, [r3, #-24]	; 0xffffffe8
 69c:	e51b3008 	ldr	r3, [fp, #-8]
 6a0:	e2633001 	rsb	r3, r3, #1
 6a4:	e2833002 	add	r3, r3, #2
 6a8:	e1a03183 	lsl	r3, r3, #3
 6ac:	e51b2020 	ldr	r2, [fp, #-32]	; 0xffffffe0
 6b0:	e0823003 	add	r3, r2, r3
 6b4:	e2833004 	add	r3, r3, #4
 6b8:	e1a01003 	mov	r1, r3
 6bc:	ebfffe5e 	bl	3c <rt_list_insert_after>
 6c0:	e51b300c 	ldr	r3, [fp, #-12]
 6c4:	e1a03123 	lsr	r3, r3, #2
 6c8:	e50b300c 	str	r3, [fp, #-12]
 6cc:	e51b3008 	ldr	r3, [fp, #-8]
 6d0:	e2833001 	add	r3, r3, #1
 6d4:	e50b3008 	str	r3, [fp, #-8]
 6d8:	e51b3008 	ldr	r3, [fp, #-8]
 6dc:	e3530001 	cmp	r3, #1
 6e0:	9affffe3 	bls	674 <rt_timer_start+0x24c>
 6e4:	ea000000 	b	6ec <rt_timer_start+0x2c4>
 6e8:	e320f000 	nop	{0}
 6ec:	e51b3020 	ldr	r3, [fp, #-32]	; 0xffffffe0
 6f0:	e5d33009 	ldrb	r3, [r3, #9]
 6f4:	e3833001 	orr	r3, r3, #1
 6f8:	e6ef2073 	uxtb	r2, r3
 6fc:	e51b3020 	ldr	r3, [fp, #-32]	; 0xffffffe0
 700:	e5c32009 	strb	r2, [r3, #9]
 704:	e3003000 	movw	r3, #0
 708:	e3403000 	movt	r3, #0
 70c:	e5933000 	ldr	r3, [r3]
 710:	e1a00003 	mov	r0, r3
 714:	ebfffffe 	bl	0 <rt_mutex_release>
 718:	eb0000cb 	bl	a4c <rt_hw_timer_update>
 71c:	e3a03000 	mov	r3, #0
 720:	e1a00003 	mov	r0, r3
 724:	e24bd004 	sub	sp, fp, #4
 728:	e8bd8800 	pop	{fp, pc}

0000072c <rt_timer_stop>:
 72c:	e92d4800 	push	{fp, lr}
 730:	e28db004 	add	fp, sp, #4
 734:	e24dd008 	sub	sp, sp, #8
 738:	e50b0008 	str	r0, [fp, #-8]
 73c:	e51b3008 	ldr	r3, [fp, #-8]
 740:	e5d33009 	ldrb	r3, [r3, #9]
 744:	e2033001 	and	r3, r3, #1
 748:	e3530000 	cmp	r3, #0
 74c:	1a000001 	bne	758 <rt_timer_stop+0x2c>
 750:	e3e03000 	mvn	r3, #0
 754:	ea000017 	b	7b8 <rt_timer_stop+0x8c>
 758:	e320f000 	nop	{0}
 75c:	e3003000 	movw	r3, #0
 760:	e3403000 	movt	r3, #0
 764:	e5933000 	ldr	r3, [r3]
 768:	e3e01000 	mvn	r1, #0
 76c:	e1a00003 	mov	r0, r3
 770:	ebfffffe 	bl	0 <rt_mutex_take>
 774:	e1a03000 	mov	r3, r0
 778:	e3530000 	cmp	r3, #0
 77c:	1afffff6 	bne	75c <rt_timer_stop+0x30>
 780:	e51b0008 	ldr	r0, [fp, #-8]
 784:	ebfffeaf 	bl	248 <_rt_timer_remove>
 788:	e3003000 	movw	r3, #0
 78c:	e3403000 	movt	r3, #0
 790:	e5933000 	ldr	r3, [r3]
 794:	e1a00003 	mov	r0, r3
 798:	ebfffffe 	bl	0 <rt_mutex_release>
 79c:	e51b3008 	ldr	r3, [fp, #-8]
 7a0:	e5d33009 	ldrb	r3, [r3, #9]
 7a4:	e3c33001 	bic	r3, r3, #1
 7a8:	e6ef2073 	uxtb	r2, r3
 7ac:	e51b3008 	ldr	r3, [fp, #-8]
 7b0:	e5c32009 	strb	r2, [r3, #9]
 7b4:	e3a03000 	mov	r3, #0
 7b8:	e1a00003 	mov	r0, r3
 7bc:	e24bd004 	sub	sp, fp, #4
 7c0:	e8bd8800 	pop	{fp, pc}

000007c4 <rt_timer_control>:
 7c4:	e52db004 	push	{fp}		; (str fp, [sp, #-4]!)
 7c8:	e28db000 	add	fp, sp, #0
 7cc:	e24dd014 	sub	sp, sp, #20
 7d0:	e50b0008 	str	r0, [fp, #-8]
 7d4:	e50b100c 	str	r1, [fp, #-12]
 7d8:	e50b2010 	str	r2, [fp, #-16]
 7dc:	e51b300c 	ldr	r3, [fp, #-12]
 7e0:	e3530007 	cmp	r3, #7
 7e4:	979ff103 	ldrls	pc, [pc, r3, lsl #2]
 7e8:	ea000031 	b	8b4 <rt_timer_control+0xf0>
 7ec:	00000820 	andeq	r0, r0, r0, lsr #16
 7f0:	0000080c 	andeq	r0, r0, ip, lsl #16
 7f4:	00000834 	andeq	r0, r0, r4, lsr r8
 7f8:	00000850 	andeq	r0, r0, r0, asr r8
 7fc:	0000086c 	andeq	r0, r0, ip, ror #16
 800:	00000880 	andeq	r0, r0, r0, lsl #17
 804:	00000890 	muleq	r0, r0, r8
 808:	000008a4 	andeq	r0, r0, r4, lsr #17
 80c:	e51b3008 	ldr	r3, [fp, #-8]
 810:	e5932024 	ldr	r2, [r3, #36]	; 0x24
 814:	e51b3010 	ldr	r3, [fp, #-16]
 818:	e5832000 	str	r2, [r3]
 81c:	ea000024 	b	8b4 <rt_timer_control+0xf0>
 820:	e51b3010 	ldr	r3, [fp, #-16]
 824:	e5932000 	ldr	r2, [r3]
 828:	e51b3008 	ldr	r3, [fp, #-8]
 82c:	e5832024 	str	r2, [r3, #36]	; 0x24
 830:	ea00001f 	b	8b4 <rt_timer_control+0xf0>
 834:	e51b3008 	ldr	r3, [fp, #-8]
 838:	e5d33009 	ldrb	r3, [r3, #9]
 83c:	e3c33002 	bic	r3, r3, #2
 840:	e6ef2073 	uxtb	r2, r3
 844:	e51b3008 	ldr	r3, [fp, #-8]
 848:	e5c32009 	strb	r2, [r3, #9]
 84c:	ea000018 	b	8b4 <rt_timer_control+0xf0>
 850:	e51b3008 	ldr	r3, [fp, #-8]
 854:	e5d33009 	ldrb	r3, [r3, #9]
 858:	e3833002 	orr	r3, r3, #2
 85c:	e6ef2073 	uxtb	r2, r3
 860:	e51b3008 	ldr	r3, [fp, #-8]
 864:	e5c32009 	strb	r2, [r3, #9]
 868:	ea000011 	b	8b4 <rt_timer_control+0xf0>
 86c:	e51b3008 	ldr	r3, [fp, #-8]
 870:	e593201c 	ldr	r2, [r3, #28]
 874:	e51b3010 	ldr	r3, [fp, #-16]
 878:	e5832000 	str	r2, [r3]
 87c:	ea00000c 	b	8b4 <rt_timer_control+0xf0>
 880:	e51b2010 	ldr	r2, [fp, #-16]
 884:	e51b3008 	ldr	r3, [fp, #-8]
 888:	e583201c 	str	r2, [r3, #28]
 88c:	ea000008 	b	8b4 <rt_timer_control+0xf0>
 890:	e51b3008 	ldr	r3, [fp, #-8]
 894:	e5932020 	ldr	r2, [r3, #32]
 898:	e51b3010 	ldr	r3, [fp, #-16]
 89c:	e5832000 	str	r2, [r3]
 8a0:	ea000003 	b	8b4 <rt_timer_control+0xf0>
 8a4:	e51b3008 	ldr	r3, [fp, #-8]
 8a8:	e51b2010 	ldr	r2, [fp, #-16]
 8ac:	e5832020 	str	r2, [r3, #32]
 8b0:	e320f000 	nop	{0}
 8b4:	e3a03000 	mov	r3, #0
 8b8:	e1a00003 	mov	r0, r3
 8bc:	e28bd000 	add	sp, fp, #0
 8c0:	e49db004 	pop	{fp}		; (ldr fp, [sp], #4)
 8c4:	e12fff1e 	bx	lr

000008c8 <rt_soft_timer_check>:
 8c8:	e92d4800 	push	{fp, lr}
 8cc:	e28db004 	add	fp, sp, #4
 8d0:	e24dd010 	sub	sp, sp, #16
 8d4:	ebfffffe 	bl	0 <rt_tick_get>
 8d8:	e50b0008 	str	r0, [fp, #-8]
 8dc:	e320f000 	nop	{0}
 8e0:	e3003000 	movw	r3, #0
 8e4:	e3403000 	movt	r3, #0
 8e8:	e5933000 	ldr	r3, [r3]
 8ec:	e3e01000 	mvn	r1, #0
 8f0:	e1a00003 	mov	r0, r3
 8f4:	ebfffffe 	bl	0 <rt_mutex_take>
 8f8:	e1a03000 	mov	r3, r0
 8fc:	e3530000 	cmp	r3, #0
 900:	1afffff6 	bne	8e0 <rt_soft_timer_check+0x18>
 904:	e3003000 	movw	r3, #0
 908:	e3403000 	movt	r3, #0
 90c:	e5933000 	ldr	r3, [r3]
 910:	e50b300c 	str	r3, [fp, #-12]
 914:	ea00003d 	b	a10 <rt_soft_timer_check+0x148>
 918:	e51b300c 	ldr	r3, [fp, #-12]
 91c:	e2433014 	sub	r3, r3, #20
 920:	e50b3010 	str	r3, [fp, #-16]
 924:	e51b3010 	ldr	r3, [fp, #-16]
 928:	e5933028 	ldr	r3, [r3, #40]	; 0x28
 92c:	e51b2008 	ldr	r2, [fp, #-8]
 930:	e0423003 	sub	r3, r2, r3
 934:	e373010a 	cmn	r3, #-2147483646	; 0x80000002
 938:	8a00003a 	bhi	a28 <rt_soft_timer_check+0x160>
 93c:	e51b300c 	ldr	r3, [fp, #-12]
 940:	e5933000 	ldr	r3, [r3]
 944:	e50b300c 	str	r3, [fp, #-12]
 948:	e51b0010 	ldr	r0, [fp, #-16]
 94c:	ebfffe3d 	bl	248 <_rt_timer_remove>
 950:	e3003000 	movw	r3, #0
 954:	e3403000 	movt	r3, #0
 958:	e5933000 	ldr	r3, [r3]
 95c:	e1a00003 	mov	r0, r3
 960:	ebfffffe 	bl	0 <rt_mutex_release>
 964:	e51b3010 	ldr	r3, [fp, #-16]
 968:	e593301c 	ldr	r3, [r3, #28]
 96c:	e51b2010 	ldr	r2, [fp, #-16]
 970:	e5922020 	ldr	r2, [r2, #32]
 974:	e1a00002 	mov	r0, r2
 978:	e12fff33 	blx	r3
 97c:	ebfffffe 	bl	0 <rt_tick_get>
 980:	e50b0008 	str	r0, [fp, #-8]
 984:	e320f000 	nop	{0}
 988:	e3003000 	movw	r3, #0
 98c:	e3403000 	movt	r3, #0
 990:	e5933000 	ldr	r3, [r3]
 994:	e3e01000 	mvn	r1, #0
 998:	e1a00003 	mov	r0, r3
 99c:	ebfffffe 	bl	0 <rt_mutex_take>
 9a0:	e1a03000 	mov	r3, r0
 9a4:	e3530000 	cmp	r3, #0
 9a8:	1afffff6 	bne	988 <rt_soft_timer_check+0xc0>
 9ac:	e51b3010 	ldr	r3, [fp, #-16]
 9b0:	e5d33009 	ldrb	r3, [r3, #9]
 9b4:	e2033002 	and	r3, r3, #2
 9b8:	e3530000 	cmp	r3, #0
 9bc:	0a00000d 	beq	9f8 <rt_soft_timer_check+0x130>
 9c0:	e51b3010 	ldr	r3, [fp, #-16]
 9c4:	e5d33009 	ldrb	r3, [r3, #9]
 9c8:	e2033001 	and	r3, r3, #1
 9cc:	e3530000 	cmp	r3, #0
 9d0:	0a000008 	beq	9f8 <rt_soft_timer_check+0x130>
 9d4:	e51b3010 	ldr	r3, [fp, #-16]
 9d8:	e5d33009 	ldrb	r3, [r3, #9]
 9dc:	e3c33001 	bic	r3, r3, #1
 9e0:	e6ef2073 	uxtb	r2, r3
 9e4:	e51b3010 	ldr	r3, [fp, #-16]
 9e8:	e5c32009 	strb	r2, [r3, #9]
 9ec:	e51b0010 	ldr	r0, [fp, #-16]
 9f0:	ebfffffe 	bl	428 <rt_timer_start>
 9f4:	ea000005 	b	a10 <rt_soft_timer_check+0x148>
 9f8:	e51b3010 	ldr	r3, [fp, #-16]
 9fc:	e5d33009 	ldrb	r3, [r3, #9]
 a00:	e3c33001 	bic	r3, r3, #1
 a04:	e6ef2073 	uxtb	r2, r3
 a08:	e51b3010 	ldr	r3, [fp, #-16]
 a0c:	e5c32009 	strb	r2, [r3, #9]
 a10:	e51b200c 	ldr	r2, [fp, #-12]
 a14:	e3003000 	movw	r3, #0
 a18:	e3403000 	movt	r3, #0
 a1c:	e1520003 	cmp	r2, r3
 a20:	1affffbc 	bne	918 <rt_soft_timer_check+0x50>
 a24:	ea000000 	b	a2c <rt_soft_timer_check+0x164>
 a28:	e320f000 	nop	{0}
 a2c:	e3003000 	movw	r3, #0
 a30:	e3403000 	movt	r3, #0
 a34:	e5933000 	ldr	r3, [r3]
 a38:	e1a00003 	mov	r0, r3
 a3c:	ebfffffe 	bl	0 <rt_mutex_release>
 a40:	e320f000 	nop	{0}
 a44:	e24bd004 	sub	sp, fp, #4
 a48:	e8bd8800 	pop	{fp, pc}

00000a4c <rt_hw_timer_update>:
 a4c:	e92d4800 	push	{fp, lr}
 a50:	e28db004 	add	fp, sp, #4
 a54:	e24dd008 	sub	sp, sp, #8
 a58:	e3000000 	movw	r0, #0
 a5c:	e3400000 	movt	r0, #0
 a60:	ebfffde4 	bl	1f8 <rt_timer_list_next_timeout>
 a64:	e1a03000 	mov	r3, r0
 a68:	e50b300c 	str	r3, [fp, #-12]
 a6c:	e51b300c 	ldr	r3, [fp, #-12]
 a70:	e3730001 	cmn	r3, #1
 a74:	0a00001f 	beq	af8 <rt_hw_timer_update+0xac>
 a78:	ebfffffe 	bl	0 <rt_tick_get>
 a7c:	e50b0008 	str	r0, [fp, #-8]
 a80:	e51b200c 	ldr	r2, [fp, #-12]
 a84:	e51b3008 	ldr	r3, [fp, #-8]
 a88:	e0423003 	sub	r3, r2, r3
 a8c:	e373010a 	cmn	r3, #-2147483646	; 0x80000002
 a90:	8a00001a 	bhi	b00 <rt_hw_timer_update+0xb4>
 a94:	e3003000 	movw	r3, #0
 a98:	e3403000 	movt	r3, #0
 a9c:	e5933000 	ldr	r3, [r3]
 aa0:	e1a01003 	mov	r1, r3
 aa4:	e3a00072 	mov	r0, #114	; 0x72
 aa8:	ebfffffe 	bl	0 <syscall>
 aac:	e51b200c 	ldr	r2, [fp, #-12]
 ab0:	e51b3008 	ldr	r3, [fp, #-8]
 ab4:	e0423003 	sub	r3, r2, r3
 ab8:	e50b300c 	str	r3, [fp, #-12]
 abc:	e3003000 	movw	r3, #0
 ac0:	e3403000 	movt	r3, #0
 ac4:	e5931000 	ldr	r1, [r3]
 ac8:	e24b300c 	sub	r3, fp, #12
 acc:	e3a02000 	mov	r2, #0
 ad0:	e3a00073 	mov	r0, #115	; 0x73
 ad4:	ebfffffe 	bl	0 <syscall>
 ad8:	e3003000 	movw	r3, #0
 adc:	e3403000 	movt	r3, #0
 ae0:	e5933000 	ldr	r3, [r3]
 ae4:	e1a01003 	mov	r1, r3
 ae8:	e3a00071 	mov	r0, #113	; 0x71
 aec:	ebfffffe 	bl	0 <syscall>
 af0:	e320f000 	nop	{0}
 af4:	ea000001 	b	b00 <rt_hw_timer_update+0xb4>
 af8:	e320f000 	nop	{0}
 afc:	ea000000 	b	b04 <rt_hw_timer_update+0xb8>
 b00:	e320f000 	nop	{0}
 b04:	e24bd004 	sub	sp, fp, #4
 b08:	e8bd8800 	pop	{fp, pc}

00000b0c <rt_thread_timer_handler>:
 b0c:	e92d4800 	push	{fp, lr}
 b10:	e28db004 	add	fp, sp, #4
 b14:	ebffffcc 	bl	a4c <rt_hw_timer_update>
 b18:	ebfffffe 	bl	8c8 <rt_soft_timer_check>
 b1c:	e320f000 	nop	{0}
 b20:	e8bd8800 	pop	{fp, pc}

00000b24 <timer_thread_entry>:
 b24:	e92d4800 	push	{fp, lr}
 b28:	e28db004 	add	fp, sp, #4
 b2c:	e24dd010 	sub	sp, sp, #16
 b30:	e50b0010 	str	r0, [fp, #-16]
 b34:	e3003000 	movw	r3, #0
 b38:	e3403000 	movt	r3, #0
 b3c:	e5933000 	ldr	r3, [r3]
 b40:	e3e01000 	mvn	r1, #0
 b44:	e1a00003 	mov	r0, r3
 b48:	ebfffffe 	bl	0 <rt_sem_take>
 b4c:	e50b0008 	str	r0, [fp, #-8]
 b50:	e51b3008 	ldr	r3, [fp, #-8]
 b54:	e3530000 	cmp	r3, #0
 b58:	1a000001 	bne	b64 <timer_thread_entry+0x40>
 b5c:	ebffffea 	bl	b0c <rt_thread_timer_handler>
 b60:	eafffff3 	b	b34 <timer_thread_entry+0x10>
 b64:	e320f000 	nop	{0}
 b68:	e320f000 	nop	{0}
 b6c:	e24bd004 	sub	sp, fp, #4
 b70:	e8bd8800 	pop	{fp, pc}

00000b74 <rt_system_timer_init>:
 b74:	e92d4800 	push	{fp, lr}
 b78:	e28db004 	add	fp, sp, #4
 b7c:	e24dd018 	sub	sp, sp, #24
 b80:	e50b0010 	str	r0, [fp, #-16]
 b84:	e3003000 	movw	r3, #0
 b88:	e3403000 	movt	r3, #0
 b8c:	e5933000 	ldr	r3, [r3]
 b90:	e3530000 	cmp	r3, #0
 b94:	1a000008 	bne	bbc <rt_system_timer_init+0x48>
 b98:	e3a02000 	mov	r2, #0
 b9c:	e3a01000 	mov	r1, #0
 ba0:	e3000000 	movw	r0, #0
 ba4:	e3400000 	movt	r0, #0
 ba8:	ebfffffe 	bl	0 <rt_sem_create>
 bac:	e1a02000 	mov	r2, r0
 bb0:	e3003000 	movw	r3, #0
 bb4:	e3403000 	movt	r3, #0
 bb8:	e5832000 	str	r2, [r3]
 bbc:	e3003000 	movw	r3, #0
 bc0:	e3403000 	movt	r3, #0
 bc4:	e5933000 	ldr	r3, [r3]
 bc8:	e3530000 	cmp	r3, #0
 bcc:	1a000007 	bne	bf0 <rt_system_timer_init+0x7c>
 bd0:	e3a01000 	mov	r1, #0
 bd4:	e3000000 	movw	r0, #0
 bd8:	e3400000 	movt	r0, #0
 bdc:	ebfffffe 	bl	0 <rt_mutex_create>
 be0:	e1a02000 	mov	r2, r0
 be4:	e3003000 	movw	r3, #0
 be8:	e3403000 	movt	r3, #0
 bec:	e5832000 	str	r2, [r3]
 bf0:	e3a03000 	mov	r3, #0
 bf4:	e50b3008 	str	r3, [fp, #-8]
 bf8:	ea000009 	b	c24 <rt_system_timer_init+0xb0>
 bfc:	e51b3008 	ldr	r3, [fp, #-8]
 c00:	e1a02183 	lsl	r2, r3, #3
 c04:	e3003000 	movw	r3, #0
 c08:	e3403000 	movt	r3, #0
 c0c:	e0823003 	add	r3, r2, r3
 c10:	e1a00003 	mov	r0, r3
 c14:	ebfffcf9 	bl	0 <rt_list_init>
 c18:	e51b3008 	ldr	r3, [fp, #-8]
 c1c:	e2833001 	add	r3, r3, #1
 c20:	e50b3008 	str	r3, [fp, #-8]
 c24:	e51b3008 	ldr	r3, [fp, #-8]
 c28:	e3530000 	cmp	r3, #0
 c2c:	0afffff2 	beq	bfc <rt_system_timer_init+0x88>
 c30:	e3003000 	movw	r3, #0
 c34:	e3403000 	movt	r3, #0
 c38:	e5933000 	ldr	r3, [r3]
 c3c:	e3530000 	cmp	r3, #0
 c40:	1a00000f 	bne	c84 <rt_system_timer_init+0x110>
 c44:	e3003000 	movw	r3, #0
 c48:	e3403000 	movt	r3, #0
 c4c:	e5933000 	ldr	r3, [r3]
 c50:	e5932004 	ldr	r2, [r3, #4]
 c54:	e3a03000 	mov	r3, #0
 c58:	e58d3000 	str	r3, [sp]
 c5c:	e3a03000 	mov	r3, #0
 c60:	e3001000 	movw	r1, #0
 c64:	e3401000 	movt	r1, #0
 c68:	e3a0006f 	mov	r0, #111	; 0x6f
 c6c:	ebfffffe 	bl	0 <syscall>
 c70:	e1a03000 	mov	r3, r0
 c74:	e1a02003 	mov	r2, r3
 c78:	e3003000 	movw	r3, #0
 c7c:	e3403000 	movt	r3, #0
 c80:	e5832000 	str	r2, [r3]
 c84:	e51b3010 	ldr	r3, [fp, #-16]
 c88:	e3530a01 	cmp	r3, #4096	; 0x1000
 c8c:	2a000001 	bcs	c98 <rt_system_timer_init+0x124>
 c90:	e3a03a01 	mov	r3, #4096	; 0x1000
 c94:	e50b3010 	str	r3, [fp, #-16]
 c98:	e3a0300a 	mov	r3, #10
 c9c:	e58d3004 	str	r3, [sp, #4]
 ca0:	e3a03002 	mov	r3, #2
 ca4:	e58d3000 	str	r3, [sp]
 ca8:	e51b3010 	ldr	r3, [fp, #-16]
 cac:	e3a02000 	mov	r2, #0
 cb0:	e3001000 	movw	r1, #0
 cb4:	e3401000 	movt	r1, #0
 cb8:	e3000000 	movw	r0, #0
 cbc:	e3400000 	movt	r0, #0
 cc0:	ebfffffe 	bl	0 <rt_thread_create>
 cc4:	e50b000c 	str	r0, [fp, #-12]
 cc8:	e51b300c 	ldr	r3, [fp, #-12]
 ccc:	e3530000 	cmp	r3, #0
 cd0:	0a000001 	beq	cdc <rt_system_timer_init+0x168>
 cd4:	e51b000c 	ldr	r0, [fp, #-12]
 cd8:	ebfffffe 	bl	0 <rt_thread_startup>
 cdc:	e320f000 	nop	{0}
 ce0:	e24bd004 	sub	sp, fp, #4
 ce4:	e8bd8800 	pop	{fp, pc}

Disassembly of section .text:

00000000 <rt_malloc>:
   0:	e92d4800 	push	{fp, lr}
   4:	e28db004 	add	fp, sp, #4
   8:	e24dd008 	sub	sp, sp, #8
   c:	e50b0008 	str	r0, [fp, #-8]
  10:	e51b0008 	ldr	r0, [fp, #-8]
  14:	ebfffffe 	bl	0 <malloc>
  18:	e1a03000 	mov	r3, r0
  1c:	e1a00003 	mov	r0, r3
  20:	e24bd004 	sub	sp, fp, #4
  24:	e8bd8800 	pop	{fp, pc}

00000028 <rt_free>:
  28:	e92d4800 	push	{fp, lr}
  2c:	e28db004 	add	fp, sp, #4
  30:	e24dd008 	sub	sp, sp, #8
  34:	e50b0008 	str	r0, [fp, #-8]
  38:	e51b0008 	ldr	r0, [fp, #-8]
  3c:	ebfffffe 	bl	0 <free>
  40:	e24bd004 	sub	sp, fp, #4
  44:	e8bd8800 	pop	{fp, pc}

00000048 <rt_realloc>:
  48:	e92d4800 	push	{fp, lr}
  4c:	e28db004 	add	fp, sp, #4
  50:	e24dd008 	sub	sp, sp, #8
  54:	e50b0008 	str	r0, [fp, #-8]
  58:	e50b100c 	str	r1, [fp, #-12]
  5c:	e51b100c 	ldr	r1, [fp, #-12]
  60:	e51b0008 	ldr	r0, [fp, #-8]
  64:	ebfffffe 	bl	0 <realloc>
  68:	e1a03000 	mov	r3, r0
  6c:	e1a00003 	mov	r0, r3
  70:	e24bd004 	sub	sp, fp, #4
  74:	e8bd8800 	pop	{fp, pc}

00000078 <rt_calloc>:
  78:	e92d4800 	push	{fp, lr}
  7c:	e28db004 	add	fp, sp, #4
  80:	e24dd008 	sub	sp, sp, #8
  84:	e50b0008 	str	r0, [fp, #-8]
  88:	e50b100c 	str	r1, [fp, #-12]
  8c:	e51b100c 	ldr	r1, [fp, #-12]
  90:	e51b0008 	ldr	r0, [fp, #-8]
  94:	ebfffffe 	bl	0 <calloc>
  98:	e1a03000 	mov	r3, r0
  9c:	e1a00003 	mov	r0, r3
  a0:	e24bd004 	sub	sp, fp, #4
  a4:	e8bd8800 	pop	{fp, pc}

000000a8 <rt_snprintf>:
  a8:	e92d000c 	push	{r2, r3}
  ac:	e92d4800 	push	{fp, lr}
  b0:	e28db004 	add	fp, sp, #4
  b4:	e24dd010 	sub	sp, sp, #16
  b8:	e50b0010 	str	r0, [fp, #-16]
  bc:	e50b1014 	str	r1, [fp, #-20]	; 0xffffffec
  c0:	e28b3008 	add	r3, fp, #8
  c4:	e50b300c 	str	r3, [fp, #-12]
  c8:	e51b300c 	ldr	r3, [fp, #-12]
  cc:	e59b2004 	ldr	r2, [fp, #4]
  d0:	e51b1014 	ldr	r1, [fp, #-20]	; 0xffffffec
  d4:	e51b0010 	ldr	r0, [fp, #-16]
  d8:	ebfffffe 	bl	0 <vsnprintf>
  dc:	e50b0008 	str	r0, [fp, #-8]
  e0:	e51b3008 	ldr	r3, [fp, #-8]
  e4:	e1a00003 	mov	r0, r3
  e8:	e24bd004 	sub	sp, fp, #4
  ec:	e8bd4800 	pop	{fp, lr}
  f0:	e28dd008 	add	sp, sp, #8
  f4:	e12fff1e 	bx	lr

000000f8 <rt_sprintf>:
  f8:	e92d000e 	push	{r1, r2, r3}
  fc:	e92d4800 	push	{fp, lr}
 100:	e28db004 	add	fp, sp, #4
 104:	e24dd014 	sub	sp, sp, #20
 108:	e50b0014 	str	r0, [fp, #-20]	; 0xffffffec
 10c:	e28b3008 	add	r3, fp, #8
 110:	e50b3010 	str	r3, [fp, #-16]
 114:	e51b2010 	ldr	r2, [fp, #-16]
 118:	e59b1004 	ldr	r1, [fp, #4]
 11c:	e51b0014 	ldr	r0, [fp, #-20]	; 0xffffffec
 120:	ebfffffe 	bl	0 <vsprintf>
 124:	e50b000c 	str	r0, [fp, #-12]
 128:	e51b300c 	ldr	r3, [fp, #-12]
 12c:	e1a00003 	mov	r0, r3
 130:	e24bd004 	sub	sp, fp, #4
 134:	e8bd4800 	pop	{fp, lr}
 138:	e28dd00c 	add	sp, sp, #12
 13c:	e12fff1e 	bx	lr

00000140 <rt_vsnprintf>:
 140:	e92d4800 	push	{fp, lr}
 144:	e28db004 	add	fp, sp, #4
 148:	e24dd010 	sub	sp, sp, #16
 14c:	e50b0008 	str	r0, [fp, #-8]
 150:	e50b100c 	str	r1, [fp, #-12]
 154:	e50b2010 	str	r2, [fp, #-16]
 158:	e50b3014 	str	r3, [fp, #-20]	; 0xffffffec
 15c:	e51b3014 	ldr	r3, [fp, #-20]	; 0xffffffec
 160:	e51b2010 	ldr	r2, [fp, #-16]
 164:	e51b100c 	ldr	r1, [fp, #-12]
 168:	e51b0008 	ldr	r0, [fp, #-8]
 16c:	ebfffffe 	bl	0 <vsnprintf>
 170:	e1a03000 	mov	r3, r0
 174:	e1a00003 	mov	r0, r3
 178:	e24bd004 	sub	sp, fp, #4
 17c:	e8bd8800 	pop	{fp, pc}

00000180 <rt_kprintf>:
 180:	e92d000f 	push	{r0, r1, r2, r3}
 184:	e92d4800 	push	{fp, lr}
 188:	e28db004 	add	fp, sp, #4
 18c:	e24dd060 	sub	sp, sp, #96	; 0x60
 190:	e28b3008 	add	r3, fp, #8
 194:	e50b300c 	str	r3, [fp, #-12]
 198:	e24b0060 	sub	r0, fp, #96	; 0x60
 19c:	e51b300c 	ldr	r3, [fp, #-12]
 1a0:	e59b2004 	ldr	r2, [fp, #4]
 1a4:	e3a01051 	mov	r1, #81	; 0x51
 1a8:	ebfffffe 	bl	0 <vsnprintf>
 1ac:	e50b0008 	str	r0, [fp, #-8]
 1b0:	e51b3008 	ldr	r3, [fp, #-8]
 1b4:	e3530000 	cmp	r3, #0
 1b8:	da000004 	ble	1d0 <rt_kprintf+0x50>
 1bc:	e24b3060 	sub	r3, fp, #96	; 0x60
 1c0:	e1a01003 	mov	r1, r3
 1c4:	e3000000 	movw	r0, #0
 1c8:	e3400000 	movt	r0, #0
 1cc:	ebfffffe 	bl	0 <printf>
 1d0:	e320f000 	nop	{0}
 1d4:	e24bd004 	sub	sp, fp, #4
 1d8:	e8bd4800 	pop	{fp, lr}
 1dc:	e28dd010 	add	sp, sp, #16
 1e0:	e12fff1e 	bx	lr

000001e4 <rt_strdup>:
 1e4:	e92d4800 	push	{fp, lr}
 1e8:	e28db004 	add	fp, sp, #4
 1ec:	e24dd008 	sub	sp, sp, #8
 1f0:	e50b0008 	str	r0, [fp, #-8]
 1f4:	e51b0008 	ldr	r0, [fp, #-8]
 1f8:	ebfffffe 	bl	0 <strdup>
 1fc:	e1a03000 	mov	r3, r0
 200:	e1a00003 	mov	r0, r3
 204:	e24bd004 	sub	sp, fp, #4
 208:	e8bd8800 	pop	{fp, pc}

0000020c <rt_strstr>:
 20c:	e92d4800 	push	{fp, lr}
 210:	e28db004 	add	fp, sp, #4
 214:	e24dd008 	sub	sp, sp, #8
 218:	e50b0008 	str	r0, [fp, #-8]
 21c:	e50b100c 	str	r1, [fp, #-12]
 220:	e51b100c 	ldr	r1, [fp, #-12]
 224:	e51b0008 	ldr	r0, [fp, #-8]
 228:	ebfffffe 	bl	0 <strstr>
 22c:	e1a03000 	mov	r3, r0
 230:	e1a00003 	mov	r0, r3
 234:	e24bd004 	sub	sp, fp, #4
 238:	e8bd8800 	pop	{fp, pc}

0000023c <rt_strcmp>:
 23c:	e92d4800 	push	{fp, lr}
 240:	e28db004 	add	fp, sp, #4
 244:	e24dd008 	sub	sp, sp, #8
 248:	e50b0008 	str	r0, [fp, #-8]
 24c:	e50b100c 	str	r1, [fp, #-12]
 250:	e51b100c 	ldr	r1, [fp, #-12]
 254:	e51b0008 	ldr	r0, [fp, #-8]
 258:	ebfffffe 	bl	0 <strcmp>
 25c:	e1a03000 	mov	r3, r0
 260:	e1a00003 	mov	r0, r3
 264:	e24bd004 	sub	sp, fp, #4
 268:	e8bd8800 	pop	{fp, pc}

0000026c <rt_strlen>:
 26c:	e92d4800 	push	{fp, lr}
 270:	e28db004 	add	fp, sp, #4
 274:	e24dd008 	sub	sp, sp, #8
 278:	e50b0008 	str	r0, [fp, #-8]
 27c:	e51b0008 	ldr	r0, [fp, #-8]
 280:	ebfffffe 	bl	0 <strlen>
 284:	e1a03000 	mov	r3, r0
 288:	e1a00003 	mov	r0, r3
 28c:	e24bd004 	sub	sp, fp, #4
 290:	e8bd8800 	pop	{fp, pc}

00000294 <rt_strncmp>:
 294:	e92d4800 	push	{fp, lr}
 298:	e28db004 	add	fp, sp, #4
 29c:	e24dd010 	sub	sp, sp, #16
 2a0:	e50b0008 	str	r0, [fp, #-8]
 2a4:	e50b100c 	str	r1, [fp, #-12]
 2a8:	e50b2010 	str	r2, [fp, #-16]
 2ac:	e51b2010 	ldr	r2, [fp, #-16]
 2b0:	e51b100c 	ldr	r1, [fp, #-12]
 2b4:	e51b0008 	ldr	r0, [fp, #-8]
 2b8:	ebfffffe 	bl	0 <strncmp>
 2bc:	e1a03000 	mov	r3, r0
 2c0:	e1a00003 	mov	r0, r3
 2c4:	e24bd004 	sub	sp, fp, #4
 2c8:	e8bd8800 	pop	{fp, pc}

000002cc <rt_strncpy>:
 2cc:	e92d4800 	push	{fp, lr}
 2d0:	e28db004 	add	fp, sp, #4
 2d4:	e24dd010 	sub	sp, sp, #16
 2d8:	e50b0008 	str	r0, [fp, #-8]
 2dc:	e50b100c 	str	r1, [fp, #-12]
 2e0:	e50b2010 	str	r2, [fp, #-16]
 2e4:	e51b2010 	ldr	r2, [fp, #-16]
 2e8:	e51b100c 	ldr	r1, [fp, #-12]
 2ec:	e51b0008 	ldr	r0, [fp, #-8]
 2f0:	ebfffffe 	bl	0 <strncpy>
 2f4:	e1a03000 	mov	r3, r0
 2f8:	e1a00003 	mov	r0, r3
 2fc:	e24bd004 	sub	sp, fp, #4
 300:	e8bd8800 	pop	{fp, pc}

00000304 <rt_strcasecmp>:
 304:	e92d4800 	push	{fp, lr}
 308:	e28db004 	add	fp, sp, #4
 30c:	e24dd008 	sub	sp, sp, #8
 310:	e50b0008 	str	r0, [fp, #-8]
 314:	e50b100c 	str	r1, [fp, #-12]
 318:	e51b100c 	ldr	r1, [fp, #-12]
 31c:	e51b0008 	ldr	r0, [fp, #-8]
 320:	ebfffffe 	bl	0 <strcasecmp>
 324:	e1a03000 	mov	r3, r0
 328:	e1a00003 	mov	r0, r3
 32c:	e24bd004 	sub	sp, fp, #4
 330:	e8bd8800 	pop	{fp, pc}

00000334 <rt_memset>:
 334:	e92d4800 	push	{fp, lr}
 338:	e28db004 	add	fp, sp, #4
 33c:	e24dd010 	sub	sp, sp, #16
 340:	e50b0008 	str	r0, [fp, #-8]
 344:	e50b100c 	str	r1, [fp, #-12]
 348:	e50b2010 	str	r2, [fp, #-16]
 34c:	e51b2010 	ldr	r2, [fp, #-16]
 350:	e51b100c 	ldr	r1, [fp, #-12]
 354:	e51b0008 	ldr	r0, [fp, #-8]
 358:	ebfffffe 	bl	0 <memset>
 35c:	e1a03000 	mov	r3, r0
 360:	e1a00003 	mov	r0, r3
 364:	e24bd004 	sub	sp, fp, #4
 368:	e8bd8800 	pop	{fp, pc}

0000036c <rt_memcpy>:
 36c:	e92d4800 	push	{fp, lr}
 370:	e28db004 	add	fp, sp, #4
 374:	e24dd010 	sub	sp, sp, #16
 378:	e50b0008 	str	r0, [fp, #-8]
 37c:	e50b100c 	str	r1, [fp, #-12]
 380:	e50b2010 	str	r2, [fp, #-16]
 384:	e51b2010 	ldr	r2, [fp, #-16]
 388:	e51b100c 	ldr	r1, [fp, #-12]
 38c:	e51b0008 	ldr	r0, [fp, #-8]
 390:	ebfffffe 	bl	0 <memcpy>
 394:	e1a03000 	mov	r3, r0
 398:	e1a00003 	mov	r0, r3
 39c:	e24bd004 	sub	sp, fp, #4
 3a0:	e8bd8800 	pop	{fp, pc}

000003a4 <rt_memcmp>:
 3a4:	e92d4800 	push	{fp, lr}
 3a8:	e28db004 	add	fp, sp, #4
 3ac:	e24dd010 	sub	sp, sp, #16
 3b0:	e50b0008 	str	r0, [fp, #-8]
 3b4:	e50b100c 	str	r1, [fp, #-12]
 3b8:	e50b2010 	str	r2, [fp, #-16]
 3bc:	e51b2010 	ldr	r2, [fp, #-16]
 3c0:	e51b100c 	ldr	r1, [fp, #-12]
 3c4:	e51b0008 	ldr	r0, [fp, #-8]
 3c8:	ebfffffe 	bl	0 <memcmp>
 3cc:	e1a03000 	mov	r3, r0
 3d0:	e1a00003 	mov	r0, r3
 3d4:	e24bd004 	sub	sp, fp, #4
 3d8:	e8bd8800 	pop	{fp, pc}

000003dc <rt_memmove>:
 3dc:	e92d4800 	push	{fp, lr}
 3e0:	e28db004 	add	fp, sp, #4
 3e4:	e24dd010 	sub	sp, sp, #16
 3e8:	e50b0008 	str	r0, [fp, #-8]
 3ec:	e50b100c 	str	r1, [fp, #-12]
 3f0:	e50b2010 	str	r2, [fp, #-16]
 3f4:	e51b2010 	ldr	r2, [fp, #-16]
 3f8:	e51b100c 	ldr	r1, [fp, #-12]
 3fc:	e51b0008 	ldr	r0, [fp, #-8]
 400:	ebfffffe 	bl	0 <memmove>
 404:	e1a03000 	mov	r3, r0
 408:	e1a00003 	mov	r0, r3
 40c:	e24bd004 	sub	sp, fp, #4
 410:	e8bd8800 	pop	{fp, pc}

00000414 <rt_tick_from_millisecond>:
 414:	e52db004 	push	{fp}		; (str fp, [sp, #-4]!)
 418:	e28db000 	add	fp, sp, #0
 41c:	e24dd014 	sub	sp, sp, #20
 420:	e50b0010 	str	r0, [fp, #-16]
 424:	e51b3010 	ldr	r3, [fp, #-16]
 428:	e3530000 	cmp	r3, #0
 42c:	aa000002 	bge	43c <rt_tick_from_millisecond+0x28>
 430:	e3e03000 	mvn	r3, #0
 434:	e50b3008 	str	r3, [fp, #-8]
 438:	ea000021 	b	4c4 <rt_tick_from_millisecond+0xb0>
 43c:	e51b1010 	ldr	r1, [fp, #-16]
 440:	e3043dd3 	movw	r3, #19923	; 0x4dd3
 444:	e3413062 	movt	r3, #4194	; 0x1062
 448:	e0c32391 	smull	r2, r3, r1, r3
 44c:	e1a02343 	asr	r2, r3, #6
 450:	e1a03fc1 	asr	r3, r1, #31
 454:	e0423003 	sub	r3, r2, r3
 458:	e3a02064 	mov	r2, #100	; 0x64
 45c:	e0030392 	mul	r3, r2, r3
 460:	e50b3008 	str	r3, [fp, #-8]
 464:	e51b2010 	ldr	r2, [fp, #-16]
 468:	e3043dd3 	movw	r3, #19923	; 0x4dd3
 46c:	e3413062 	movt	r3, #4194	; 0x1062
 470:	e0c10392 	smull	r0, r1, r2, r3
 474:	e1a01341 	asr	r1, r1, #6
 478:	e1a03fc2 	asr	r3, r2, #31
 47c:	e0413003 	sub	r3, r1, r3
 480:	e3a01ffa 	mov	r1, #1000	; 0x3e8
 484:	e0030391 	mul	r3, r1, r3
 488:	e0423003 	sub	r3, r2, r3
 48c:	e3a02064 	mov	r2, #100	; 0x64
 490:	e0030392 	mul	r3, r2, r3
 494:	e2833ff9 	add	r3, r3, #996	; 0x3e4
 498:	e2833003 	add	r3, r3, #3
 49c:	e3042dd3 	movw	r2, #19923	; 0x4dd3
 4a0:	e3412062 	movt	r2, #4194	; 0x1062
 4a4:	e0c10293 	smull	r0, r1, r3, r2
 4a8:	e1a02341 	asr	r2, r1, #6
 4ac:	e1a03fc3 	asr	r3, r3, #31
 4b0:	e0423003 	sub	r3, r2, r3
 4b4:	e1a02003 	mov	r2, r3
 4b8:	e51b3008 	ldr	r3, [fp, #-8]
 4bc:	e0833002 	add	r3, r3, r2
 4c0:	e50b3008 	str	r3, [fp, #-8]
 4c4:	e51b3008 	ldr	r3, [fp, #-8]
 4c8:	e1a00003 	mov	r0, r3
 4cc:	e28bd000 	add	sp, fp, #0
 4d0:	e49db004 	pop	{fp}		; (ldr fp, [sp], #4)
 4d4:	e12fff1e 	bx	lr

000004d8 <rt_malloc_align>:
 4d8:	e92d4800 	push	{fp, lr}
 4dc:	e28db004 	add	fp, sp, #4
 4e0:	e24dd018 	sub	sp, sp, #24
 4e4:	e50b0018 	str	r0, [fp, #-24]	; 0xffffffe8
 4e8:	e50b101c 	str	r1, [fp, #-28]	; 0xffffffe4
 4ec:	e3a03004 	mov	r3, #4
 4f0:	e50b3010 	str	r3, [fp, #-16]
 4f4:	e51b3010 	ldr	r3, [fp, #-16]
 4f8:	e2433001 	sub	r3, r3, #1
 4fc:	e50b3010 	str	r3, [fp, #-16]
 500:	e51b2010 	ldr	r2, [fp, #-16]
 504:	e51b301c 	ldr	r3, [fp, #-28]	; 0xffffffe4
 508:	e0823003 	add	r3, r2, r3
 50c:	e51b2010 	ldr	r2, [fp, #-16]
 510:	e1e02002 	mvn	r2, r2
 514:	e0033002 	and	r3, r3, r2
 518:	e50b301c 	str	r3, [fp, #-28]	; 0xffffffe4
 51c:	e51b2010 	ldr	r2, [fp, #-16]
 520:	e51b3018 	ldr	r3, [fp, #-24]	; 0xffffffe8
 524:	e0823003 	add	r3, r2, r3
 528:	e51b2010 	ldr	r2, [fp, #-16]
 52c:	e1e02002 	mvn	r2, r2
 530:	e0033002 	and	r3, r3, r2
 534:	e51b201c 	ldr	r2, [fp, #-28]	; 0xffffffe4
 538:	e0823003 	add	r3, r2, r3
 53c:	e50b3014 	str	r3, [fp, #-20]	; 0xffffffec
 540:	e51b0014 	ldr	r0, [fp, #-20]	; 0xffffffec
 544:	ebfffffe 	bl	0 <rt_malloc>
 548:	e50b0008 	str	r0, [fp, #-8]
 54c:	e51b3008 	ldr	r3, [fp, #-8]
 550:	e3530000 	cmp	r3, #0
 554:	0a000019 	beq	5c0 <rt_malloc_align+0xe8>
 558:	e51b301c 	ldr	r3, [fp, #-28]	; 0xffffffe4
 55c:	e2432001 	sub	r2, r3, #1
 560:	e51b3008 	ldr	r3, [fp, #-8]
 564:	e0033002 	and	r3, r3, r2
 568:	e3530000 	cmp	r3, #0
 56c:	1a000004 	bne	584 <rt_malloc_align+0xac>
 570:	e51b2008 	ldr	r2, [fp, #-8]
 574:	e51b301c 	ldr	r3, [fp, #-28]	; 0xffffffe4
 578:	e0823003 	add	r3, r2, r3
 57c:	e50b300c 	str	r3, [fp, #-12]
 580:	ea000007 	b	5a4 <rt_malloc_align+0xcc>
 584:	e51b2008 	ldr	r2, [fp, #-8]
 588:	e51b301c 	ldr	r3, [fp, #-28]	; 0xffffffe4
 58c:	e0823003 	add	r3, r2, r3
 590:	e2432001 	sub	r2, r3, #1
 594:	e51b301c 	ldr	r3, [fp, #-28]	; 0xffffffe4
 598:	e2633000 	rsb	r3, r3, #0
 59c:	e0033002 	and	r3, r3, r2
 5a0:	e50b300c 	str	r3, [fp, #-12]
 5a4:	e51b300c 	ldr	r3, [fp, #-12]
 5a8:	e2433004 	sub	r3, r3, #4
 5ac:	e1a02003 	mov	r2, r3
 5b0:	e51b3008 	ldr	r3, [fp, #-8]
 5b4:	e5823000 	str	r3, [r2]
 5b8:	e51b300c 	ldr	r3, [fp, #-12]
 5bc:	e50b3008 	str	r3, [fp, #-8]
 5c0:	e51b3008 	ldr	r3, [fp, #-8]
 5c4:	e1a00003 	mov	r0, r3
 5c8:	e24bd004 	sub	sp, fp, #4
 5cc:	e8bd8800 	pop	{fp, pc}

000005d0 <rt_free_align>:
 5d0:	e92d4800 	push	{fp, lr}
 5d4:	e28db004 	add	fp, sp, #4
 5d8:	e24dd010 	sub	sp, sp, #16
 5dc:	e50b0010 	str	r0, [fp, #-16]
 5e0:	e51b3010 	ldr	r3, [fp, #-16]
 5e4:	e2433004 	sub	r3, r3, #4
 5e8:	e5933000 	ldr	r3, [r3]
 5ec:	e50b3008 	str	r3, [fp, #-8]
 5f0:	e51b0008 	ldr	r0, [fp, #-8]
 5f4:	ebfffffe 	bl	28 <rt_free>
 5f8:	e320f000 	nop	{0}
 5fc:	e24bd004 	sub	sp, fp, #4
 600:	e8bd8800 	pop	{fp, pc}

00000604 <rt_assert_handler>:
 604:	e92d4800 	push	{fp, lr}
 608:	e28db004 	add	fp, sp, #4
 60c:	e24dd010 	sub	sp, sp, #16
 610:	e50b0008 	str	r0, [fp, #-8]
 614:	e50b100c 	str	r1, [fp, #-12]
 618:	e50b2010 	str	r2, [fp, #-16]
 61c:	e51b3010 	ldr	r3, [fp, #-16]
 620:	e51b200c 	ldr	r2, [fp, #-12]
 624:	e51b1008 	ldr	r1, [fp, #-8]
 628:	e3000000 	movw	r0, #0
 62c:	e3400000 	movt	r0, #0
 630:	ebfffffe 	bl	0 <printf>
 634:	e3e00000 	mvn	r0, #0
 638:	ebfffffe 	bl	0 <exit>

Disassembly of section .text:

00000000 <_Znwj>:
   0:	e92d4800 	push	{fp, lr}
   4:	e28db004 	add	fp, sp, #4
   8:	e24dd008 	sub	sp, sp, #8
   c:	e50b0008 	str	r0, [fp, #-8]
  10:	e51b0008 	ldr	r0, [fp, #-8]
  14:	ebfffffe 	bl	0 <malloc>
  18:	e1a03000 	mov	r3, r0
  1c:	e1a00003 	mov	r0, r3
  20:	e24bd004 	sub	sp, fp, #4
  24:	e8bd8800 	pop	{fp, pc}

00000028 <_Znaj>:
  28:	e92d4800 	push	{fp, lr}
  2c:	e28db004 	add	fp, sp, #4
  30:	e24dd008 	sub	sp, sp, #8
  34:	e50b0008 	str	r0, [fp, #-8]
  38:	e51b0008 	ldr	r0, [fp, #-8]
  3c:	ebfffffe 	bl	0 <malloc>
  40:	e1a03000 	mov	r3, r0
  44:	e1a00003 	mov	r0, r3
  48:	e24bd004 	sub	sp, fp, #4
  4c:	e8bd8800 	pop	{fp, pc}

00000050 <_ZdlPv>:
  50:	e92d4800 	push	{fp, lr}
  54:	e28db004 	add	fp, sp, #4
  58:	e24dd008 	sub	sp, sp, #8
  5c:	e50b0008 	str	r0, [fp, #-8]
  60:	e51b0008 	ldr	r0, [fp, #-8]
  64:	ebfffffe 	bl	0 <free>
  68:	e320f000 	nop	{0}
  6c:	e24bd004 	sub	sp, fp, #4
  70:	e8bd8800 	pop	{fp, pc}

00000074 <_ZdaPv>:
  74:	e92d4800 	push	{fp, lr}
  78:	e28db004 	add	fp, sp, #4
  7c:	e24dd008 	sub	sp, sp, #8
  80:	e50b0008 	str	r0, [fp, #-8]
  84:	e51b0008 	ldr	r0, [fp, #-8]
  88:	ebfffffe 	bl	0 <free>
  8c:	e320f000 	nop	{0}
  90:	e24bd004 	sub	sp, fp, #4
  94:	e8bd8800 	pop	{fp, pc}

00000098 <_Z18__cxa_pure_virtualv>:
  98:	e92d4800 	push	{fp, lr}
  9c:	e28db004 	add	fp, sp, #4
  a0:	e3000000 	movw	r0, #0
  a4:	e3400000 	movt	r0, #0
  a8:	ebfffffe 	bl	0 <puts>
  ac:	e320f000 	nop	{0}
  b0:	e8bd8800 	pop	{fp, pc}
