Archive member included to satisfy reference by file (symbol)

/opt/arm-linux-musleabi/bin/../lib/gcc/arm-linux-musleabi/7.3.0/../../../../arm-linux-musleabi/lib/libc_kernel.a(__environ.o)
                              build/kernel/components/libc/compilers/musl/libc.o (__environ)
/opt/arm-linux-musleabi/bin/../lib/gcc/arm-linux-musleabi/7.3.0/../../../../arm-linux-musleabi/lib/libc_kernel.a(getenv.o)
                              build/kernel/components/libc/compilers/musl/libc.o (getenv)
/opt/arm-linux-musleabi/bin/../lib/gcc/arm-linux-musleabi/7.3.0/../../../../arm-linux-musleabi/lib/libc_kernel.a(putenv.o)
                              build/kernel/components/libc/compilers/musl/libc.o (putenv)
/opt/arm-linux-musleabi/bin/../lib/gcc/arm-linux-musleabi/7.3.0/../../../../arm-linux-musleabi/lib/libc_kernel.a(setenv.o)
                              build/kernel/components/libc/compilers/musl/libc.o (setenv)
/opt/arm-linux-musleabi/bin/../lib/gcc/arm-linux-musleabi/7.3.0/../../../../arm-linux-musleabi/lib/libc_kernel.a(unsetenv.o)
                              /opt/arm-linux-musleabi/bin/../lib/gcc/arm-linux-musleabi/7.3.0/../../../../arm-linux-musleabi/lib/libc_kernel.a(putenv.o) (unsetenv)
/opt/arm-linux-musleabi/bin/../lib/gcc/arm-linux-musleabi/7.3.0/../../../../arm-linux-musleabi/lib/libc_kernel.a(fclose.o)
                              build/kernel/components/libc/compilers/musl/stdio.o (fclose)
/opt/arm-linux-musleabi/bin/../lib/gcc/arm-linux-musleabi/7.3.0/../../../../arm-linux-musleabi/lib/libc_kernel.a(fflush.o)
                              /opt/arm-linux-musleabi/bin/../lib/gcc/arm-linux-musleabi/7.3.0/../../../../arm-linux-musleabi/lib/libc_kernel.a(fclose.o) (fflush)
/opt/arm-linux-musleabi/bin/../lib/gcc/arm-linux-musleabi/7.3.0/../../../../arm-linux-musleabi/lib/libc_kernel.a(fileno.o)
                              build/kernel/components/libc/compilers/musl/stdio.o (fileno)
/opt/arm-linux-musleabi/bin/../lib/gcc/arm-linux-musleabi/7.3.0/../../../../arm-linux-musleabi/lib/libc_kernel.a(fopen.o)
                              build/kernel/components/libc/compilers/musl/stdio.o (fopen)
/opt/arm-linux-musleabi/bin/../lib/gcc/arm-linux-musleabi/7.3.0/../../../../arm-linux-musleabi/lib/libc_kernel.a(getchar.o)
                              build/kernel/components/finsh/shell.o (getchar)
/opt/arm-linux-musleabi/bin/../lib/gcc/arm-linux-musleabi/7.3.0/../../../../arm-linux-musleabi/lib/libc_kernel.a(ofl.o)
                              /opt/arm-linux-musleabi/bin/../lib/gcc/arm-linux-musleabi/7.3.0/../../../../arm-linux-musleabi/lib/libc_kernel.a(fclose.o) (__ofl_lock)
/opt/arm-linux-musleabi/bin/../lib/gcc/arm-linux-musleabi/7.3.0/../../../../arm-linux-musleabi/lib/libc_kernel.a(printf.o)
                              build/kernel/components/libc/compilers/musl/libc.o (printf)
/opt/arm-linux-musleabi/bin/../lib/gcc/arm-linux-musleabi/7.3.0/../../../../arm-linux-musleabi/lib/libc_kernel.a(setvbuf.o)
                              build/kernel/components/libc/compilers/musl/stdio.o (setvbuf)
/opt/arm-linux-musleabi/bin/../lib/gcc/arm-linux-musleabi/7.3.0/../../../../arm-linux-musleabi/lib/libc_kernel.a(snprintf.o)
                              build/kernel/components/finsh/msh.o (snprintf)
/opt/arm-linux-musleabi/bin/../lib/gcc/arm-linux-musleabi/7.3.0/../../../../arm-linux-musleabi/lib/libc_kernel.a(stdin.o)
                              /opt/arm-linux-musleabi/bin/../lib/gcc/arm-linux-musleabi/7.3.0/../../../../arm-linux-musleabi/lib/libc_kernel.a(getchar.o) (__stdin_FILE)
/opt/arm-linux-musleabi/bin/../lib/gcc/arm-linux-musleabi/7.3.0/../../../../arm-linux-musleabi/lib/libc_kernel.a(stdout.o)
                              /opt/arm-linux-musleabi/bin/../lib/gcc/arm-linux-musleabi/7.3.0/../../../../arm-linux-musleabi/lib/libc_kernel.a(printf.o) (__stdout_FILE)
/opt/arm-linux-musleabi/bin/../lib/gcc/arm-linux-musleabi/7.3.0/../../../../arm-linux-musleabi/lib/libc_kernel.a(vfprintf.o)
                              /opt/arm-linux-musleabi/bin/../lib/gcc/arm-linux-musleabi/7.3.0/../../../../arm-linux-musleabi/lib/libc_kernel.a(printf.o) (vfprintf)
/opt/arm-linux-musleabi/bin/../lib/gcc/arm-linux-musleabi/7.3.0/../../../../arm-linux-musleabi/lib/libc_kernel.a(vsnprintf.o)
                              /opt/arm-linux-musleabi/bin/../lib/gcc/arm-linux-musleabi/7.3.0/../../../../arm-linux-musleabi/lib/libc_kernel.a(snprintf.o) (vsnprintf)
/opt/arm-linux-musleabi/bin/../lib/gcc/arm-linux-musleabi/7.3.0/../../../../arm-linux-musleabi/lib/libc_kernel.a(atoi.o)
                              build/kernel/components/lwp/lwp_pid.o (atoi)
/opt/arm-linux-musleabi/bin/../lib/gcc/arm-linux-musleabi/7.3.0/../../../../arm-linux-musleabi/lib/libc_kernel.a(memcpy_le.o)
                              build/kernel/src/signal.o (memcpy)
/opt/arm-linux-musleabi/bin/../lib/gcc/arm-linux-musleabi/7.3.0/../../../../arm-linux-musleabi/lib/libc_kernel.a(memcmp.o)
                              build/kernel/components/finsh/shell.o (memcmp)
/opt/arm-linux-musleabi/bin/../lib/gcc/arm-linux-musleabi/7.3.0/../../../../arm-linux-musleabi/lib/libc_kernel.a(memset.o)
                              build/libcpu/page.o (memset)
/opt/arm-linux-musleabi/bin/../lib/gcc/arm-linux-musleabi/7.3.0/../../../../arm-linux-musleabi/lib/libc_kernel.a(stpcpy.o)
                              build/kernel/components/finsh/msh.o (stpcpy)
/opt/arm-linux-musleabi/bin/../lib/gcc/arm-linux-musleabi/7.3.0/../../../../arm-linux-musleabi/lib/libc_kernel.a(strchr.o)
                              build/kernel/components/lwp/lwp_syscall.o (strchr)
/opt/arm-linux-musleabi/bin/../lib/gcc/arm-linux-musleabi/7.3.0/../../../../arm-linux-musleabi/lib/libc_kernel.a(strchrnul.o)
                              /opt/arm-linux-musleabi/bin/../lib/gcc/arm-linux-musleabi/7.3.0/../../../../arm-linux-musleabi/lib/libc_kernel.a(getenv.o) (__strchrnul)
/opt/arm-linux-musleabi/bin/../lib/gcc/arm-linux-musleabi/7.3.0/../../../../arm-linux-musleabi/lib/libc_kernel.a(strcmp.o)
                              build/kernel/components/lwp/lwp.o (strcmp)
/opt/arm-linux-musleabi/bin/../lib/gcc/arm-linux-musleabi/7.3.0/../../../../arm-linux-musleabi/lib/libc_kernel.a(strcpy.o)
                              build/kernel/components/lwp/lwp_syscall.o (strcpy)
/opt/arm-linux-musleabi/bin/../lib/gcc/arm-linux-musleabi/7.3.0/../../../../arm-linux-musleabi/lib/libc_kernel.a(strlen.o)
                              build/kernel/components/finsh/shell.o (strlen)
/opt/arm-linux-musleabi/bin/../lib/gcc/arm-linux-musleabi/7.3.0/../../../../arm-linux-musleabi/lib/libc_kernel.a(strncmp.o)
                              build/kernel/components/finsh/cmd.o (strncmp)
/opt/arm-linux-musleabi/bin/../lib/gcc/arm-linux-musleabi/7.3.0/../../../../arm-linux-musleabi/lib/libc_kernel.a(strncpy.o)
                              build/kernel/components/finsh/shell.o (strncpy)
/opt/arm-linux-musleabi/bin/../lib/gcc/arm-linux-musleabi/7.3.0/../../../../arm-linux-musleabi/lib/libc_kernel.a(strnlen.o)
                              /opt/arm-linux-musleabi/bin/../lib/gcc/arm-linux-musleabi/7.3.0/../../../../arm-linux-musleabi/lib/libc_kernel.a(vfprintf.o) (strnlen)
/opt/arm-linux-musleabi/bin/../lib/gcc/arm-linux-musleabi/7.3.0/../../../../arm-linux-musleabi/lib/libc_kernel.a(strrchr.o)
                              build/kernel/components/lwp/lwp.o (strrchr)
/opt/arm-linux-musleabi/bin/../lib/gcc/arm-linux-musleabi/7.3.0/../../../../arm-linux-musleabi/lib/libc_kernel.a(strstr.o)
                              build/kernel/components/finsh/msh.o (strstr)
/opt/arm-linux-musleabi/bin/../lib/gcc/arm-linux-musleabi/7.3.0/../../../../arm-linux-musleabi/lib/libc_kernel.a(__lock.o)
                              /opt/arm-linux-musleabi/bin/../lib/gcc/arm-linux-musleabi/7.3.0/../../../../arm-linux-musleabi/lib/libc_kernel.a(ofl.o) (__lock)
/opt/arm-linux-musleabi/bin/../lib/gcc/arm-linux-musleabi/7.3.0/../../../../arm-linux-musleabi/lib/libc_kernel.a(atomics.o)
                              /opt/arm-linux-musleabi/bin/../lib/gcc/arm-linux-musleabi/7.3.0/../../../../arm-linux-musleabi/lib/libc_kernel.a(getchar.o) (__a_cas_ptr)
/opt/arm-linux-musleabi/bin/../lib/gcc/arm-linux-musleabi/7.3.0/../../../../arm-linux-musleabi/lib/libc_kernel.a(strerror.o)
                              /opt/arm-linux-musleabi/bin/../lib/gcc/arm-linux-musleabi/7.3.0/../../../../arm-linux-musleabi/lib/libc_kernel.a(vfprintf.o) (strerror)
/opt/arm-linux-musleabi/bin/../lib/gcc/arm-linux-musleabi/7.3.0/../../../../arm-linux-musleabi/lib/libc_kernel.a(rtt_syscall.o)
                              /opt/arm-linux-musleabi/bin/../lib/gcc/arm-linux-musleabi/7.3.0/../../../../arm-linux-musleabi/lib/libc_kernel.a(fopen.o) (get_rtt_syscall)
/opt/arm-linux-musleabi/bin/../lib/gcc/arm-linux-musleabi/7.3.0/../../../../arm-linux-musleabi/lib/libc_kernel.a(syscall.o)
                              /opt/arm-linux-musleabi/bin/../lib/gcc/arm-linux-musleabi/7.3.0/../../../../arm-linux-musleabi/lib/libc_kernel.a(rtt_syscall.o) (syscall)
/opt/arm-linux-musleabi/bin/../lib/gcc/arm-linux-musleabi/7.3.0/../../../../arm-linux-musleabi/lib/libc_kernel.a(libc.o)
                              /opt/arm-linux-musleabi/bin/../lib/gcc/arm-linux-musleabi/7.3.0/../../../../arm-linux-musleabi/lib/libc_kernel.a(__lock.o) (__libc)
/opt/arm-linux-musleabi/bin/../lib/gcc/arm-linux-musleabi/7.3.0/../../../../arm-linux-musleabi/lib/libc_kernel.a(syscall_ret.o)
                              /opt/arm-linux-musleabi/bin/../lib/gcc/arm-linux-musleabi/7.3.0/../../../../arm-linux-musleabi/lib/libc_kernel.a(fopen.o) (__syscall_ret)
/opt/arm-linux-musleabi/bin/../lib/gcc/arm-linux-musleabi/7.3.0/../../../../arm-linux-musleabi/lib/libc_kernel.a(__lctrans.o)
                              /opt/arm-linux-musleabi/bin/../lib/gcc/arm-linux-musleabi/7.3.0/../../../../arm-linux-musleabi/lib/libc_kernel.a(strerror.o) (__lctrans)
/opt/arm-linux-musleabi/bin/../lib/gcc/arm-linux-musleabi/7.3.0/../../../../arm-linux-musleabi/lib/libc_kernel.a(frexpl.o)
                              /opt/arm-linux-musleabi/bin/../lib/gcc/arm-linux-musleabi/7.3.0/../../../../arm-linux-musleabi/lib/libc_kernel.a(vfprintf.o) (frexpl)
/opt/arm-linux-musleabi/bin/../lib/gcc/arm-linux-musleabi/7.3.0/../../../../arm-linux-musleabi/lib/libc_kernel.a(wctomb.o)
                              /opt/arm-linux-musleabi/bin/../lib/gcc/arm-linux-musleabi/7.3.0/../../../../arm-linux-musleabi/lib/libc_kernel.a(vfprintf.o) (wctomb)
/opt/arm-linux-musleabi/bin/../lib/gcc/arm-linux-musleabi/7.3.0/../../../../arm-linux-musleabi/lib/libc_kernel.a(__fdopen.o)
                              /opt/arm-linux-musleabi/bin/../lib/gcc/arm-linux-musleabi/7.3.0/../../../../arm-linux-musleabi/lib/libc_kernel.a(fopen.o) (__fdopen)
/opt/arm-linux-musleabi/bin/../lib/gcc/arm-linux-musleabi/7.3.0/../../../../arm-linux-musleabi/lib/libc_kernel.a(__fmodeflags.o)
                              /opt/arm-linux-musleabi/bin/../lib/gcc/arm-linux-musleabi/7.3.0/../../../../arm-linux-musleabi/lib/libc_kernel.a(fopen.o) (__fmodeflags)
/opt/arm-linux-musleabi/bin/../lib/gcc/arm-linux-musleabi/7.3.0/../../../../arm-linux-musleabi/lib/libc_kernel.a(__lockfile.o)
                              /opt/arm-linux-musleabi/bin/../lib/gcc/arm-linux-musleabi/7.3.0/../../../../arm-linux-musleabi/lib/libc_kernel.a(fclose.o) (__lockfile)
/opt/arm-linux-musleabi/bin/../lib/gcc/arm-linux-musleabi/7.3.0/../../../../arm-linux-musleabi/lib/libc_kernel.a(__stdio_close.o)
                              /opt/arm-linux-musleabi/bin/../lib/gcc/arm-linux-musleabi/7.3.0/../../../../arm-linux-musleabi/lib/libc_kernel.a(stdin.o) (__stdio_close)
/opt/arm-linux-musleabi/bin/../lib/gcc/arm-linux-musleabi/7.3.0/../../../../arm-linux-musleabi/lib/libc_kernel.a(__stdio_read.o)
                              /opt/arm-linux-musleabi/bin/../lib/gcc/arm-linux-musleabi/7.3.0/../../../../arm-linux-musleabi/lib/libc_kernel.a(stdin.o) (__stdio_read)
/opt/arm-linux-musleabi/bin/../lib/gcc/arm-linux-musleabi/7.3.0/../../../../arm-linux-musleabi/lib/libc_kernel.a(__stdio_seek.o)
                              /opt/arm-linux-musleabi/bin/../lib/gcc/arm-linux-musleabi/7.3.0/../../../../arm-linux-musleabi/lib/libc_kernel.a(stdin.o) (__stdio_seek)
/opt/arm-linux-musleabi/bin/../lib/gcc/arm-linux-musleabi/7.3.0/../../../../arm-linux-musleabi/lib/libc_kernel.a(__stdio_write.o)
                              /opt/arm-linux-musleabi/bin/../lib/gcc/arm-linux-musleabi/7.3.0/../../../../arm-linux-musleabi/lib/libc_kernel.a(__fdopen.o) (__stdio_write)
/opt/arm-linux-musleabi/bin/../lib/gcc/arm-linux-musleabi/7.3.0/../../../../arm-linux-musleabi/lib/libc_kernel.a(__stdout_write.o)
                              /opt/arm-linux-musleabi/bin/../lib/gcc/arm-linux-musleabi/7.3.0/../../../../arm-linux-musleabi/lib/libc_kernel.a(stdout.o) (__stdout_write)
/opt/arm-linux-musleabi/bin/../lib/gcc/arm-linux-musleabi/7.3.0/../../../../arm-linux-musleabi/lib/libc_kernel.a(__towrite.o)
                              /opt/arm-linux-musleabi/bin/../lib/gcc/arm-linux-musleabi/7.3.0/../../../../arm-linux-musleabi/lib/libc_kernel.a(vfprintf.o) (__towrite)
/opt/arm-linux-musleabi/bin/../lib/gcc/arm-linux-musleabi/7.3.0/../../../../arm-linux-musleabi/lib/libc_kernel.a(__uflow.o)
                              /opt/arm-linux-musleabi/bin/../lib/gcc/arm-linux-musleabi/7.3.0/../../../../arm-linux-musleabi/lib/libc_kernel.a(getchar.o) (__uflow)
/opt/arm-linux-musleabi/bin/../lib/gcc/arm-linux-musleabi/7.3.0/../../../../arm-linux-musleabi/lib/libc_kernel.a(fwrite.o)
                              /opt/arm-linux-musleabi/bin/../lib/gcc/arm-linux-musleabi/7.3.0/../../../../arm-linux-musleabi/lib/libc_kernel.a(vfprintf.o) (__fwritex)
/opt/arm-linux-musleabi/bin/../lib/gcc/arm-linux-musleabi/7.3.0/../../../../arm-linux-musleabi/lib/libc_kernel.a(ofl_add.o)
                              /opt/arm-linux-musleabi/bin/../lib/gcc/arm-linux-musleabi/7.3.0/../../../../arm-linux-musleabi/lib/libc_kernel.a(__fdopen.o) (__ofl_add)
/opt/arm-linux-musleabi/bin/../lib/gcc/arm-linux-musleabi/7.3.0/../../../../arm-linux-musleabi/lib/libc_kernel.a(memchr.o)
                              /opt/arm-linux-musleabi/bin/../lib/gcc/arm-linux-musleabi/7.3.0/../../../../arm-linux-musleabi/lib/libc_kernel.a(strnlen.o) (memchr)
/opt/arm-linux-musleabi/bin/../lib/gcc/arm-linux-musleabi/7.3.0/../../../../arm-linux-musleabi/lib/libc_kernel.a(memrchr.o)
                              /opt/arm-linux-musleabi/bin/../lib/gcc/arm-linux-musleabi/7.3.0/../../../../arm-linux-musleabi/lib/libc_kernel.a(strrchr.o) (__memrchr)
/opt/arm-linux-musleabi/bin/../lib/gcc/arm-linux-musleabi/7.3.0/../../../../arm-linux-musleabi/lib/libc_kernel.a(stpncpy.o)
                              /opt/arm-linux-musleabi/bin/../lib/gcc/arm-linux-musleabi/7.3.0/../../../../arm-linux-musleabi/lib/libc_kernel.a(strncpy.o) (__stpncpy)
/opt/arm-linux-musleabi/bin/../lib/gcc/arm-linux-musleabi/7.3.0/../../../../arm-linux-musleabi/lib/libc_kernel.a(frexp.o)
                              /opt/arm-linux-musleabi/bin/../lib/gcc/arm-linux-musleabi/7.3.0/../../../../arm-linux-musleabi/lib/libc_kernel.a(frexpl.o) (frexp)
/opt/arm-linux-musleabi/bin/../lib/gcc/arm-linux-musleabi/7.3.0/../../../../arm-linux-musleabi/lib/libc_kernel.a(wcrtomb.o)
                              /opt/arm-linux-musleabi/bin/../lib/gcc/arm-linux-musleabi/7.3.0/../../../../arm-linux-musleabi/lib/libc_kernel.a(wctomb.o) (wcrtomb)
/opt/arm-linux-musleabi/bin/../lib/gcc/arm-linux-musleabi/7.3.0/../../../../arm-linux-musleabi/lib/libc_kernel.a(__stdio_exit.o)
                              /opt/arm-linux-musleabi/bin/../lib/gcc/arm-linux-musleabi/7.3.0/../../../../arm-linux-musleabi/lib/libc_kernel.a(__towrite.o) (__stdio_exit_needed)
/opt/arm-linux-musleabi/bin/../lib/gcc/arm-linux-musleabi/7.3.0/../../../../arm-linux-musleabi/lib/libc_kernel.a(__toread.o)
                              /opt/arm-linux-musleabi/bin/../lib/gcc/arm-linux-musleabi/7.3.0/../../../../arm-linux-musleabi/lib/libc_kernel.a(__uflow.o) (__toread)
/opt/arm-linux-musleabi/bin/../lib/gcc/arm-linux-musleabi/7.3.0/libgcc.a(_udivsi3.o)
                              build/drivers/drv_clock.o (__aeabi_uidiv)
/opt/arm-linux-musleabi/bin/../lib/gcc/arm-linux-musleabi/7.3.0/libgcc.a(_divsi3.o)
                              build/drivers/drv_clock.o (__aeabi_idiv)
/opt/arm-linux-musleabi/bin/../lib/gcc/arm-linux-musleabi/7.3.0/libgcc.a(_arm_addsubdf3.o)
                              /opt/arm-linux-musleabi/bin/../lib/gcc/arm-linux-musleabi/7.3.0/../../../../arm-linux-musleabi/lib/libc_kernel.a(vfprintf.o) (__aeabi_dsub)
/opt/arm-linux-musleabi/bin/../lib/gcc/arm-linux-musleabi/7.3.0/libgcc.a(_arm_muldivdf3.o)
                              /opt/arm-linux-musleabi/bin/../lib/gcc/arm-linux-musleabi/7.3.0/../../../../arm-linux-musleabi/lib/libc_kernel.a(vfprintf.o) (__aeabi_dmul)
/opt/arm-linux-musleabi/bin/../lib/gcc/arm-linux-musleabi/7.3.0/libgcc.a(_arm_cmpdf2.o)
                              /opt/arm-linux-musleabi/bin/../lib/gcc/arm-linux-musleabi/7.3.0/../../../../arm-linux-musleabi/lib/libc_kernel.a(vfprintf.o) (__aeabi_dcmpeq)
/opt/arm-linux-musleabi/bin/../lib/gcc/arm-linux-musleabi/7.3.0/libgcc.a(_arm_fixdfsi.o)
                              /opt/arm-linux-musleabi/bin/../lib/gcc/arm-linux-musleabi/7.3.0/../../../../arm-linux-musleabi/lib/libc_kernel.a(vfprintf.o) (__aeabi_d2iz)
/opt/arm-linux-musleabi/bin/../lib/gcc/arm-linux-musleabi/7.3.0/libgcc.a(_arm_fixunsdfsi.o)
                              /opt/arm-linux-musleabi/bin/../lib/gcc/arm-linux-musleabi/7.3.0/../../../../arm-linux-musleabi/lib/libc_kernel.a(vfprintf.o) (__aeabi_d2uiz)
/opt/arm-linux-musleabi/bin/../lib/gcc/arm-linux-musleabi/7.3.0/libgcc.a(_aeabi_ldivmod.o)
                              /opt/arm-linux-musleabi/bin/../lib/gcc/arm-linux-musleabi/7.3.0/../../../../arm-linux-musleabi/lib/libc_kernel.a(vfprintf.o) (__aeabi_ldivmod)
/opt/arm-linux-musleabi/bin/../lib/gcc/arm-linux-musleabi/7.3.0/libgcc.a(_aeabi_uldivmod.o)
                              build/kernel/components/lwp/lwp_syscall.o (__aeabi_uldivmod)
/opt/arm-linux-musleabi/bin/../lib/gcc/arm-linux-musleabi/7.3.0/libgcc.a(_dvmd_lnx.o)
                              /opt/arm-linux-musleabi/bin/../lib/gcc/arm-linux-musleabi/7.3.0/libgcc.a(_aeabi_ldivmod.o) (__aeabi_ldiv0)
/opt/arm-linux-musleabi/bin/../lib/gcc/arm-linux-musleabi/7.3.0/libgcc.a(_udivmoddi4.o)
                              /opt/arm-linux-musleabi/bin/../lib/gcc/arm-linux-musleabi/7.3.0/libgcc.a(_aeabi_ldivmod.o) (__udivmoddi4)
/opt/arm-linux-musleabi/bin/../lib/gcc/arm-linux-musleabi/7.3.0/../../../../arm-linux-musleabi/lib/libc_kernel.a(raise.o)
                              /opt/arm-linux-musleabi/bin/../lib/gcc/arm-linux-musleabi/7.3.0/libgcc.a(_dvmd_lnx.o) (raise)
/opt/arm-linux-musleabi/bin/../lib/gcc/arm-linux-musleabi/7.3.0/../../../../arm-linux-musleabi/lib/libc_kernel.a(block.o)
                              /opt/arm-linux-musleabi/bin/../lib/gcc/arm-linux-musleabi/7.3.0/../../../../arm-linux-musleabi/lib/libc_kernel.a(raise.o) (__block_app_sigs)

Allocating common symbols
Common symbol       size              file

__hwcap             0x4               /opt/arm-linux-musleabi/bin/../lib/gcc/arm-linux-musleabi/7.3.0/../../../../arm-linux-musleabi/lib/libc_kernel.a(libc.o)
shell               0x4               build/kernel/components/finsh/shell.o
__libc              0x40              /opt/arm-linux-musleabi/bin/../lib/gcc/arm-linux-musleabi/7.3.0/../../../../arm-linux-musleabi/lib/libc_kernel.a(libc.o)
rt_thread_priority_table
                    0x100             build/kernel/src/scheduler.o
rt_object_put_hook  0x4               build/kernel/src/object.o
MMUTable            0x4000            build/libcpu/mmu.o
rt_current_priority
                    0x1               build/kernel/src/scheduler.o
filesystem_table    0x40              build/kernel/components/dfs/src/dfs.o
rt_assert_hook      0x4               build/kernel/src/kservice.o
rt_object_take_hook
                    0x4               build/kernel/src/object.o
rt_current_thread   0x4               build/kernel/src/scheduler.o
rt_thread_ready_priority_group
                    0x4               build/kernel/src/scheduler.o
mmu_info            0x10              build/drivers/board.o
filesystem_operation_table
                    0x20              build/kernel/components/dfs/src/dfs.o
rt_object_trytake_hook
                    0x4               build/kernel/src/object.o
__sysinfo           0x4               /opt/arm-linux-musleabi/bin/../lib/gcc/arm-linux-musleabi/7.3.0/../../../../arm-linux-musleabi/lib/libc_kernel.a(libc.o)

Discarded input sections

 .text          0x0000000000000000        0x0 build/libcpu/backtrace.o
 .data          0x0000000000000000        0x0 build/libcpu/backtrace.o
 .bss           0x0000000000000000        0x0 build/libcpu/backtrace.o
 .text.__aeabi_unwind_cpp_pr0
                0x0000000000000000        0x4 build/libcpu/backtrace.o
 .text.__aeabi_unwind_cpp_pr1
                0x0000000000000000        0x4 build/libcpu/backtrace.o
 .text.__aeabi_unwind_cpp_pr2
                0x0000000000000000        0x4 build/libcpu/backtrace.o
 .text.unwind_backtrace
                0x0000000000000000       0x68 build/libcpu/backtrace.o
 .text.rt_backtrace
                0x0000000000000000       0x94 build/libcpu/backtrace.o
 .text          0x0000000000000000        0x0 build/libcpu/cache.o
 .data          0x0000000000000000        0x0 build/libcpu/cache.o
 .bss           0x0000000000000000        0x0 build/libcpu/cache.o
 .text.rt_hw_cpu_icache_invalidate
                0x0000000000000000       0x4c build/libcpu/cache.o
 .text.rt_hw_cpu_dcache_invalidate
                0x0000000000000000       0x4c build/libcpu/cache.o
 .text.rt_hw_cpu_dcache_clean_and_invalidate
                0x0000000000000000       0x50 build/libcpu/cache.o
 .text.rt_hw_cpu_icache_status
                0x0000000000000000        0xc build/libcpu/cache.o
 .text.rt_hw_cpu_dcache_status
                0x0000000000000000        0xc build/libcpu/cache.o
 .text          0x0000000000000000        0x0 build/libcpu/cpu.o
 .data          0x0000000000000000        0x0 build/libcpu/cpu.o
 .bss           0x0000000000000000        0x0 build/libcpu/cpu.o
 .text          0x0000000000000000        0x0 build/libcpu/cpuport.o
 .data          0x0000000000000000        0x0 build/libcpu/cpuport.o
 .bss           0x0000000000000000        0x0 build/libcpu/cpuport.o
 .text.rt_hw_cpu_id
                0x0000000000000000        0x8 build/libcpu/cpuport.o
 .text.rt_hw_cpu_reset
                0x0000000000000000       0x18 build/libcpu/cpuport.o
 .rodata.rt_hw_cpu_reset.str1.4
                0x0000000000000000       0x16 build/libcpu/cpuport.o
 .text          0x0000000000000000        0x0 build/libcpu/interrupt.o
 .data          0x0000000000000000        0x0 build/libcpu/interrupt.o
 .bss           0x0000000000000000        0x0 build/libcpu/interrupt.o
 .text.rt_hw_kernel_virt_to_phys
                0x0000000000000000       0x34 build/libcpu/interrupt.o
 .text          0x0000000000000000        0x0 build/libcpu/mmu.o
 .data          0x0000000000000000        0x0 build/libcpu/mmu.o
 .bss           0x0000000000000000        0x0 build/libcpu/mmu.o
 .text.rt_hw_cpu_dump_page_table_2nd
                0x0000000000000000      0x108 build/libcpu/mmu.o
 .text.rt_hw_cpu_dump_page_table
                0x0000000000000000      0x170 build/libcpu/mmu.o
 .text.rt_hw_mmu_setmtt
                0x0000000000000000       0x70 build/libcpu/mmu.o
 .text.rt_hw_set_domain_register
                0x0000000000000000       0x10 build/libcpu/mmu.o
 .text._rt_hw_mmu_unmap
                0x0000000000000000      0x110 build/libcpu/mmu.o
 .text._rt_hw_mmu_v2p
                0x0000000000000000       0x8c build/libcpu/mmu.o
 .rodata.rt_hw_cpu_dump_page_table.str1.4
                0x0000000000000000       0xa4 build/libcpu/mmu.o
 .rodata.rt_hw_cpu_dump_page_table_2nd.str1.4
                0x0000000000000000       0x5e build/libcpu/mmu.o
 .text          0x0000000000000000        0x0 build/libcpu/page.o
 .data          0x0000000000000000        0x0 build/libcpu/page.o
 .bss           0x0000000000000000        0x0 build/libcpu/page.o
 .text.rt_clz   0x0000000000000000       0x74 build/libcpu/page.o
 .text.rt_ctz   0x0000000000000000       0x28 build/libcpu/page.o
 .text.rt_page_get_info
                0x0000000000000000       0x70 build/libcpu/page.o
 .text          0x0000000000000000        0x0 build/libcpu/rt_low_level_init.o
 .data          0x0000000000000000        0x0 build/libcpu/rt_low_level_init.o
 .bss           0x0000000000000000        0x0 build/libcpu/rt_low_level_init.o
 .text          0x0000000000000000        0x0 build/libcpu/stack.o
 .data          0x0000000000000000        0x0 build/libcpu/stack.o
 .bss           0x0000000000000000        0x0 build/libcpu/stack.o
 .text          0x0000000000000000        0x0 build/libcpu/trap.o
 .data          0x0000000000000000        0x0 build/libcpu/trap.o
 .bss           0x0000000000000000        0x0 build/libcpu/trap.o
 .text.check_user_fault
                0x0000000000000000       0x3c build/libcpu/trap.o
 .text.check_user_stack
                0x0000000000000000       0x28 build/libcpu/trap.o
 .text.rt_hw_show_register
                0x0000000000000000       0xd0 build/libcpu/trap.o
 .data          0x0000000000000000        0x0 build/libcpu/context_gcc.o
 .bss           0x0000000000000000        0x0 build/libcpu/context_gcc.o
 .bss.share.isr
                0x0000000000000000        0x4 build/libcpu/context_gcc.o
 .text          0x0000000000000000       0x9c build/libcpu/cp15_gcc.o
 .data          0x0000000000000000        0x0 build/libcpu/cp15_gcc.o
 .bss           0x0000000000000000        0x0 build/libcpu/cp15_gcc.o
 .ARM.attributes
                0x0000000000000000       0x22 build/libcpu/cp15_gcc.o
 .data          0x0000000000000000        0x0 build/libcpu/mmu_gcc.o
 .bss           0x0000000000000000        0x0 build/libcpu/mmu_gcc.o
 .bss           0x0000000000000000        0x0 build/libcpu/start_gcc.o
 .text          0x0000000000000000        0x0 build/drivers/board.o
 .data          0x0000000000000000        0x0 build/drivers/board.o
 .bss           0x0000000000000000        0x0 build/drivers/board.o
 .text.rt_hw_kernel_virt_to_phys
                0x0000000000000000       0x34 build/drivers/board.o
 .text.os_clock_init
                0x0000000000000000       0x9c build/drivers/board.o
 .text          0x0000000000000000        0x0 build/drivers/drv_clock.o
 .data          0x0000000000000000        0x0 build/drivers/drv_clock.o
 .bss           0x0000000000000000        0x0 build/drivers/drv_clock.o
 .text.rt_hw_kernel_virt_to_phys
                0x0000000000000000       0x34 build/drivers/drv_clock.o
 .text.cpu_get_pll_clk
                0x0000000000000000       0x6c build/drivers/drv_clock.o
 .text.audio_get_pll_clk
                0x0000000000000000       0x4c build/drivers/drv_clock.o
 .text.video_get_pll_clk
                0x0000000000000000       0x70 build/drivers/drv_clock.o
 .text.ve_get_pll_clk
                0x0000000000000000       0x70 build/drivers/drv_clock.o
 .text.ddr_get_pll_clk
                0x0000000000000000       0x5c build/drivers/drv_clock.o
 .text.periph_get_pll_clk
                0x0000000000000000       0x48 build/drivers/drv_clock.o
 .text.cpu_get_clk
                0x0000000000000000       0xb4 build/drivers/drv_clock.o
 .text.ahb_get_clk
                0x0000000000000000      0x154 build/drivers/drv_clock.o
 .text.cpu_set_pll_clk
                0x0000000000000000       0xe8 build/drivers/drv_clock.o
 .text.audio_set_pll_clk
                0x0000000000000000      0x134 build/drivers/drv_clock.o
 .text.video_set_pll_clk
                0x0000000000000000      0x11c build/drivers/drv_clock.o
 .text.ve_set_pll_clk
                0x0000000000000000      0x11c build/drivers/drv_clock.o
 .text.periph_set_pll_clk
                0x0000000000000000       0x58 build/drivers/drv_clock.o
 .text.cpu_set_clk
                0x0000000000000000      0x1c4 build/drivers/drv_clock.o
 .text.bus_gate_clk_disalbe
                0x0000000000000000       0x80 build/drivers/drv_clock.o
 .text.mmc_set_clk
                0x0000000000000000      0x16c build/drivers/drv_clock.o
 .text.dram_gate_clk_enable
                0x0000000000000000       0x24 build/drivers/drv_clock.o
 .text.dram_gate_clk_disable
                0x0000000000000000       0x24 build/drivers/drv_clock.o
 .text          0x0000000000000000        0x0 build/drivers/drv_gpio.o
 .data          0x0000000000000000        0x0 build/drivers/drv_gpio.o
 .bss           0x0000000000000000        0x0 build/drivers/drv_gpio.o
 .text.rt_hw_kernel_virt_to_phys
                0x0000000000000000       0x34 build/drivers/drv_gpio.o
 .text.gpio_set_value
                0x0000000000000000       0xc4 build/drivers/drv_gpio.o
 .text.gpio_get_value
                0x0000000000000000       0x74 build/drivers/drv_gpio.o
 .text.gpio_set_pull_mode
                0x0000000000000000       0xd8 build/drivers/drv_gpio.o
 .text.gpio_set_drive_level
                0x0000000000000000       0xfc build/drivers/drv_gpio.o
 .text.gpio_direction_input
                0x0000000000000000       0x94 build/drivers/drv_gpio.o
 .text.gpio_direction_output
                0x0000000000000000      0x164 build/drivers/drv_gpio.o
 .text.gpio_select_irq_clock
                0x0000000000000000       0x58 build/drivers/drv_gpio.o
 .text.gpio_set_debounce
                0x0000000000000000       0x58 build/drivers/drv_gpio.o
 .text.gpio_irq_enable
                0x0000000000000000       0xe8 build/drivers/drv_gpio.o
 .text.gpio_irq_disable
                0x0000000000000000       0x94 build/drivers/drv_gpio.o
 .text.gpio_set_irq_type
                0x0000000000000000       0x98 build/drivers/drv_gpio.o
 .text.gpio_set_irq_callback
                0x0000000000000000       0x78 build/drivers/drv_gpio.o
 .text.gpio_clear_irq_callback
                0x0000000000000000       0xb0 build/drivers/drv_gpio.o
 .rodata.__FUNCTION__.8162
                0x0000000000000000        0xf build/drivers/drv_gpio.o
 .rodata.__FUNCTION__.8170
                0x0000000000000000        0xf build/drivers/drv_gpio.o
 .rodata.__FUNCTION__.8179
                0x0000000000000000       0x13 build/drivers/drv_gpio.o
 .rodata.__FUNCTION__.8188
                0x0000000000000000       0x15 build/drivers/drv_gpio.o
 .rodata.__FUNCTION__.8196
                0x0000000000000000       0x15 build/drivers/drv_gpio.o
 .rodata.__FUNCTION__.8205
                0x0000000000000000       0x16 build/drivers/drv_gpio.o
 .rodata.__FUNCTION__.8218
                0x0000000000000000       0x16 build/drivers/drv_gpio.o
 .rodata.__FUNCTION__.8225
                0x0000000000000000       0x12 build/drivers/drv_gpio.o
 .rodata.__FUNCTION__.8233
                0x0000000000000000       0x10 build/drivers/drv_gpio.o
 .rodata.__FUNCTION__.8241
                0x0000000000000000       0x11 build/drivers/drv_gpio.o
 .rodata.__FUNCTION__.8250
                0x0000000000000000       0x12 build/drivers/drv_gpio.o
 .rodata.__FUNCTION__.8259
                0x0000000000000000       0x16 build/drivers/drv_gpio.o
 .rodata.gpio_select_irq_clock.str1.4
                0x0000000000000000       0x2f build/drivers/drv_gpio.o
 .text          0x0000000000000000        0x0 build/drivers/drv_uart.o
 .data          0x0000000000000000        0x0 build/drivers/drv_uart.o
 .bss           0x0000000000000000        0x0 build/drivers/drv_uart.o
 .text.rt_hw_kernel_virt_to_phys
                0x0000000000000000       0x34 build/drivers/drv_uart.o
 .text          0x0000000000000000        0x0 build/drivers/drv_wdg.o
 .data          0x0000000000000000        0x0 build/drivers/drv_wdg.o
 .bss           0x0000000000000000        0x0 build/drivers/drv_wdg.o
 .text.rt_hw_kernel_virt_to_phys
                0x0000000000000000       0x34 build/drivers/drv_wdg.o
 .text.hw_watchdog_stop
                0x0000000000000000       0x24 build/drivers/drv_wdg.o
 .text          0x0000000000000000        0x0 build/applications/main.o
 .data          0x0000000000000000        0x0 build/applications/main.o
 .bss           0x0000000000000000        0x0 build/applications/main.o
 .text          0x0000000000000000        0x0 build/kernel/src/clock.o
 .data          0x0000000000000000        0x0 build/kernel/src/clock.o
 .bss           0x0000000000000000        0x0 build/kernel/src/clock.o
 .text.rt_system_tick_init
                0x0000000000000000        0x4 build/kernel/src/clock.o
 .text.rt_tick_set
                0x0000000000000000       0x20 build/kernel/src/clock.o
 .text          0x0000000000000000        0x0 build/kernel/src/components.o
 .data          0x0000000000000000        0x0 build/kernel/src/components.o
 .bss           0x0000000000000000        0x0 build/kernel/src/components.o
 .text.rt_components_init
                0x0000000000000000       0x44 build/kernel/src/components.o
 .text.entry    0x0000000000000000       0x90 build/kernel/src/components.o
 .text.rt_application_init
                0x0000000000000000       0x74 build/kernel/src/components.o
 .text          0x0000000000000000        0x0 build/kernel/src/device.o
 .data          0x0000000000000000        0x0 build/kernel/src/device.o
 .bss           0x0000000000000000        0x0 build/kernel/src/device.o
 .text.rt_device_init_all
                0x0000000000000000        0x8 build/kernel/src/device.o
 .text.rt_device_create
                0x0000000000000000       0x38 build/kernel/src/device.o
 .text.rt_device_destroy
                0x0000000000000000       0x84 build/kernel/src/device.o
 .text.rt_device_set_tx_complete
                0x0000000000000000       0x60 build/kernel/src/device.o
 .rodata.__FUNCTION__.6150
                0x0000000000000000       0x12 build/kernel/src/device.o
 .rodata.__FUNCTION__.6200
                0x0000000000000000       0x1a build/kernel/src/device.o
 .rodata.rt_device_destroy.str1.4
                0x0000000000000000       0x34 build/kernel/src/device.o
 .text          0x0000000000000000        0x0 build/kernel/src/idle.o
 .data          0x0000000000000000        0x0 build/kernel/src/idle.o
 .bss           0x0000000000000000        0x0 build/kernel/src/idle.o
 .text.rt_thread_idle_sethook
                0x0000000000000000       0x70 build/kernel/src/idle.o
 .text.rt_thread_idle_delhook
                0x0000000000000000       0x78 build/kernel/src/idle.o
 .text.rt_thread_defunct_dequeue
                0x0000000000000000       0x3c build/kernel/src/idle.o
 .text.rt_thread_idle_gethandler
                0x0000000000000000        0xc build/kernel/src/idle.o
 .text          0x0000000000000000        0x0 build/kernel/src/ipc.o
 .data          0x0000000000000000        0x0 build/kernel/src/ipc.o
 .bss           0x0000000000000000        0x0 build/kernel/src/ipc.o
 .text.rt_sem_detach
                0x0000000000000000       0xc0 build/kernel/src/ipc.o
 .text.rt_sem_take_killable
                0x0000000000000000      0x264 build/kernel/src/ipc.o
 .text.rt_sem_control
                0x0000000000000000       0xc8 build/kernel/src/ipc.o
 .text.rt_mutex_take_killable
                0x0000000000000000      0x2ec build/kernel/src/ipc.o
 .text.rt_mutex_control
                0x0000000000000000       0x58 build/kernel/src/ipc.o
 .text.rt_event_init
                0x0000000000000000       0x60 build/kernel/src/ipc.o
 .text.rt_event_detach
                0x0000000000000000       0xcc build/kernel/src/ipc.o
 .text.rt_event_recv_interruptible
                0x0000000000000000      0x30c build/kernel/src/ipc.o
 .text.rt_event_recv_killable
                0x0000000000000000      0x30c build/kernel/src/ipc.o
 .text.rt_event_control
                0x0000000000000000       0xcc build/kernel/src/ipc.o
 .text.rt_mb_init
                0x0000000000000000       0x84 build/kernel/src/ipc.o
 .text.rt_mb_detach
                0x0000000000000000      0x10c build/kernel/src/ipc.o
 .text.rt_mb_send_wait_interruptible
                0x0000000000000000        0x8 build/kernel/src/ipc.o
 .text.rt_mb_send_wait_killable
                0x0000000000000000        0x8 build/kernel/src/ipc.o
 .text.rt_mb_send_interruptible
                0x0000000000000000        0xc build/kernel/src/ipc.o
 .text.rt_mb_send_killable
                0x0000000000000000        0xc build/kernel/src/ipc.o
 .text.rt_mb_recv_interruptibale
                0x0000000000000000        0x8 build/kernel/src/ipc.o
 .text.rt_mb_recv_killable
                0x0000000000000000        0x8 build/kernel/src/ipc.o
 .text.rt_mb_control
                0x0000000000000000      0x114 build/kernel/src/ipc.o
 .text.rt_mq_init
                0x0000000000000000       0xec build/kernel/src/ipc.o
 .text.rt_mq_detach
                0x0000000000000000      0x10c build/kernel/src/ipc.o
 .text.rt_mq_send_wait
                0x0000000000000000       0x1c build/kernel/src/ipc.o
 .text.rt_mq_send_wait_interruptible
                0x0000000000000000       0x1c build/kernel/src/ipc.o
 .text.rt_mq_send_wait_killable
                0x0000000000000000       0x1c build/kernel/src/ipc.o
 .text.rt_mq_send_interrupt
                0x0000000000000000       0x1c build/kernel/src/ipc.o
 .text.rt_mq_send_killable
                0x0000000000000000       0x20 build/kernel/src/ipc.o
 .text.rt_mq_recv_interruptible
                0x0000000000000000       0x1c build/kernel/src/ipc.o
 .text.rt_mq_recv_killable
                0x0000000000000000       0x1c build/kernel/src/ipc.o
 .text.rt_mq_control
                0x0000000000000000      0x168 build/kernel/src/ipc.o
 .rodata.__FUNCTION__.5883
                0x0000000000000000        0xe build/kernel/src/ipc.o
 .rodata.__FUNCTION__.5935
                0x0000000000000000        0xf build/kernel/src/ipc.o
 .rodata.__FUNCTION__.5996
                0x0000000000000000       0x11 build/kernel/src/ipc.o
 .rodata.__FUNCTION__.6002
                0x0000000000000000        0xe build/kernel/src/ipc.o
 .rodata.__FUNCTION__.6006
                0x0000000000000000       0x10 build/kernel/src/ipc.o
 .rodata.__FUNCTION__.6074
                0x0000000000000000       0x11 build/kernel/src/ipc.o
 .rodata.__FUNCTION__.6082
                0x0000000000000000        0xb build/kernel/src/ipc.o
 .rodata.__FUNCTION__.6086
                0x0000000000000000        0xd build/kernel/src/ipc.o
 .rodata.__FUNCTION__.6180
                0x0000000000000000        0xe build/kernel/src/ipc.o
 .rodata.__FUNCTION__.6193
                0x0000000000000000        0xb build/kernel/src/ipc.o
 .rodata.__FUNCTION__.6200
                0x0000000000000000        0xd build/kernel/src/ipc.o
 .rodata.__FUNCTION__.6322
                0x0000000000000000        0xe build/kernel/src/ipc.o
 .rodata.rt_mb_detach.str1.4
                0x0000000000000000       0x2e build/kernel/src/ipc.o
 .rodata.rt_mq_detach.str1.4
                0x0000000000000000       0x2e build/kernel/src/ipc.o
 .text          0x0000000000000000        0x0 build/kernel/src/irq.o
 .data          0x0000000000000000        0x0 build/kernel/src/irq.o
 .bss           0x0000000000000000        0x0 build/kernel/src/irq.o
 .text.rt_interrupt_enter_sethook
                0x0000000000000000       0x10 build/kernel/src/irq.o
 .text.rt_interrupt_leave_sethook
                0x0000000000000000       0x10 build/kernel/src/irq.o
 .text          0x0000000000000000        0x0 build/kernel/src/kservice.o
 .data          0x0000000000000000        0x0 build/kernel/src/kservice.o
 .bss           0x0000000000000000        0x0 build/kernel/src/kservice.o
 .text.rt_memcmp
                0x0000000000000000       0x50 build/kernel/src/kservice.o
 .text.rt_strstr
                0x0000000000000000       0x94 build/kernel/src/kservice.o
 .text.rt_strcasecmp
                0x0000000000000000       0x58 build/kernel/src/kservice.o
 .text.rt_strnlen
                0x0000000000000000       0x44 build/kernel/src/kservice.o
 .text.rt_vsprintf
                0x0000000000000000       0x10 build/kernel/src/kservice.o
 .text.rt_kputs
                0x0000000000000000       0x6c build/kernel/src/kservice.o
 .text.rt_malloc_align
                0x0000000000000000       0x48 build/kernel/src/kservice.o
 .text.rt_assert_set_hook
                0x0000000000000000       0x10 build/kernel/src/kservice.o
 .text          0x0000000000000000        0x0 build/kernel/src/memheap.o
 .data          0x0000000000000000        0x0 build/kernel/src/memheap.o
 .bss           0x0000000000000000        0x0 build/kernel/src/memheap.o
 .text.rt_memheap_init
                0x0000000000000000       0xf8 build/kernel/src/memheap.o
 .text.rt_memheap_detach
                0x0000000000000000       0x88 build/kernel/src/memheap.o
 .text.rt_memheap_alloc
                0x0000000000000000      0x1c4 build/kernel/src/memheap.o
 .text.rt_memheap_free
                0x0000000000000000      0x1d0 build/kernel/src/memheap.o
 .text.rt_memheap_realloc
                0x0000000000000000      0x2d8 build/kernel/src/memheap.o
 .rodata.__FUNCTION__.5843
                0x0000000000000000       0x10 build/kernel/src/memheap.o
 .rodata.__FUNCTION__.5847
                0x0000000000000000       0x12 build/kernel/src/memheap.o
 .rodata.__FUNCTION__.5855
                0x0000000000000000       0x11 build/kernel/src/memheap.o
 .rodata.__FUNCTION__.5869
                0x0000000000000000       0x13 build/kernel/src/memheap.o
 .rodata.__FUNCTION__.5882
                0x0000000000000000       0x10 build/kernel/src/memheap.o
 .rodata.rt_memheap_alloc.str1.4
                0x0000000000000000       0x10 build/kernel/src/memheap.o
 .rodata.rt_memheap_detach.str1.4
                0x0000000000000000       0x71 build/kernel/src/memheap.o
 .rodata.rt_memheap_free.str1.4
                0x0000000000000000       0xa0 build/kernel/src/memheap.o
 .rodata.rt_memheap_init.str1.4
                0x0000000000000000       0x13 build/kernel/src/memheap.o
 .rodata.rt_memheap_realloc.str1.4
                0x0000000000000000       0x16 build/kernel/src/memheap.o
 .comment       0x0000000000000000       0x12 build/kernel/src/memheap.o
 .note.GNU-stack
                0x0000000000000000        0x0 build/kernel/src/memheap.o
 .ARM.attributes
                0x0000000000000000       0x32 build/kernel/src/memheap.o
 .text          0x0000000000000000        0x0 build/kernel/src/mempool.o
 .data          0x0000000000000000        0x0 build/kernel/src/mempool.o
 .bss           0x0000000000000000        0x0 build/kernel/src/mempool.o
 .text.rt_mp_alloc_sethook
                0x0000000000000000       0x10 build/kernel/src/mempool.o
 .text.rt_mp_free_sethook
                0x0000000000000000       0x10 build/kernel/src/mempool.o
 .text.rt_mp_init
                0x0000000000000000      0x134 build/kernel/src/mempool.o
 .text.rt_mp_detach
                0x0000000000000000       0xc4 build/kernel/src/mempool.o
 .text.rt_mp_delete
                0x0000000000000000      0x128 build/kernel/src/mempool.o
 .text.rt_mp_alloc
                0x0000000000000000      0x200 build/kernel/src/mempool.o
 .bss.rt_mp_alloc_hook
                0x0000000000000000        0x4 build/kernel/src/mempool.o
 .rodata.__FUNCTION__.5861
                0x0000000000000000        0xb build/kernel/src/mempool.o
 .rodata.__FUNCTION__.5870
                0x0000000000000000        0xd build/kernel/src/mempool.o
 .rodata.__FUNCTION__.5893
                0x0000000000000000        0xd build/kernel/src/mempool.o
 .rodata.__FUNCTION__.5905
                0x0000000000000000        0xc build/kernel/src/mempool.o
 .rodata.rt_mp_alloc.str1.4
                0x0000000000000000       0x15 build/kernel/src/mempool.o
 .rodata.rt_mp_delete.str1.4
                0x0000000000000000       0x33 build/kernel/src/mempool.o
 .rodata.rt_mp_detach.str1.4
                0x0000000000000000       0x63 build/kernel/src/mempool.o
 .text          0x0000000000000000        0x0 build/kernel/src/object.o
 .data          0x0000000000000000        0x0 build/kernel/src/object.o
 .bss           0x0000000000000000        0x0 build/kernel/src/object.o
 .text.rt_object_attach_sethook
                0x0000000000000000       0x10 build/kernel/src/object.o
 .text.rt_object_detach_sethook
                0x0000000000000000       0x10 build/kernel/src/object.o
 .text.rt_object_trytake_sethook
                0x0000000000000000       0x10 build/kernel/src/object.o
 .text.rt_object_take_sethook
                0x0000000000000000       0x10 build/kernel/src/object.o
 .text.rt_object_put_sethook
                0x0000000000000000       0x10 build/kernel/src/object.o
 .text.rt_system_object_init
                0x0000000000000000        0x4 build/kernel/src/object.o
 .text.rt_object_find
                0x0000000000000000      0x1c4 build/kernel/src/object.o
 .rodata.__FUNCTION__.7970
                0x0000000000000000        0xf build/kernel/src/object.o
 .text          0x0000000000000000        0x0 build/kernel/src/scheduler.o
 .data          0x0000000000000000        0x0 build/kernel/src/scheduler.o
 .bss           0x0000000000000000        0x0 build/kernel/src/scheduler.o
 .text.rt_scheduler_sethook
                0x0000000000000000       0x10 build/kernel/src/scheduler.o
 .text.rt_critical_level
                0x0000000000000000       0x10 build/kernel/src/scheduler.o
 .text          0x0000000000000000        0x0 build/kernel/src/signal.o
 .data          0x0000000000000000        0x0 build/kernel/src/signal.o
 .bss           0x0000000000000000        0x0 build/kernel/src/signal.o
 .text._signal_default_handler
                0x0000000000000000        0x4 build/kernel/src/signal.o
 .text.rt_signal_install
                0x0000000000000000       0xdc build/kernel/src/signal.o
 .text.rt_signal_mask
                0x0000000000000000       0x2c build/kernel/src/signal.o
 .text.rt_signal_wait
                0x0000000000000000      0x268 build/kernel/src/signal.o
 .text._signal_entry
                0x0000000000000000       0x3c build/kernel/src/signal.o
 .text.rt_signal_unmask
                0x0000000000000000      0x110 build/kernel/src/signal.o
 .text.rt_thread_alloc_sig
                0x0000000000000000       0x60 build/kernel/src/signal.o
 .text.rt_thread_kill
                0x0000000000000000      0x260 build/kernel/src/signal.o
 .rodata.__FUNCTION__.6056
                0x0000000000000000        0xf build/kernel/src/signal.o
 .rodata.__FUNCTION__.6084
                0x0000000000000000       0x14 build/kernel/src/signal.o
 .rodata.__FUNCTION__.6105
                0x0000000000000000        0xf build/kernel/src/signal.o
 .rodata.rt_signal_install.str1.4
                0x0000000000000000       0x13 build/kernel/src/signal.o
 .text          0x0000000000000000        0x0 build/kernel/src/slab.o
 .data          0x0000000000000000        0x0 build/kernel/src/slab.o
 .bss           0x0000000000000000        0x0 build/kernel/src/slab.o
 .text.rt_malloc_sethook
                0x0000000000000000       0x10 build/kernel/src/slab.o
 .text.rt_free_sethook
                0x0000000000000000       0x10 build/kernel/src/slab.o
 .text.rt_page_alloc
                0x0000000000000000       0x94 build/kernel/src/slab.o
 .text.rt_memory_info
                0x0000000000000000       0x54 build/kernel/src/slab.o
 .text          0x0000000000000000        0x0 build/kernel/src/thread.o
 .data          0x0000000000000000        0x0 build/kernel/src/thread.o
 .bss           0x0000000000000000        0x0 build/kernel/src/thread.o
 .text.rt_thread_suspend_sethook
                0x0000000000000000       0x10 build/kernel/src/thread.o
 .text.rt_thread_resume_sethook
                0x0000000000000000       0x10 build/kernel/src/thread.o
 .text.rt_thread_inited_sethook
                0x0000000000000000       0x10 build/kernel/src/thread.o
 .text.rt_thread_yield
                0x0000000000000000       0x40 build/kernel/src/thread.o
 .text.rt_thread_sleep
                0x0000000000000000      0x1c0 build/kernel/src/thread.o
 .text.rt_thread_delay_until
                0x0000000000000000      0x110 build/kernel/src/thread.o
 .text.rt_thread_suspend
                0x0000000000000000      0x11c build/kernel/src/thread.o
 .rodata.__FUNCTION__.5933
                0x0000000000000000       0x16 build/kernel/src/thread.o
 .rodata.rt_thread_delay_until.str1.4
                0x0000000000000000       0x10 build/kernel/src/thread.o
 .text          0x0000000000000000        0x0 build/kernel/src/timer.o
 .data          0x0000000000000000        0x0 build/kernel/src/timer.o
 .bss           0x0000000000000000        0x0 build/kernel/src/timer.o
 .text.rt_timer_enter_sethook
                0x0000000000000000       0x10 build/kernel/src/timer.o
 .text.rt_timer_exit_sethook
                0x0000000000000000       0x10 build/kernel/src/timer.o
 .text.rt_timer_next_timeout_tick
                0x0000000000000000       0x2c build/kernel/src/timer.o
 .text          0x0000000000000000        0x0 build/kernel/components/lwp/ioremap.o
 .data          0x0000000000000000        0x0 build/kernel/components/lwp/ioremap.o
 .bss           0x0000000000000000        0x0 build/kernel/components/lwp/ioremap.o
 .text.rt_ioremap_nocache
                0x0000000000000000       0xd0 build/kernel/components/lwp/ioremap.o
 .text.rt_ioremap_cached
                0x0000000000000000       0xd0 build/kernel/components/lwp/ioremap.o
 .text.rt_iounmap
                0x0000000000000000       0xa8 build/kernel/components/lwp/ioremap.o
 .text          0x0000000000000000        0x0 build/kernel/components/lwp/lwp.o
 .data          0x0000000000000000        0x0 build/kernel/components/lwp/lwp.o
 .bss           0x0000000000000000        0x0 build/kernel/components/lwp/lwp.o
 .text.lwp_set_kernel_sp
                0x0000000000000000       0x14 build/kernel/components/lwp/lwp.o
 .text.lwp_get_kernel_sp
                0x0000000000000000       0x10 build/kernel/components/lwp/lwp.o
 .text          0x0000000000000000        0x0 build/kernel/components/lwp/lwp_avl.o
 .data          0x0000000000000000        0x0 build/kernel/components/lwp/lwp_avl.o
 .bss           0x0000000000000000        0x0 build/kernel/components/lwp/lwp_avl.o
 .text          0x0000000000000000        0x0 build/kernel/components/lwp/lwp_console.o
 .data          0x0000000000000000        0x0 build/kernel/components/lwp/lwp_console.o
 .bss           0x0000000000000000        0x0 build/kernel/components/lwp/lwp_console.o
 .text.rt_console_get_iodev
                0x0000000000000000       0x20 build/kernel/components/lwp/lwp_console.o
 .text          0x0000000000000000        0x0 build/kernel/components/lwp/lwp_futex.o
 .data          0x0000000000000000        0x0 build/kernel/components/lwp/lwp_futex.o
 .bss           0x0000000000000000        0x0 build/kernel/components/lwp/lwp_futex.o
 .text.futex_create
                0x0000000000000000       0x8c build/kernel/components/lwp/lwp_futex.o
 .text.futex_wait
                0x0000000000000000       0xec build/kernel/components/lwp/lwp_futex.o
 .text.futex_wake
                0x0000000000000000       0x94 build/kernel/components/lwp/lwp_futex.o
 .text          0x0000000000000000        0x0 build/kernel/components/lwp/lwp_ipc.o
 .data          0x0000000000000000        0x0 build/kernel/components/lwp/lwp_ipc.o
 .bss           0x0000000000000000        0x0 build/kernel/components/lwp/lwp_ipc.o
 .text.rt_raw_channel_send
                0x0000000000000000      0x198 build/kernel/components/lwp/lwp_ipc.o
 .text.rt_raw_channel_send_recv
                0x0000000000000000      0x3f8 build/kernel/components/lwp/lwp_ipc.o
 .text.rt_raw_channel_send_recv_timeout
                0x0000000000000000      0x3f4 build/kernel/components/lwp/lwp_ipc.o
 .text.rt_raw_channel_reply
                0x0000000000000000      0x140 build/kernel/components/lwp/lwp_ipc.o
 .text.rt_raw_channel_recv
                0x0000000000000000      0x2b8 build/kernel/components/lwp/lwp_ipc.o
 .text.rt_raw_channel_recv_timeout
                0x0000000000000000      0x2b4 build/kernel/components/lwp/lwp_ipc.o
 .text.rt_raw_channel_peek
                0x0000000000000000      0x2b8 build/kernel/components/lwp/lwp_ipc.o
 .text.rt_channel_open
                0x0000000000000000       0xf0 build/kernel/components/lwp/lwp_ipc.o
 .text.rt_channel_close
                0x0000000000000000       0x90 build/kernel/components/lwp/lwp_ipc.o
 .text.rt_channel_send
                0x0000000000000000      0x1b8 build/kernel/components/lwp/lwp_ipc.o
 .text.rt_channel_send_recv_timeout
                0x0000000000000000      0x414 build/kernel/components/lwp/lwp_ipc.o
 .text.rt_channel_send_recv
                0x0000000000000000      0x410 build/kernel/components/lwp/lwp_ipc.o
 .text.rt_channel_reply
                0x0000000000000000      0x160 build/kernel/components/lwp/lwp_ipc.o
 .text.rt_channel_recv_timeout
                0x0000000000000000      0x2d8 build/kernel/components/lwp/lwp_ipc.o
 .text.rt_channel_recv
                0x0000000000000000      0x2d4 build/kernel/components/lwp/lwp_ipc.o
 .text.rt_channel_peek
                0x0000000000000000      0x2d4 build/kernel/components/lwp/lwp_ipc.o
 .text          0x0000000000000000        0x0 build/kernel/components/lwp/lwp_mm_area.o
 .data          0x0000000000000000        0x0 build/kernel/components/lwp/lwp_mm_area.o
 .bss           0x0000000000000000        0x0 build/kernel/components/lwp/lwp_mm_area.o
 .text          0x0000000000000000        0x0 build/kernel/components/lwp/lwp_pid.o
 .data          0x0000000000000000        0x0 build/kernel/components/lwp/lwp_pid.o
 .bss           0x0000000000000000        0x0 build/kernel/components/lwp/lwp_pid.o
 .text.lwp_user_object_lock_destroy
                0x0000000000000000        0x8 build/kernel/components/lwp/lwp_pid.o
 .text.lwp_user_object_lock
                0x0000000000000000       0x2c build/kernel/components/lwp/lwp_pid.o
 .text.lwp_user_object_unlock
                0x0000000000000000       0x28 build/kernel/components/lwp/lwp_pid.o
 .text.lwp_free
                0x0000000000000000        0xc build/kernel/components/lwp/lwp_pid.o
 .text.lwp_pid2name
                0x0000000000000000       0x6c build/kernel/components/lwp/lwp_pid.o
 .text.lwp_name2pid
                0x0000000000000000       0x88 build/kernel/components/lwp/lwp_pid.o
 .text.lwp_request_thread_exit
                0x0000000000000000      0x108 build/kernel/components/lwp/lwp_pid.o
 .rodata.__FUNCTION__.8011
                0x0000000000000000       0x17 build/kernel/components/lwp/lwp_pid.o
 .text          0x0000000000000000        0x0 build/kernel/components/lwp/lwp_pmutex.o
 .data          0x0000000000000000        0x0 build/kernel/components/lwp/lwp_pmutex.o
 .bss           0x0000000000000000        0x0 build/kernel/components/lwp/lwp_pmutex.o
 .text          0x0000000000000000        0x0 build/kernel/components/lwp/lwp_shm.o
 .data          0x0000000000000000        0x0 build/kernel/components/lwp/lwp_shm.o
 .bss           0x0000000000000000        0x0 build/kernel/components/lwp/lwp_shm.o
 .text._lwp_shmdt
                0x0000000000000000       0x70 build/kernel/components/lwp/lwp_shm.o
 .text._lwp_shminfo
                0x0000000000000000       0x60 build/kernel/components/lwp/lwp_shm.o
 .text.lwp_shminfo
                0x0000000000000000       0x6c build/kernel/components/lwp/lwp_shm.o
 .text          0x0000000000000000        0x0 build/kernel/components/lwp/lwp_signal.o
 .data          0x0000000000000000        0x0 build/kernel/components/lwp/lwp_signal.o
 .bss           0x0000000000000000        0x0 build/kernel/components/lwp/lwp_signal.o
 .text.lwp_sighandler_set
                0x0000000000000000       0x58 build/kernel/components/lwp/lwp_signal.o
 .text          0x0000000000000000        0x0 build/kernel/components/lwp/lwp_syscall.o
 .data          0x0000000000000000        0x0 build/kernel/components/lwp/lwp_syscall.o
 .bss           0x0000000000000000        0x0 build/kernel/components/lwp/lwp_syscall.o
 .text.lwp_user_strlen
                0x0000000000000000       0x6c build/kernel/components/lwp/lwp_syscall.o
 .text.sys_hw_interrupt_disable
                0x0000000000000000        0x4 build/kernel/components/lwp/lwp_syscall.o
 .text.sys_hw_interrupt_enable
                0x0000000000000000        0x4 build/kernel/components/lwp/lwp_syscall.o
 .text          0x0000000000000000        0x0 build/kernel/components/lwp/lwp_tid.o
 .data          0x0000000000000000        0x0 build/kernel/components/lwp/lwp_tid.o
 .bss           0x0000000000000000        0x0 build/kernel/components/lwp/lwp_tid.o
 .text          0x0000000000000000        0x0 build/kernel/components/lwp/lwp_user_mm.o
 .data          0x0000000000000000        0x0 build/kernel/components/lwp/lwp_user_mm.o
 .bss           0x0000000000000000        0x0 build/kernel/components/lwp/lwp_user_mm.o
 .text.lwp_unmap_user_type
                0x0000000000000000        0x4 build/kernel/components/lwp/lwp_user_mm.o
 .text.lwp_map_user_phy
                0x0000000000000000      0x11c build/kernel/components/lwp/lwp_user_mm.o
 .text.lwp_data_get
                0x0000000000000000       0x98 build/kernel/components/lwp/lwp_user_mm.o
 .text.lwp_data_put
                0x0000000000000000       0x98 build/kernel/components/lwp/lwp_user_mm.o
 .text.lwp_data_cache_flush
                0x0000000000000000       0x20 build/kernel/components/lwp/lwp_user_mm.o
 .data          0x0000000000000000        0x0 build/kernel/components/lwp/arch/arm/arm926/lwp_gcc.o
 .bss           0x0000000000000000        0x0 build/kernel/components/lwp/arch/arm/arm926/lwp_gcc.o
 .text          0x0000000000000000        0x0 build/kernel/components/lwp/arch/arm/common/reloc.o
 .data          0x0000000000000000        0x0 build/kernel/components/lwp/arch/arm/common/reloc.o
 .bss           0x0000000000000000        0x0 build/kernel/components/lwp/arch/arm/common/reloc.o
 .text          0x0000000000000000        0x0 build/kernel/components/lwp/arch/arm/arm926/arch_user_space_init.o
 .data          0x0000000000000000        0x0 build/kernel/components/lwp/arch/arm/arm926/arch_user_space_init.o
 .bss           0x0000000000000000        0x0 build/kernel/components/lwp/arch/arm/arm926/arch_user_space_init.o
 .text          0x0000000000000000        0x0 build/kernel/components/lwp/arch/arm/arm926/arch_user_stack.o
 .data          0x0000000000000000        0x0 build/kernel/components/lwp/arch/arm/arm926/arch_user_stack.o
 .bss           0x0000000000000000        0x0 build/kernel/components/lwp/arch/arm/arm926/arch_user_stack.o
 .text          0x0000000000000000        0x0 build/kernel/components/finsh/shell.o
 .data          0x0000000000000000        0x0 build/kernel/components/finsh/shell.o
 .bss           0x0000000000000000        0x0 build/kernel/components/finsh/shell.o
 .text.finsh_set_prompt
                0x0000000000000000       0x5c build/kernel/components/finsh/shell.o
 .text.finsh_get_prompt_mode
                0x0000000000000000       0x48 build/kernel/components/finsh/shell.o
 .text.finsh_set_prompt_mode
                0x0000000000000000       0x54 build/kernel/components/finsh/shell.o
 .text.finsh_set_echo
                0x0000000000000000       0x54 build/kernel/components/finsh/shell.o
 .text.finsh_get_echo
                0x0000000000000000       0x44 build/kernel/components/finsh/shell.o
 .text.finsh_system_function_init
                0x0000000000000000       0x1c build/kernel/components/finsh/shell.o
 .rodata.__FUNCTION__.7312
                0x0000000000000000       0x16 build/kernel/components/finsh/shell.o
 .rodata.__FUNCTION__.7323
                0x0000000000000000        0xf build/kernel/components/finsh/shell.o
 .rodata.__FUNCTION__.7326
                0x0000000000000000        0xf build/kernel/components/finsh/shell.o
 .text          0x0000000000000000        0x0 build/kernel/components/finsh/cmd.o
 .data          0x0000000000000000        0x0 build/kernel/components/finsh/cmd.o
 .bss           0x0000000000000000        0x0 build/kernel/components/finsh/cmd.o
 .text          0x0000000000000000        0x0 build/kernel/components/finsh/msh.o
 .data          0x0000000000000000        0x0 build/kernel/components/finsh/msh.o
 .bss           0x0000000000000000        0x0 build/kernel/components/finsh/msh.o
 .text.msh_auto_complete_path
                0x0000000000000000        0xc build/kernel/components/finsh/msh.o
 .text          0x0000000000000000        0x0 build/kernel/components/finsh/msh_file.o
 .data          0x0000000000000000        0x0 build/kernel/components/finsh/msh_file.o
 .bss           0x0000000000000000        0x0 build/kernel/components/finsh/msh_file.o
 .text          0x0000000000000000        0x0 build/kernel/components/libc/mmap/posix_mmap.o
 .data          0x0000000000000000        0x0 build/kernel/components/libc/mmap/posix_mmap.o
 .bss           0x0000000000000000        0x0 build/kernel/components/libc/mmap/posix_mmap.o
 .text.mmap     0x0000000000000000       0xfc build/kernel/components/libc/mmap/posix_mmap.o
 .text.munmap   0x0000000000000000       0x20 build/kernel/components/libc/mmap/posix_mmap.o
 .comment       0x0000000000000000       0x12 build/kernel/components/libc/mmap/posix_mmap.o
 .note.GNU-stack
                0x0000000000000000        0x0 build/kernel/components/libc/mmap/posix_mmap.o
 .ARM.attributes
                0x0000000000000000       0x32 build/kernel/components/libc/mmap/posix_mmap.o
 .text          0x0000000000000000        0x0 build/kernel/components/libc/termios/posix_termios.o
 .data          0x0000000000000000        0x0 build/kernel/components/libc/termios/posix_termios.o
 .bss           0x0000000000000000        0x0 build/kernel/components/libc/termios/posix_termios.o
 .text.tcgetattr
                0x0000000000000000       0x24 build/kernel/components/libc/termios/posix_termios.o
 .text.tcsetattr
                0x0000000000000000       0x54 build/kernel/components/libc/termios/posix_termios.o
 .text.tcgetsid
                0x0000000000000000        0x8 build/kernel/components/libc/termios/posix_termios.o
 .text.cfgetispeed
                0x0000000000000000       0x14 build/kernel/components/libc/termios/posix_termios.o
 .text.cfsetispeed
                0x0000000000000000       0x58 build/kernel/components/libc/termios/posix_termios.o
 .text.tcsendbreak
                0x0000000000000000        0x8 build/kernel/components/libc/termios/posix_termios.o
 .text.tcflush  0x0000000000000000       0x10 build/kernel/components/libc/termios/posix_termios.o
 .text.tcflow   0x0000000000000000       0x10 build/kernel/components/libc/termios/posix_termios.o
 .text.tcdrain  0x0000000000000000        0x8 build/kernel/components/libc/termios/posix_termios.o
 .text.cfmakeraw
                0x0000000000000000       0x48 build/kernel/components/libc/termios/posix_termios.o
 .text.cfsetspeed
                0x0000000000000000       0x44 build/kernel/components/libc/termios/posix_termios.o
 .text          0x0000000000000000        0x0 build/kernel/components/libc/time/clock_time.o
 .data          0x0000000000000000        0x0 build/kernel/components/libc/time/clock_time.o
 .bss           0x0000000000000000        0x0 build/kernel/components/libc/time/clock_time.o
 .text.clock_getres
                0x0000000000000000       0x34 build/kernel/components/libc/time/clock_time.o
 .text.clock_gettime
                0x0000000000000000       0x88 build/kernel/components/libc/time/clock_time.o
 .text.clock_settime
                0x0000000000000000       0xbc build/kernel/components/libc/time/clock_time.o
 .text          0x0000000000000000        0x0 build/kernel/components/libc/time/posix_sleep.o
 .data          0x0000000000000000        0x0 build/kernel/components/libc/time/posix_sleep.o
 .bss           0x0000000000000000        0x0 build/kernel/components/libc/time/posix_sleep.o
 .text.sleep    0x0000000000000000       0x3c build/kernel/components/libc/time/posix_sleep.o
 .comment       0x0000000000000000       0x12 build/kernel/components/libc/time/posix_sleep.o
 .note.GNU-stack
                0x0000000000000000        0x0 build/kernel/components/libc/time/posix_sleep.o
 .ARM.attributes
                0x0000000000000000       0x32 build/kernel/components/libc/time/posix_sleep.o
 .text          0x0000000000000000        0x0 build/kernel/components/libc/aio/posix_aio.o
 .data          0x0000000000000000        0x0 build/kernel/components/libc/aio/posix_aio.o
 .bss           0x0000000000000000        0x0 build/kernel/components/libc/aio/posix_aio.o
 .text.aio_fync_work
                0x0000000000000000       0x70 build/kernel/components/libc/aio/posix_aio.o
 .text.aio_read_work
                0x0000000000000000       0x7c build/kernel/components/libc/aio/posix_aio.o
 .text.aio_cancel
                0x0000000000000000       0x60 build/kernel/components/libc/aio/posix_aio.o
 .text.aio_error
                0x0000000000000000       0x10 build/kernel/components/libc/aio/posix_aio.o
 .text.aio_fsync
                0x0000000000000000       0x64 build/kernel/components/libc/aio/posix_aio.o
 .text.aio_read
                0x0000000000000000       0x74 build/kernel/components/libc/aio/posix_aio.o
 .text.aio_return
                0x0000000000000000       0x2c build/kernel/components/libc/aio/posix_aio.o
 .text.aio_suspend
                0x0000000000000000        0x8 build/kernel/components/libc/aio/posix_aio.o
 .text.aio_write
                0x0000000000000000       0x38 build/kernel/components/libc/aio/posix_aio.o
 .text.lio_listio
                0x0000000000000000        0x8 build/kernel/components/libc/aio/posix_aio.o
 .rodata.__FUNCTION__.7302
                0x0000000000000000        0xe build/kernel/components/libc/aio/posix_aio.o
 .rodata.aio_fync_work.str1.4
                0x0000000000000000        0xe build/kernel/components/libc/aio/posix_aio.o
 .text          0x0000000000000000        0x0 build/kernel/components/libc/compilers/musl/libc.o
 .data          0x0000000000000000        0x0 build/kernel/components/libc/compilers/musl/libc.o
 .bss           0x0000000000000000        0x0 build/kernel/components/libc/compilers/musl/libc.o
 .text          0x0000000000000000        0x0 build/kernel/components/libc/compilers/musl/mem.o
 .data          0x0000000000000000        0x0 build/kernel/components/libc/compilers/musl/mem.o
 .bss           0x0000000000000000        0x0 build/kernel/components/libc/compilers/musl/mem.o
 .text.calloc   0x0000000000000000        0x4 build/kernel/components/libc/compilers/musl/mem.o
 .text          0x0000000000000000        0x0 build/kernel/components/libc/compilers/musl/stdio.o
 .data          0x0000000000000000        0x0 build/kernel/components/libc/compilers/musl/stdio.o
 .bss           0x0000000000000000        0x0 build/kernel/components/libc/compilers/musl/stdio.o
 .text.libc_stdio_get_console
                0x0000000000000000       0x20 build/kernel/components/libc/compilers/musl/stdio.o
 .text          0x0000000000000000        0x0 build/kernel/components/libc/compilers/musl/time.o
 .data          0x0000000000000000        0x0 build/kernel/components/libc/compilers/musl/time.o
 .bss           0x0000000000000000        0x0 build/kernel/components/libc/compilers/musl/time.o
 .text.gettimeofday
                0x0000000000000000       0x64 build/kernel/components/libc/compilers/musl/time.o
 .text.time     0x0000000000000000       0x14 build/kernel/components/libc/compilers/musl/time.o
 .text.clock    0x0000000000000000        0x4 build/kernel/components/libc/compilers/musl/time.o
 .rodata.__FUNCTION__.5800
                0x0000000000000000        0xd build/kernel/components/libc/compilers/musl/time.o
 .rodata.gettimeofday.str1.4
                0x0000000000000000       0x16 build/kernel/components/libc/compilers/musl/time.o
 .comment       0x0000000000000000       0x12 build/kernel/components/libc/compilers/musl/time.o
 .note.GNU-stack
                0x0000000000000000        0x0 build/kernel/components/libc/compilers/musl/time.o
 .ARM.attributes
                0x0000000000000000       0x32 build/kernel/components/libc/compilers/musl/time.o
 .text          0x0000000000000000        0x0 build/kernel/components/dfs/src/dfs.o
 .data          0x0000000000000000        0x0 build/kernel/components/dfs/src/dfs.o
 .bss           0x0000000000000000        0x0 build/kernel/components/dfs/src/dfs.o
 .text.fd_get_fd_index
                0x0000000000000000       0xbc build/kernel/components/dfs/src/dfs.o
 .text.dfs_fdtable_get_pid
                0x0000000000000000       0x14 build/kernel/components/dfs/src/dfs.o
 .text          0x0000000000000000        0x0 build/kernel/components/dfs/src/dfs_file.o
 .data          0x0000000000000000        0x0 build/kernel/components/dfs/src/dfs_file.o
 .bss           0x0000000000000000        0x0 build/kernel/components/dfs/src/dfs_file.o
 .text.dfs_file_is_open
                0x0000000000000000       0xc8 build/kernel/components/dfs/src/dfs_file.o
 .text.dfs_file_flush
                0x0000000000000000       0x30 build/kernel/components/dfs/src/dfs_file.o
 .text.dfs_file_ftruncate
                0x0000000000000000       0x7c build/kernel/components/dfs/src/dfs_file.o
 .text          0x0000000000000000        0x0 build/kernel/components/dfs/src/dfs_fs.o
 .data          0x0000000000000000        0x0 build/kernel/components/dfs/src/dfs_fs.o
 .bss           0x0000000000000000        0x0 build/kernel/components/dfs/src/dfs_fs.o
 .text.dfs_filesystem_get_mounted_path
                0x0000000000000000       0xa8 build/kernel/components/dfs/src/dfs_fs.o
 .text.dfs_filesystem_get_partition
                0x0000000000000000      0x16c build/kernel/components/dfs/src/dfs_fs.o
 .text.dfs_statfs
                0x0000000000000000      0x10c build/kernel/components/dfs/src/dfs_fs.o
 .rodata.__FUNCTION__.7138
                0x0000000000000000       0x1d build/kernel/components/dfs/src/dfs_fs.o
 .rodata.dfs_filesystem_get_partition.str1.4
                0x0000000000000000       0x5c build/kernel/components/dfs/src/dfs_fs.o
 .text          0x0000000000000000        0x0 build/kernel/components/dfs/src/dfs_posix.o
 .data          0x0000000000000000        0x0 build/kernel/components/dfs/src/dfs_posix.o
 .bss           0x0000000000000000        0x0 build/kernel/components/dfs/src/dfs_posix.o
 .text.fsync    0x0000000000000000       0x28 build/kernel/components/dfs/src/dfs_posix.o
 .text.ftruncate
                0x0000000000000000       0x6c build/kernel/components/dfs/src/dfs_posix.o
 .text.statfs   0x0000000000000000       0x24 build/kernel/components/dfs/src/dfs_posix.o
 .text.rmdir    0x0000000000000000       0x24 build/kernel/components/dfs/src/dfs_posix.o
 .text.telldir  0x0000000000000000       0x40 build/kernel/components/dfs/src/dfs_posix.o
 .text.seekdir  0x0000000000000000       0x4c build/kernel/components/dfs/src/dfs_posix.o
 .text          0x0000000000000000        0x0 build/kernel/components/dfs/src/poll.o
 .data          0x0000000000000000        0x0 build/kernel/components/dfs/src/poll.o
 .bss           0x0000000000000000        0x0 build/kernel/components/dfs/src/poll.o
 .text          0x0000000000000000        0x0 build/kernel/components/dfs/src/select.o
 .data          0x0000000000000000        0x0 build/kernel/components/dfs/src/select.o
 .bss           0x0000000000000000        0x0 build/kernel/components/dfs/src/select.o
 .text          0x0000000000000000        0x0 build/kernel/components/dfs/filesystems/devfs/devfs.o
 .data          0x0000000000000000        0x0 build/kernel/components/dfs/filesystems/devfs/devfs.o
 .bss           0x0000000000000000        0x0 build/kernel/components/dfs/filesystems/devfs/devfs.o
 .text          0x0000000000000000        0x0 build/kernel/components/dfs/filesystems/romfs/dfs_romfs.o
 .data          0x0000000000000000        0x0 build/kernel/components/dfs/filesystems/romfs/dfs_romfs.o
 .bss           0x0000000000000000        0x0 build/kernel/components/dfs/filesystems/romfs/dfs_romfs.o
 .text.dfs_romfs_probe
                0x0000000000000000        0x4 build/kernel/components/dfs/filesystems/romfs/dfs_romfs.o
 .text          0x0000000000000000        0x0 build/kernel/components/drivers/src/completion.o
 .data          0x0000000000000000        0x0 build/kernel/components/drivers/src/completion.o
 .bss           0x0000000000000000        0x0 build/kernel/components/drivers/src/completion.o
 .text          0x0000000000000000        0x0 build/kernel/components/drivers/src/dataqueue.o
 .data          0x0000000000000000        0x0 build/kernel/components/drivers/src/dataqueue.o
 .bss           0x0000000000000000        0x0 build/kernel/components/drivers/src/dataqueue.o
 .text.rt_data_queue_init
                0x0000000000000000       0xa8 build/kernel/components/drivers/src/dataqueue.o
 .text.rt_data_queue_push
                0x0000000000000000      0x24c build/kernel/components/drivers/src/dataqueue.o
 .text.rt_data_queue_pop
                0x0000000000000000      0x360 build/kernel/components/drivers/src/dataqueue.o
 .text.rt_data_queue_peak
                0x0000000000000000       0xb8 build/kernel/components/drivers/src/dataqueue.o
 .text.rt_data_queue_reset
                0x0000000000000000       0xf8 build/kernel/components/drivers/src/dataqueue.o
 .text.rt_data_queue_deinit
                0x0000000000000000       0x80 build/kernel/components/drivers/src/dataqueue.o
 .text.rt_data_queue_len
                0x0000000000000000       0xb0 build/kernel/components/drivers/src/dataqueue.o
 .rodata.__FUNCTION__.6206
                0x0000000000000000       0x13 build/kernel/components/drivers/src/dataqueue.o
 .rodata.__FUNCTION__.6216
                0x0000000000000000       0x13 build/kernel/components/drivers/src/dataqueue.o
 .rodata.__FUNCTION__.6231
                0x0000000000000000       0x12 build/kernel/components/drivers/src/dataqueue.o
 .rodata.__FUNCTION__.6243
                0x0000000000000000       0x13 build/kernel/components/drivers/src/dataqueue.o
 .rodata.__FUNCTION__.6249
                0x0000000000000000       0x14 build/kernel/components/drivers/src/dataqueue.o
 .rodata.__FUNCTION__.6260
                0x0000000000000000       0x15 build/kernel/components/drivers/src/dataqueue.o
 .rodata.__FUNCTION__.6266
                0x0000000000000000       0x12 build/kernel/components/drivers/src/dataqueue.o
 .rodata.rt_data_queue_init.str1.4
                0x0000000000000000       0x1d build/kernel/components/drivers/src/dataqueue.o
 .rodata.rt_data_queue_pop.str1.4
                0x0000000000000000       0x24 build/kernel/components/drivers/src/dataqueue.o
 .rodata.rt_data_queue_push.str1.4
                0x0000000000000000       0x4a build/kernel/components/drivers/src/dataqueue.o
 .comment       0x0000000000000000       0x12 build/kernel/components/drivers/src/dataqueue.o
 .note.GNU-stack
                0x0000000000000000        0x0 build/kernel/components/drivers/src/dataqueue.o
 .ARM.attributes
                0x0000000000000000       0x32 build/kernel/components/drivers/src/dataqueue.o
 .text          0x0000000000000000        0x0 build/kernel/components/drivers/src/pipe.o
 .data          0x0000000000000000        0x0 build/kernel/components/drivers/src/pipe.o
 .bss           0x0000000000000000        0x0 build/kernel/components/drivers/src/pipe.o
 .text.rt_pipe_create
                0x0000000000000000       0xf4 build/kernel/components/drivers/src/pipe.o
 .text.rt_pipe_delete
                0x0000000000000000       0x5c build/kernel/components/drivers/src/pipe.o
 .text.mkfifo   0x0000000000000000       0xc4 build/kernel/components/drivers/src/pipe.o
 .rodata.__FUNCTION__.7402
                0x0000000000000000        0xf build/kernel/components/drivers/src/pipe.o
 .rodata.rt_pipe_create.str1.4
                0x0000000000000000        0xf build/kernel/components/drivers/src/pipe.o
 .text          0x0000000000000000        0x0 build/kernel/components/drivers/src/ringblk_buf.o
 .data          0x0000000000000000        0x0 build/kernel/components/drivers/src/ringblk_buf.o
 .bss           0x0000000000000000        0x0 build/kernel/components/drivers/src/ringblk_buf.o
 .text.rt_rbb_init
                0x0000000000000000       0xb8 build/kernel/components/drivers/src/ringblk_buf.o
 .text.rt_rbb_create
                0x0000000000000000       0xb4 build/kernel/components/drivers/src/ringblk_buf.o
 .text.rt_rbb_destroy
                0x0000000000000000       0x44 build/kernel/components/drivers/src/ringblk_buf.o
 .text.rt_rbb_blk_alloc
                0x0000000000000000      0x288 build/kernel/components/drivers/src/ringblk_buf.o
 .text.rt_rbb_blk_put
                0x0000000000000000       0x54 build/kernel/components/drivers/src/ringblk_buf.o
 .text.rt_rbb_blk_get
                0x0000000000000000       0x8c build/kernel/components/drivers/src/ringblk_buf.o
 .text.rt_rbb_blk_size
                0x0000000000000000       0x38 build/kernel/components/drivers/src/ringblk_buf.o
 .text.rt_rbb_blk_buf
                0x0000000000000000       0x38 build/kernel/components/drivers/src/ringblk_buf.o
 .text.rt_rbb_blk_free
                0x0000000000000000       0xc8 build/kernel/components/drivers/src/ringblk_buf.o
 .text.rt_rbb_blk_queue_get
                0x0000000000000000      0x15c build/kernel/components/drivers/src/ringblk_buf.o
 .text.rt_rbb_blk_queue_len
                0x0000000000000000       0x5c build/kernel/components/drivers/src/ringblk_buf.o
 .text.rt_rbb_blk_queue_buf
                0x0000000000000000       0x38 build/kernel/components/drivers/src/ringblk_buf.o
 .text.rt_rbb_blk_queue_free
                0x0000000000000000      0x158 build/kernel/components/drivers/src/ringblk_buf.o
 .text.rt_rbb_next_blk_queue_len
                0x0000000000000000       0xd8 build/kernel/components/drivers/src/ringblk_buf.o
 .text.rt_rbb_get_buf_size
                0x0000000000000000       0x34 build/kernel/components/drivers/src/ringblk_buf.o
 .rodata.__FUNCTION__.6206
                0x0000000000000000        0xc build/kernel/components/drivers/src/ringblk_buf.o
 .rodata.__FUNCTION__.6220
                0x0000000000000000        0xf build/kernel/components/drivers/src/ringblk_buf.o
 .rodata.__FUNCTION__.6225
                0x0000000000000000       0x16 build/kernel/components/drivers/src/ringblk_buf.o
 .rodata.__FUNCTION__.6239
                0x0000000000000000       0x11 build/kernel/components/drivers/src/ringblk_buf.o
 .rodata.__FUNCTION__.6243
                0x0000000000000000        0xf build/kernel/components/drivers/src/ringblk_buf.o
 .rodata.__FUNCTION__.6250
                0x0000000000000000        0xf build/kernel/components/drivers/src/ringblk_buf.o
 .rodata.__FUNCTION__.6258
                0x0000000000000000       0x10 build/kernel/components/drivers/src/ringblk_buf.o
 .rodata.__FUNCTION__.6262
                0x0000000000000000        0xf build/kernel/components/drivers/src/ringblk_buf.o
 .rodata.__FUNCTION__.6268
                0x0000000000000000       0x10 build/kernel/components/drivers/src/ringblk_buf.o
 .rodata.__FUNCTION__.6279
                0x0000000000000000       0x15 build/kernel/components/drivers/src/ringblk_buf.o
 .rodata.__FUNCTION__.6289
                0x0000000000000000       0x15 build/kernel/components/drivers/src/ringblk_buf.o
 .rodata.__FUNCTION__.6296
                0x0000000000000000       0x15 build/kernel/components/drivers/src/ringblk_buf.o
 .rodata.__FUNCTION__.6302
                0x0000000000000000       0x16 build/kernel/components/drivers/src/ringblk_buf.o
 .rodata.__FUNCTION__.6314
                0x0000000000000000       0x1a build/kernel/components/drivers/src/ringblk_buf.o
 .rodata.__FUNCTION__.6322
                0x0000000000000000       0x14 build/kernel/components/drivers/src/ringblk_buf.o
 .rodata.rt_rbb_blk_alloc.str1.4
                0x0000000000000000       0x16 build/kernel/components/drivers/src/ringblk_buf.o
 .rodata.rt_rbb_blk_free.str1.4
                0x0000000000000000       0x23 build/kernel/components/drivers/src/ringblk_buf.o
 .rodata.rt_rbb_blk_put.str1.4
                0x0000000000000000       0x2b build/kernel/components/drivers/src/ringblk_buf.o
 .rodata.rt_rbb_blk_queue_get.str1.4
                0x0000000000000000        0xa build/kernel/components/drivers/src/ringblk_buf.o
 .rodata.rt_rbb_init.str1.4
                0x0000000000000000       0x12 build/kernel/components/drivers/src/ringblk_buf.o
 .comment       0x0000000000000000       0x12 build/kernel/components/drivers/src/ringblk_buf.o
 .note.GNU-stack
                0x0000000000000000        0x0 build/kernel/components/drivers/src/ringblk_buf.o
 .ARM.attributes
                0x0000000000000000       0x32 build/kernel/components/drivers/src/ringblk_buf.o
 .text          0x0000000000000000        0x0 build/kernel/components/drivers/src/ringbuffer.o
 .data          0x0000000000000000        0x0 build/kernel/components/drivers/src/ringbuffer.o
 .bss           0x0000000000000000        0x0 build/kernel/components/drivers/src/ringbuffer.o
 .text.rt_ringbuffer_putchar
                0x0000000000000000       0xf8 build/kernel/components/drivers/src/ringbuffer.o
 .text.rt_ringbuffer_putchar_force
                0x0000000000000000      0x114 build/kernel/components/drivers/src/ringbuffer.o
 .text.rt_ringbuffer_getchar
                0x0000000000000000      0x108 build/kernel/components/drivers/src/ringbuffer.o
 .text.rt_ringbuffer_reset
                0x0000000000000000       0x38 build/kernel/components/drivers/src/ringbuffer.o
 .rodata.__FUNCTION__.6323
                0x0000000000000000       0x16 build/kernel/components/drivers/src/ringbuffer.o
 .rodata.__FUNCTION__.6329
                0x0000000000000000       0x1c build/kernel/components/drivers/src/ringbuffer.o
 .rodata.__FUNCTION__.6334
                0x0000000000000000       0x16 build/kernel/components/drivers/src/ringbuffer.o
 .rodata.__FUNCTION__.6345
                0x0000000000000000       0x14 build/kernel/components/drivers/src/ringbuffer.o
 .text          0x0000000000000000        0x0 build/kernel/components/drivers/src/waitqueue.o
 .data          0x0000000000000000        0x0 build/kernel/components/drivers/src/waitqueue.o
 .bss           0x0000000000000000        0x0 build/kernel/components/drivers/src/waitqueue.o
 .text.rt_wqueue_wait_killable
                0x0000000000000000      0x190 build/kernel/components/drivers/src/waitqueue.o
 .text          0x0000000000000000        0x0 build/kernel/components/drivers/src/workqueue.o
 .data          0x0000000000000000        0x0 build/kernel/components/drivers/src/workqueue.o
 .bss           0x0000000000000000        0x0 build/kernel/components/drivers/src/workqueue.o
 .text._workqueue_cancel_delayed_work
                0x0000000000000000       0xd4 build/kernel/components/drivers/src/workqueue.o
 .text._delayed_work_timeout_handler
                0x0000000000000000       0xc0 build/kernel/components/drivers/src/workqueue.o
 .text.rt_workqueue_destroy
                0x0000000000000000       0x44 build/kernel/components/drivers/src/workqueue.o
 .text.rt_workqueue_dowork
                0x0000000000000000       0xe0 build/kernel/components/drivers/src/workqueue.o
 .text.rt_workqueue_submit_work
                0x0000000000000000      0x234 build/kernel/components/drivers/src/workqueue.o
 .text.rt_workqueue_critical_work
                0x0000000000000000       0xd0 build/kernel/components/drivers/src/workqueue.o
 .text.rt_workqueue_cancel_work
                0x0000000000000000      0x170 build/kernel/components/drivers/src/workqueue.o
 .text.rt_workqueue_cancel_work_sync
                0x0000000000000000       0xb4 build/kernel/components/drivers/src/workqueue.o
 .text.rt_workqueue_cancel_all_work
                0x0000000000000000       0x6c build/kernel/components/drivers/src/workqueue.o
 .text.rt_delayed_work_init
                0x0000000000000000       0x20 build/kernel/components/drivers/src/workqueue.o
 .text.rt_work_submit
                0x0000000000000000      0x1dc build/kernel/components/drivers/src/workqueue.o
 .text.rt_work_cancel
                0x0000000000000000      0x17c build/kernel/components/drivers/src/workqueue.o
 .rodata.__FUNCTION__.6250
                0x0000000000000000       0x15 build/kernel/components/drivers/src/workqueue.o
 .rodata.__FUNCTION__.6255
                0x0000000000000000       0x14 build/kernel/components/drivers/src/workqueue.o
 .rodata.__FUNCTION__.6261
                0x0000000000000000       0x19 build/kernel/components/drivers/src/workqueue.o
 .rodata.__FUNCTION__.6267
                0x0000000000000000       0x1b build/kernel/components/drivers/src/workqueue.o
 .rodata.__FUNCTION__.6272
                0x0000000000000000       0x19 build/kernel/components/drivers/src/workqueue.o
 .rodata.__FUNCTION__.6278
                0x0000000000000000       0x1e build/kernel/components/drivers/src/workqueue.o
 .rodata.__FUNCTION__.6284
                0x0000000000000000       0x1d build/kernel/components/drivers/src/workqueue.o
 .rodata.rt_workqueue_dowork.str1.4
                0x0000000000000000       0x10 build/kernel/components/drivers/src/workqueue.o
 .rodata.rt_workqueue_submit_work.str1.4
                0x0000000000000000        0x5 build/kernel/components/drivers/src/workqueue.o
 .text          0x0000000000000000        0x0 build/kernel/components/drivers/serial/serial.o
 .data          0x0000000000000000        0x0 build/kernel/components/drivers/serial/serial.o
 .bss           0x0000000000000000        0x0 build/kernel/components/drivers/serial/serial.o
 .text          0x0000000000000000        0x0 build/kernel/components/drivers/watchdog/watchdog.o
 .data          0x0000000000000000        0x0 build/kernel/components/drivers/watchdog/watchdog.o
 .bss           0x0000000000000000        0x0 build/kernel/components/drivers/watchdog/watchdog.o
 .text          0x0000000000000000        0x0 /opt/arm-linux-musleabi/bin/../lib/gcc/arm-linux-musleabi/7.3.0/../../../../arm-linux-musleabi/lib/libc_kernel.a(__environ.o)
 .data          0x0000000000000000        0x0 /opt/arm-linux-musleabi/bin/../lib/gcc/arm-linux-musleabi/7.3.0/../../../../arm-linux-musleabi/lib/libc_kernel.a(__environ.o)
 .bss           0x0000000000000000        0x0 /opt/arm-linux-musleabi/bin/../lib/gcc/arm-linux-musleabi/7.3.0/../../../../arm-linux-musleabi/lib/libc_kernel.a(__environ.o)
 .text          0x0000000000000000        0x0 /opt/arm-linux-musleabi/bin/../lib/gcc/arm-linux-musleabi/7.3.0/../../../../arm-linux-musleabi/lib/libc_kernel.a(getenv.o)
 .data          0x0000000000000000        0x0 /opt/arm-linux-musleabi/bin/../lib/gcc/arm-linux-musleabi/7.3.0/../../../../arm-linux-musleabi/lib/libc_kernel.a(getenv.o)
 .bss           0x0000000000000000        0x0 /opt/arm-linux-musleabi/bin/../lib/gcc/arm-linux-musleabi/7.3.0/../../../../arm-linux-musleabi/lib/libc_kernel.a(getenv.o)
 .text          0x0000000000000000        0x0 /opt/arm-linux-musleabi/bin/../lib/gcc/arm-linux-musleabi/7.3.0/../../../../arm-linux-musleabi/lib/libc_kernel.a(putenv.o)
 .data          0x0000000000000000        0x0 /opt/arm-linux-musleabi/bin/../lib/gcc/arm-linux-musleabi/7.3.0/../../../../arm-linux-musleabi/lib/libc_kernel.a(putenv.o)
 .bss           0x0000000000000000        0x0 /opt/arm-linux-musleabi/bin/../lib/gcc/arm-linux-musleabi/7.3.0/../../../../arm-linux-musleabi/lib/libc_kernel.a(putenv.o)
 .text.dummy    0x0000000000000000        0x4 /opt/arm-linux-musleabi/bin/../lib/gcc/arm-linux-musleabi/7.3.0/../../../../arm-linux-musleabi/lib/libc_kernel.a(putenv.o)
 .text          0x0000000000000000        0x0 /opt/arm-linux-musleabi/bin/../lib/gcc/arm-linux-musleabi/7.3.0/../../../../arm-linux-musleabi/lib/libc_kernel.a(setenv.o)
 .data          0x0000000000000000        0x0 /opt/arm-linux-musleabi/bin/../lib/gcc/arm-linux-musleabi/7.3.0/../../../../arm-linux-musleabi/lib/libc_kernel.a(setenv.o)
 .bss           0x0000000000000000        0x0 /opt/arm-linux-musleabi/bin/../lib/gcc/arm-linux-musleabi/7.3.0/../../../../arm-linux-musleabi/lib/libc_kernel.a(setenv.o)
 .text          0x0000000000000000        0x0 /opt/arm-linux-musleabi/bin/../lib/gcc/arm-linux-musleabi/7.3.0/../../../../arm-linux-musleabi/lib/libc_kernel.a(unsetenv.o)
 .data          0x0000000000000000        0x0 /opt/arm-linux-musleabi/bin/../lib/gcc/arm-linux-musleabi/7.3.0/../../../../arm-linux-musleabi/lib/libc_kernel.a(unsetenv.o)
 .bss           0x0000000000000000        0x0 /opt/arm-linux-musleabi/bin/../lib/gcc/arm-linux-musleabi/7.3.0/../../../../arm-linux-musleabi/lib/libc_kernel.a(unsetenv.o)
 .text.dummy    0x0000000000000000        0x4 /opt/arm-linux-musleabi/bin/../lib/gcc/arm-linux-musleabi/7.3.0/../../../../arm-linux-musleabi/lib/libc_kernel.a(unsetenv.o)
 .text          0x0000000000000000        0x0 /opt/arm-linux-musleabi/bin/../lib/gcc/arm-linux-musleabi/7.3.0/../../../../arm-linux-musleabi/lib/libc_kernel.a(fclose.o)
 .data          0x0000000000000000        0x0 /opt/arm-linux-musleabi/bin/../lib/gcc/arm-linux-musleabi/7.3.0/../../../../arm-linux-musleabi/lib/libc_kernel.a(fclose.o)
 .bss           0x0000000000000000        0x0 /opt/arm-linux-musleabi/bin/../lib/gcc/arm-linux-musleabi/7.3.0/../../../../arm-linux-musleabi/lib/libc_kernel.a(fclose.o)
 .text          0x0000000000000000        0x0 /opt/arm-linux-musleabi/bin/../lib/gcc/arm-linux-musleabi/7.3.0/../../../../arm-linux-musleabi/lib/libc_kernel.a(fflush.o)
 .data          0x0000000000000000        0x0 /opt/arm-linux-musleabi/bin/../lib/gcc/arm-linux-musleabi/7.3.0/../../../../arm-linux-musleabi/lib/libc_kernel.a(fflush.o)
 .bss           0x0000000000000000        0x0 /opt/arm-linux-musleabi/bin/../lib/gcc/arm-linux-musleabi/7.3.0/../../../../arm-linux-musleabi/lib/libc_kernel.a(fflush.o)
 .text          0x0000000000000000        0x0 /opt/arm-linux-musleabi/bin/../lib/gcc/arm-linux-musleabi/7.3.0/../../../../arm-linux-musleabi/lib/libc_kernel.a(fileno.o)
 .data          0x0000000000000000        0x0 /opt/arm-linux-musleabi/bin/../lib/gcc/arm-linux-musleabi/7.3.0/../../../../arm-linux-musleabi/lib/libc_kernel.a(fileno.o)
 .bss           0x0000000000000000        0x0 /opt/arm-linux-musleabi/bin/../lib/gcc/arm-linux-musleabi/7.3.0/../../../../arm-linux-musleabi/lib/libc_kernel.a(fileno.o)
 .text          0x0000000000000000        0x0 /opt/arm-linux-musleabi/bin/../lib/gcc/arm-linux-musleabi/7.3.0/../../../../arm-linux-musleabi/lib/libc_kernel.a(fopen.o)
 .data          0x0000000000000000        0x0 /opt/arm-linux-musleabi/bin/../lib/gcc/arm-linux-musleabi/7.3.0/../../../../arm-linux-musleabi/lib/libc_kernel.a(fopen.o)
 .bss           0x0000000000000000        0x0 /opt/arm-linux-musleabi/bin/../lib/gcc/arm-linux-musleabi/7.3.0/../../../../arm-linux-musleabi/lib/libc_kernel.a(fopen.o)
 .text          0x0000000000000000        0x0 /opt/arm-linux-musleabi/bin/../lib/gcc/arm-linux-musleabi/7.3.0/../../../../arm-linux-musleabi/lib/libc_kernel.a(getchar.o)
 .data          0x0000000000000000        0x0 /opt/arm-linux-musleabi/bin/../lib/gcc/arm-linux-musleabi/7.3.0/../../../../arm-linux-musleabi/lib/libc_kernel.a(getchar.o)
 .bss           0x0000000000000000        0x0 /opt/arm-linux-musleabi/bin/../lib/gcc/arm-linux-musleabi/7.3.0/../../../../arm-linux-musleabi/lib/libc_kernel.a(getchar.o)
 .text          0x0000000000000000        0x0 /opt/arm-linux-musleabi/bin/../lib/gcc/arm-linux-musleabi/7.3.0/../../../../arm-linux-musleabi/lib/libc_kernel.a(ofl.o)
 .data          0x0000000000000000        0x0 /opt/arm-linux-musleabi/bin/../lib/gcc/arm-linux-musleabi/7.3.0/../../../../arm-linux-musleabi/lib/libc_kernel.a(ofl.o)
 .bss           0x0000000000000000        0x0 /opt/arm-linux-musleabi/bin/../lib/gcc/arm-linux-musleabi/7.3.0/../../../../arm-linux-musleabi/lib/libc_kernel.a(ofl.o)
 .text          0x0000000000000000        0x0 /opt/arm-linux-musleabi/bin/../lib/gcc/arm-linux-musleabi/7.3.0/../../../../arm-linux-musleabi/lib/libc_kernel.a(printf.o)
 .data          0x0000000000000000        0x0 /opt/arm-linux-musleabi/bin/../lib/gcc/arm-linux-musleabi/7.3.0/../../../../arm-linux-musleabi/lib/libc_kernel.a(printf.o)
 .bss           0x0000000000000000        0x0 /opt/arm-linux-musleabi/bin/../lib/gcc/arm-linux-musleabi/7.3.0/../../../../arm-linux-musleabi/lib/libc_kernel.a(printf.o)
 .text          0x0000000000000000        0x0 /opt/arm-linux-musleabi/bin/../lib/gcc/arm-linux-musleabi/7.3.0/../../../../arm-linux-musleabi/lib/libc_kernel.a(setvbuf.o)
 .data          0x0000000000000000        0x0 /opt/arm-linux-musleabi/bin/../lib/gcc/arm-linux-musleabi/7.3.0/../../../../arm-linux-musleabi/lib/libc_kernel.a(setvbuf.o)
 .bss           0x0000000000000000        0x0 /opt/arm-linux-musleabi/bin/../lib/gcc/arm-linux-musleabi/7.3.0/../../../../arm-linux-musleabi/lib/libc_kernel.a(setvbuf.o)
 .text          0x0000000000000000        0x0 /opt/arm-linux-musleabi/bin/../lib/gcc/arm-linux-musleabi/7.3.0/../../../../arm-linux-musleabi/lib/libc_kernel.a(snprintf.o)
 .data          0x0000000000000000        0x0 /opt/arm-linux-musleabi/bin/../lib/gcc/arm-linux-musleabi/7.3.0/../../../../arm-linux-musleabi/lib/libc_kernel.a(snprintf.o)
 .bss           0x0000000000000000        0x0 /opt/arm-linux-musleabi/bin/../lib/gcc/arm-linux-musleabi/7.3.0/../../../../arm-linux-musleabi/lib/libc_kernel.a(snprintf.o)
 .text          0x0000000000000000        0x0 /opt/arm-linux-musleabi/bin/../lib/gcc/arm-linux-musleabi/7.3.0/../../../../arm-linux-musleabi/lib/libc_kernel.a(stdin.o)
 .data          0x0000000000000000        0x0 /opt/arm-linux-musleabi/bin/../lib/gcc/arm-linux-musleabi/7.3.0/../../../../arm-linux-musleabi/lib/libc_kernel.a(stdin.o)
 .bss           0x0000000000000000        0x0 /opt/arm-linux-musleabi/bin/../lib/gcc/arm-linux-musleabi/7.3.0/../../../../arm-linux-musleabi/lib/libc_kernel.a(stdin.o)
 .data.__stdin_used
                0x0000000000000000        0x4 /opt/arm-linux-musleabi/bin/../lib/gcc/arm-linux-musleabi/7.3.0/../../../../arm-linux-musleabi/lib/libc_kernel.a(stdin.o)
 .rodata.stdin  0x0000000000000000        0x4 /opt/arm-linux-musleabi/bin/../lib/gcc/arm-linux-musleabi/7.3.0/../../../../arm-linux-musleabi/lib/libc_kernel.a(stdin.o)
 .text          0x0000000000000000        0x0 /opt/arm-linux-musleabi/bin/../lib/gcc/arm-linux-musleabi/7.3.0/../../../../arm-linux-musleabi/lib/libc_kernel.a(stdout.o)
 .data          0x0000000000000000        0x0 /opt/arm-linux-musleabi/bin/../lib/gcc/arm-linux-musleabi/7.3.0/../../../../arm-linux-musleabi/lib/libc_kernel.a(stdout.o)
 .bss           0x0000000000000000        0x0 /opt/arm-linux-musleabi/bin/../lib/gcc/arm-linux-musleabi/7.3.0/../../../../arm-linux-musleabi/lib/libc_kernel.a(stdout.o)
 .rodata.stdout
                0x0000000000000000        0x4 /opt/arm-linux-musleabi/bin/../lib/gcc/arm-linux-musleabi/7.3.0/../../../../arm-linux-musleabi/lib/libc_kernel.a(stdout.o)
 .text          0x0000000000000000        0x0 /opt/arm-linux-musleabi/bin/../lib/gcc/arm-linux-musleabi/7.3.0/../../../../arm-linux-musleabi/lib/libc_kernel.a(vfprintf.o)
 .data          0x0000000000000000        0x0 /opt/arm-linux-musleabi/bin/../lib/gcc/arm-linux-musleabi/7.3.0/../../../../arm-linux-musleabi/lib/libc_kernel.a(vfprintf.o)
 .bss           0x0000000000000000        0x0 /opt/arm-linux-musleabi/bin/../lib/gcc/arm-linux-musleabi/7.3.0/../../../../arm-linux-musleabi/lib/libc_kernel.a(vfprintf.o)
 .text          0x0000000000000000        0x0 /opt/arm-linux-musleabi/bin/../lib/gcc/arm-linux-musleabi/7.3.0/../../../../arm-linux-musleabi/lib/libc_kernel.a(vsnprintf.o)
 .data          0x0000000000000000        0x0 /opt/arm-linux-musleabi/bin/../lib/gcc/arm-linux-musleabi/7.3.0/../../../../arm-linux-musleabi/lib/libc_kernel.a(vsnprintf.o)
 .bss           0x0000000000000000        0x0 /opt/arm-linux-musleabi/bin/../lib/gcc/arm-linux-musleabi/7.3.0/../../../../arm-linux-musleabi/lib/libc_kernel.a(vsnprintf.o)
 .text          0x0000000000000000        0x0 /opt/arm-linux-musleabi/bin/../lib/gcc/arm-linux-musleabi/7.3.0/../../../../arm-linux-musleabi/lib/libc_kernel.a(atoi.o)
 .data          0x0000000000000000        0x0 /opt/arm-linux-musleabi/bin/../lib/gcc/arm-linux-musleabi/7.3.0/../../../../arm-linux-musleabi/lib/libc_kernel.a(atoi.o)
 .bss           0x0000000000000000        0x0 /opt/arm-linux-musleabi/bin/../lib/gcc/arm-linux-musleabi/7.3.0/../../../../arm-linux-musleabi/lib/libc_kernel.a(atoi.o)
 .data          0x0000000000000000        0x0 /opt/arm-linux-musleabi/bin/../lib/gcc/arm-linux-musleabi/7.3.0/../../../../arm-linux-musleabi/lib/libc_kernel.a(memcpy_le.o)
 .bss           0x0000000000000000        0x0 /opt/arm-linux-musleabi/bin/../lib/gcc/arm-linux-musleabi/7.3.0/../../../../arm-linux-musleabi/lib/libc_kernel.a(memcpy_le.o)
 .text          0x0000000000000000        0x0 /opt/arm-linux-musleabi/bin/../lib/gcc/arm-linux-musleabi/7.3.0/../../../../arm-linux-musleabi/lib/libc_kernel.a(memcmp.o)
 .data          0x0000000000000000        0x0 /opt/arm-linux-musleabi/bin/../lib/gcc/arm-linux-musleabi/7.3.0/../../../../arm-linux-musleabi/lib/libc_kernel.a(memcmp.o)
 .bss           0x0000000000000000        0x0 /opt/arm-linux-musleabi/bin/../lib/gcc/arm-linux-musleabi/7.3.0/../../../../arm-linux-musleabi/lib/libc_kernel.a(memcmp.o)
 .text          0x0000000000000000        0x0 /opt/arm-linux-musleabi/bin/../lib/gcc/arm-linux-musleabi/7.3.0/../../../../arm-linux-musleabi/lib/libc_kernel.a(memset.o)
 .data          0x0000000000000000        0x0 /opt/arm-linux-musleabi/bin/../lib/gcc/arm-linux-musleabi/7.3.0/../../../../arm-linux-musleabi/lib/libc_kernel.a(memset.o)
 .bss           0x0000000000000000        0x0 /opt/arm-linux-musleabi/bin/../lib/gcc/arm-linux-musleabi/7.3.0/../../../../arm-linux-musleabi/lib/libc_kernel.a(memset.o)
 .text          0x0000000000000000        0x0 /opt/arm-linux-musleabi/bin/../lib/gcc/arm-linux-musleabi/7.3.0/../../../../arm-linux-musleabi/lib/libc_kernel.a(stpcpy.o)
 .data          0x0000000000000000        0x0 /opt/arm-linux-musleabi/bin/../lib/gcc/arm-linux-musleabi/7.3.0/../../../../arm-linux-musleabi/lib/libc_kernel.a(stpcpy.o)
 .bss           0x0000000000000000        0x0 /opt/arm-linux-musleabi/bin/../lib/gcc/arm-linux-musleabi/7.3.0/../../../../arm-linux-musleabi/lib/libc_kernel.a(stpcpy.o)
 .text          0x0000000000000000        0x0 /opt/arm-linux-musleabi/bin/../lib/gcc/arm-linux-musleabi/7.3.0/../../../../arm-linux-musleabi/lib/libc_kernel.a(strchr.o)
 .data          0x0000000000000000        0x0 /opt/arm-linux-musleabi/bin/../lib/gcc/arm-linux-musleabi/7.3.0/../../../../arm-linux-musleabi/lib/libc_kernel.a(strchr.o)
 .bss           0x0000000000000000        0x0 /opt/arm-linux-musleabi/bin/../lib/gcc/arm-linux-musleabi/7.3.0/../../../../arm-linux-musleabi/lib/libc_kernel.a(strchr.o)
 .text          0x0000000000000000        0x0 /opt/arm-linux-musleabi/bin/../lib/gcc/arm-linux-musleabi/7.3.0/../../../../arm-linux-musleabi/lib/libc_kernel.a(strchrnul.o)
 .data          0x0000000000000000        0x0 /opt/arm-linux-musleabi/bin/../lib/gcc/arm-linux-musleabi/7.3.0/../../../../arm-linux-musleabi/lib/libc_kernel.a(strchrnul.o)
 .bss           0x0000000000000000        0x0 /opt/arm-linux-musleabi/bin/../lib/gcc/arm-linux-musleabi/7.3.0/../../../../arm-linux-musleabi/lib/libc_kernel.a(strchrnul.o)
 .text          0x0000000000000000        0x0 /opt/arm-linux-musleabi/bin/../lib/gcc/arm-linux-musleabi/7.3.0/../../../../arm-linux-musleabi/lib/libc_kernel.a(strcmp.o)
 .data          0x0000000000000000        0x0 /opt/arm-linux-musleabi/bin/../lib/gcc/arm-linux-musleabi/7.3.0/../../../../arm-linux-musleabi/lib/libc_kernel.a(strcmp.o)
 .bss           0x0000000000000000        0x0 /opt/arm-linux-musleabi/bin/../lib/gcc/arm-linux-musleabi/7.3.0/../../../../arm-linux-musleabi/lib/libc_kernel.a(strcmp.o)
 .text          0x0000000000000000        0x0 /opt/arm-linux-musleabi/bin/../lib/gcc/arm-linux-musleabi/7.3.0/../../../../arm-linux-musleabi/lib/libc_kernel.a(strcpy.o)
 .data          0x0000000000000000        0x0 /opt/arm-linux-musleabi/bin/../lib/gcc/arm-linux-musleabi/7.3.0/../../../../arm-linux-musleabi/lib/libc_kernel.a(strcpy.o)
 .bss           0x0000000000000000        0x0 /opt/arm-linux-musleabi/bin/../lib/gcc/arm-linux-musleabi/7.3.0/../../../../arm-linux-musleabi/lib/libc_kernel.a(strcpy.o)
 .text          0x0000000000000000        0x0 /opt/arm-linux-musleabi/bin/../lib/gcc/arm-linux-musleabi/7.3.0/../../../../arm-linux-musleabi/lib/libc_kernel.a(strlen.o)
 .data          0x0000000000000000        0x0 /opt/arm-linux-musleabi/bin/../lib/gcc/arm-linux-musleabi/7.3.0/../../../../arm-linux-musleabi/lib/libc_kernel.a(strlen.o)
 .bss           0x0000000000000000        0x0 /opt/arm-linux-musleabi/bin/../lib/gcc/arm-linux-musleabi/7.3.0/../../../../arm-linux-musleabi/lib/libc_kernel.a(strlen.o)
 .text          0x0000000000000000        0x0 /opt/arm-linux-musleabi/bin/../lib/gcc/arm-linux-musleabi/7.3.0/../../../../arm-linux-musleabi/lib/libc_kernel.a(strncmp.o)
 .data          0x0000000000000000        0x0 /opt/arm-linux-musleabi/bin/../lib/gcc/arm-linux-musleabi/7.3.0/../../../../arm-linux-musleabi/lib/libc_kernel.a(strncmp.o)
 .bss           0x0000000000000000        0x0 /opt/arm-linux-musleabi/bin/../lib/gcc/arm-linux-musleabi/7.3.0/../../../../arm-linux-musleabi/lib/libc_kernel.a(strncmp.o)
 .text          0x0000000000000000        0x0 /opt/arm-linux-musleabi/bin/../lib/gcc/arm-linux-musleabi/7.3.0/../../../../arm-linux-musleabi/lib/libc_kernel.a(strncpy.o)
 .data          0x0000000000000000        0x0 /opt/arm-linux-musleabi/bin/../lib/gcc/arm-linux-musleabi/7.3.0/../../../../arm-linux-musleabi/lib/libc_kernel.a(strncpy.o)
 .bss           0x0000000000000000        0x0 /opt/arm-linux-musleabi/bin/../lib/gcc/arm-linux-musleabi/7.3.0/../../../../arm-linux-musleabi/lib/libc_kernel.a(strncpy.o)
 .text          0x0000000000000000        0x0 /opt/arm-linux-musleabi/bin/../lib/gcc/arm-linux-musleabi/7.3.0/../../../../arm-linux-musleabi/lib/libc_kernel.a(strnlen.o)
 .data          0x0000000000000000        0x0 /opt/arm-linux-musleabi/bin/../lib/gcc/arm-linux-musleabi/7.3.0/../../../../arm-linux-musleabi/lib/libc_kernel.a(strnlen.o)
 .bss           0x0000000000000000        0x0 /opt/arm-linux-musleabi/bin/../lib/gcc/arm-linux-musleabi/7.3.0/../../../../arm-linux-musleabi/lib/libc_kernel.a(strnlen.o)
 .text          0x0000000000000000        0x0 /opt/arm-linux-musleabi/bin/../lib/gcc/arm-linux-musleabi/7.3.0/../../../../arm-linux-musleabi/lib/libc_kernel.a(strrchr.o)
 .data          0x0000000000000000        0x0 /opt/arm-linux-musleabi/bin/../lib/gcc/arm-linux-musleabi/7.3.0/../../../../arm-linux-musleabi/lib/libc_kernel.a(strrchr.o)
 .bss           0x0000000000000000        0x0 /opt/arm-linux-musleabi/bin/../lib/gcc/arm-linux-musleabi/7.3.0/../../../../arm-linux-musleabi/lib/libc_kernel.a(strrchr.o)
 .text          0x0000000000000000        0x0 /opt/arm-linux-musleabi/bin/../lib/gcc/arm-linux-musleabi/7.3.0/../../../../arm-linux-musleabi/lib/libc_kernel.a(strstr.o)
 .data          0x0000000000000000        0x0 /opt/arm-linux-musleabi/bin/../lib/gcc/arm-linux-musleabi/7.3.0/../../../../arm-linux-musleabi/lib/libc_kernel.a(strstr.o)
 .bss           0x0000000000000000        0x0 /opt/arm-linux-musleabi/bin/../lib/gcc/arm-linux-musleabi/7.3.0/../../../../arm-linux-musleabi/lib/libc_kernel.a(strstr.o)
 .text          0x0000000000000000        0x0 /opt/arm-linux-musleabi/bin/../lib/gcc/arm-linux-musleabi/7.3.0/../../../../arm-linux-musleabi/lib/libc_kernel.a(__lock.o)
 .data          0x0000000000000000        0x0 /opt/arm-linux-musleabi/bin/../lib/gcc/arm-linux-musleabi/7.3.0/../../../../arm-linux-musleabi/lib/libc_kernel.a(__lock.o)
 .bss           0x0000000000000000        0x0 /opt/arm-linux-musleabi/bin/../lib/gcc/arm-linux-musleabi/7.3.0/../../../../arm-linux-musleabi/lib/libc_kernel.a(__lock.o)
 .bss           0x0000000000000000        0x0 /opt/arm-linux-musleabi/bin/../lib/gcc/arm-linux-musleabi/7.3.0/../../../../arm-linux-musleabi/lib/libc_kernel.a(atomics.o)
 .text          0x0000000000000000        0x0 /opt/arm-linux-musleabi/bin/../lib/gcc/arm-linux-musleabi/7.3.0/../../../../arm-linux-musleabi/lib/libc_kernel.a(strerror.o)
 .data          0x0000000000000000        0x0 /opt/arm-linux-musleabi/bin/../lib/gcc/arm-linux-musleabi/7.3.0/../../../../arm-linux-musleabi/lib/libc_kernel.a(strerror.o)
 .bss           0x0000000000000000        0x0 /opt/arm-linux-musleabi/bin/../lib/gcc/arm-linux-musleabi/7.3.0/../../../../arm-linux-musleabi/lib/libc_kernel.a(strerror.o)
 .text          0x0000000000000000        0x0 /opt/arm-linux-musleabi/bin/../lib/gcc/arm-linux-musleabi/7.3.0/../../../../arm-linux-musleabi/lib/libc_kernel.a(rtt_syscall.o)
 .data          0x0000000000000000        0x0 /opt/arm-linux-musleabi/bin/../lib/gcc/arm-linux-musleabi/7.3.0/../../../../arm-linux-musleabi/lib/libc_kernel.a(rtt_syscall.o)
 .bss           0x0000000000000000        0x0 /opt/arm-linux-musleabi/bin/../lib/gcc/arm-linux-musleabi/7.3.0/../../../../arm-linux-musleabi/lib/libc_kernel.a(rtt_syscall.o)
 .data          0x0000000000000000        0x0 /opt/arm-linux-musleabi/bin/../lib/gcc/arm-linux-musleabi/7.3.0/../../../../arm-linux-musleabi/lib/libc_kernel.a(syscall.o)
 .bss           0x0000000000000000        0x0 /opt/arm-linux-musleabi/bin/../lib/gcc/arm-linux-musleabi/7.3.0/../../../../arm-linux-musleabi/lib/libc_kernel.a(syscall.o)
 .text          0x0000000000000000        0x0 /opt/arm-linux-musleabi/bin/../lib/gcc/arm-linux-musleabi/7.3.0/../../../../arm-linux-musleabi/lib/libc_kernel.a(libc.o)
 .data          0x0000000000000000        0x0 /opt/arm-linux-musleabi/bin/../lib/gcc/arm-linux-musleabi/7.3.0/../../../../arm-linux-musleabi/lib/libc_kernel.a(libc.o)
 .bss           0x0000000000000000        0x0 /opt/arm-linux-musleabi/bin/../lib/gcc/arm-linux-musleabi/7.3.0/../../../../arm-linux-musleabi/lib/libc_kernel.a(libc.o)
 .bss.__progname
                0x0000000000000000        0x4 /opt/arm-linux-musleabi/bin/../lib/gcc/arm-linux-musleabi/7.3.0/../../../../arm-linux-musleabi/lib/libc_kernel.a(libc.o)
 .bss.__progname_full
                0x0000000000000000        0x4 /opt/arm-linux-musleabi/bin/../lib/gcc/arm-linux-musleabi/7.3.0/../../../../arm-linux-musleabi/lib/libc_kernel.a(libc.o)
 .text          0x0000000000000000        0x0 /opt/arm-linux-musleabi/bin/../lib/gcc/arm-linux-musleabi/7.3.0/../../../../arm-linux-musleabi/lib/libc_kernel.a(syscall_ret.o)
 .data          0x0000000000000000        0x0 /opt/arm-linux-musleabi/bin/../lib/gcc/arm-linux-musleabi/7.3.0/../../../../arm-linux-musleabi/lib/libc_kernel.a(syscall_ret.o)
 .bss           0x0000000000000000        0x0 /opt/arm-linux-musleabi/bin/../lib/gcc/arm-linux-musleabi/7.3.0/../../../../arm-linux-musleabi/lib/libc_kernel.a(syscall_ret.o)
 .text          0x0000000000000000        0x0 /opt/arm-linux-musleabi/bin/../lib/gcc/arm-linux-musleabi/7.3.0/../../../../arm-linux-musleabi/lib/libc_kernel.a(__lctrans.o)
 .data          0x0000000000000000        0x0 /opt/arm-linux-musleabi/bin/../lib/gcc/arm-linux-musleabi/7.3.0/../../../../arm-linux-musleabi/lib/libc_kernel.a(__lctrans.o)
 .bss           0x0000000000000000        0x0 /opt/arm-linux-musleabi/bin/../lib/gcc/arm-linux-musleabi/7.3.0/../../../../arm-linux-musleabi/lib/libc_kernel.a(__lctrans.o)
 .text.__lctrans_cur
                0x0000000000000000       0x2c /opt/arm-linux-musleabi/bin/../lib/gcc/arm-linux-musleabi/7.3.0/../../../../arm-linux-musleabi/lib/libc_kernel.a(__lctrans.o)
 .text          0x0000000000000000        0x0 /opt/arm-linux-musleabi/bin/../lib/gcc/arm-linux-musleabi/7.3.0/../../../../arm-linux-musleabi/lib/libc_kernel.a(frexpl.o)
 .data          0x0000000000000000        0x0 /opt/arm-linux-musleabi/bin/../lib/gcc/arm-linux-musleabi/7.3.0/../../../../arm-linux-musleabi/lib/libc_kernel.a(frexpl.o)
 .bss           0x0000000000000000        0x0 /opt/arm-linux-musleabi/bin/../lib/gcc/arm-linux-musleabi/7.3.0/../../../../arm-linux-musleabi/lib/libc_kernel.a(frexpl.o)
 .text          0x0000000000000000        0x0 /opt/arm-linux-musleabi/bin/../lib/gcc/arm-linux-musleabi/7.3.0/../../../../arm-linux-musleabi/lib/libc_kernel.a(wctomb.o)
 .data          0x0000000000000000        0x0 /opt/arm-linux-musleabi/bin/../lib/gcc/arm-linux-musleabi/7.3.0/../../../../arm-linux-musleabi/lib/libc_kernel.a(wctomb.o)
 .bss           0x0000000000000000        0x0 /opt/arm-linux-musleabi/bin/../lib/gcc/arm-linux-musleabi/7.3.0/../../../../arm-linux-musleabi/lib/libc_kernel.a(wctomb.o)
 .text          0x0000000000000000        0x0 /opt/arm-linux-musleabi/bin/../lib/gcc/arm-linux-musleabi/7.3.0/../../../../arm-linux-musleabi/lib/libc_kernel.a(__fdopen.o)
 .data          0x0000000000000000        0x0 /opt/arm-linux-musleabi/bin/../lib/gcc/arm-linux-musleabi/7.3.0/../../../../arm-linux-musleabi/lib/libc_kernel.a(__fdopen.o)
 .bss           0x0000000000000000        0x0 /opt/arm-linux-musleabi/bin/../lib/gcc/arm-linux-musleabi/7.3.0/../../../../arm-linux-musleabi/lib/libc_kernel.a(__fdopen.o)
 .text          0x0000000000000000        0x0 /opt/arm-linux-musleabi/bin/../lib/gcc/arm-linux-musleabi/7.3.0/../../../../arm-linux-musleabi/lib/libc_kernel.a(__fmodeflags.o)
 .data          0x0000000000000000        0x0 /opt/arm-linux-musleabi/bin/../lib/gcc/arm-linux-musleabi/7.3.0/../../../../arm-linux-musleabi/lib/libc_kernel.a(__fmodeflags.o)
 .bss           0x0000000000000000        0x0 /opt/arm-linux-musleabi/bin/../lib/gcc/arm-linux-musleabi/7.3.0/../../../../arm-linux-musleabi/lib/libc_kernel.a(__fmodeflags.o)
 .text          0x0000000000000000        0x0 /opt/arm-linux-musleabi/bin/../lib/gcc/arm-linux-musleabi/7.3.0/../../../../arm-linux-musleabi/lib/libc_kernel.a(__lockfile.o)
 .data          0x0000000000000000        0x0 /opt/arm-linux-musleabi/bin/../lib/gcc/arm-linux-musleabi/7.3.0/../../../../arm-linux-musleabi/lib/libc_kernel.a(__lockfile.o)
 .bss           0x0000000000000000        0x0 /opt/arm-linux-musleabi/bin/../lib/gcc/arm-linux-musleabi/7.3.0/../../../../arm-linux-musleabi/lib/libc_kernel.a(__lockfile.o)
 .text          0x0000000000000000        0x0 /opt/arm-linux-musleabi/bin/../lib/gcc/arm-linux-musleabi/7.3.0/../../../../arm-linux-musleabi/lib/libc_kernel.a(__stdio_close.o)
 .data          0x0000000000000000        0x0 /opt/arm-linux-musleabi/bin/../lib/gcc/arm-linux-musleabi/7.3.0/../../../../arm-linux-musleabi/lib/libc_kernel.a(__stdio_close.o)
 .bss           0x0000000000000000        0x0 /opt/arm-linux-musleabi/bin/../lib/gcc/arm-linux-musleabi/7.3.0/../../../../arm-linux-musleabi/lib/libc_kernel.a(__stdio_close.o)
 .text          0x0000000000000000        0x0 /opt/arm-linux-musleabi/bin/../lib/gcc/arm-linux-musleabi/7.3.0/../../../../arm-linux-musleabi/lib/libc_kernel.a(__stdio_read.o)
 .data          0x0000000000000000        0x0 /opt/arm-linux-musleabi/bin/../lib/gcc/arm-linux-musleabi/7.3.0/../../../../arm-linux-musleabi/lib/libc_kernel.a(__stdio_read.o)
 .bss           0x0000000000000000        0x0 /opt/arm-linux-musleabi/bin/../lib/gcc/arm-linux-musleabi/7.3.0/../../../../arm-linux-musleabi/lib/libc_kernel.a(__stdio_read.o)
 .text          0x0000000000000000        0x0 /opt/arm-linux-musleabi/bin/../lib/gcc/arm-linux-musleabi/7.3.0/../../../../arm-linux-musleabi/lib/libc_kernel.a(__stdio_seek.o)
 .data          0x0000000000000000        0x0 /opt/arm-linux-musleabi/bin/../lib/gcc/arm-linux-musleabi/7.3.0/../../../../arm-linux-musleabi/lib/libc_kernel.a(__stdio_seek.o)
 .bss           0x0000000000000000        0x0 /opt/arm-linux-musleabi/bin/../lib/gcc/arm-linux-musleabi/7.3.0/../../../../arm-linux-musleabi/lib/libc_kernel.a(__stdio_seek.o)
 .text          0x0000000000000000        0x0 /opt/arm-linux-musleabi/bin/../lib/gcc/arm-linux-musleabi/7.3.0/../../../../arm-linux-musleabi/lib/libc_kernel.a(__stdio_write.o)
 .data          0x0000000000000000        0x0 /opt/arm-linux-musleabi/bin/../lib/gcc/arm-linux-musleabi/7.3.0/../../../../arm-linux-musleabi/lib/libc_kernel.a(__stdio_write.o)
 .bss           0x0000000000000000        0x0 /opt/arm-linux-musleabi/bin/../lib/gcc/arm-linux-musleabi/7.3.0/../../../../arm-linux-musleabi/lib/libc_kernel.a(__stdio_write.o)
 .text          0x0000000000000000        0x0 /opt/arm-linux-musleabi/bin/../lib/gcc/arm-linux-musleabi/7.3.0/../../../../arm-linux-musleabi/lib/libc_kernel.a(__stdout_write.o)
 .data          0x0000000000000000        0x0 /opt/arm-linux-musleabi/bin/../lib/gcc/arm-linux-musleabi/7.3.0/../../../../arm-linux-musleabi/lib/libc_kernel.a(__stdout_write.o)
 .bss           0x0000000000000000        0x0 /opt/arm-linux-musleabi/bin/../lib/gcc/arm-linux-musleabi/7.3.0/../../../../arm-linux-musleabi/lib/libc_kernel.a(__stdout_write.o)
 .text          0x0000000000000000        0x0 /opt/arm-linux-musleabi/bin/../lib/gcc/arm-linux-musleabi/7.3.0/../../../../arm-linux-musleabi/lib/libc_kernel.a(__towrite.o)
 .data          0x0000000000000000        0x0 /opt/arm-linux-musleabi/bin/../lib/gcc/arm-linux-musleabi/7.3.0/../../../../arm-linux-musleabi/lib/libc_kernel.a(__towrite.o)
 .bss           0x0000000000000000        0x0 /opt/arm-linux-musleabi/bin/../lib/gcc/arm-linux-musleabi/7.3.0/../../../../arm-linux-musleabi/lib/libc_kernel.a(__towrite.o)
 .text.__towrite_needs_stdio_exit
                0x0000000000000000        0x4 /opt/arm-linux-musleabi/bin/../lib/gcc/arm-linux-musleabi/7.3.0/../../../../arm-linux-musleabi/lib/libc_kernel.a(__towrite.o)
 .text          0x0000000000000000        0x0 /opt/arm-linux-musleabi/bin/../lib/gcc/arm-linux-musleabi/7.3.0/../../../../arm-linux-musleabi/lib/libc_kernel.a(__uflow.o)
 .data          0x0000000000000000        0x0 /opt/arm-linux-musleabi/bin/../lib/gcc/arm-linux-musleabi/7.3.0/../../../../arm-linux-musleabi/lib/libc_kernel.a(__uflow.o)
 .bss           0x0000000000000000        0x0 /opt/arm-linux-musleabi/bin/../lib/gcc/arm-linux-musleabi/7.3.0/../../../../arm-linux-musleabi/lib/libc_kernel.a(__uflow.o)
 .text          0x0000000000000000        0x0 /opt/arm-linux-musleabi/bin/../lib/gcc/arm-linux-musleabi/7.3.0/../../../../arm-linux-musleabi/lib/libc_kernel.a(fwrite.o)
 .data          0x0000000000000000        0x0 /opt/arm-linux-musleabi/bin/../lib/gcc/arm-linux-musleabi/7.3.0/../../../../arm-linux-musleabi/lib/libc_kernel.a(fwrite.o)
 .bss           0x0000000000000000        0x0 /opt/arm-linux-musleabi/bin/../lib/gcc/arm-linux-musleabi/7.3.0/../../../../arm-linux-musleabi/lib/libc_kernel.a(fwrite.o)
 .text.fwrite   0x0000000000000000       0x98 /opt/arm-linux-musleabi/bin/../lib/gcc/arm-linux-musleabi/7.3.0/../../../../arm-linux-musleabi/lib/libc_kernel.a(fwrite.o)
 .text          0x0000000000000000        0x0 /opt/arm-linux-musleabi/bin/../lib/gcc/arm-linux-musleabi/7.3.0/../../../../arm-linux-musleabi/lib/libc_kernel.a(ofl_add.o)
 .data          0x0000000000000000        0x0 /opt/arm-linux-musleabi/bin/../lib/gcc/arm-linux-musleabi/7.3.0/../../../../arm-linux-musleabi/lib/libc_kernel.a(ofl_add.o)
 .bss           0x0000000000000000        0x0 /opt/arm-linux-musleabi/bin/../lib/gcc/arm-linux-musleabi/7.3.0/../../../../arm-linux-musleabi/lib/libc_kernel.a(ofl_add.o)
 .text          0x0000000000000000        0x0 /opt/arm-linux-musleabi/bin/../lib/gcc/arm-linux-musleabi/7.3.0/../../../../arm-linux-musleabi/lib/libc_kernel.a(memchr.o)
 .data          0x0000000000000000        0x0 /opt/arm-linux-musleabi/bin/../lib/gcc/arm-linux-musleabi/7.3.0/../../../../arm-linux-musleabi/lib/libc_kernel.a(memchr.o)
 .bss           0x0000000000000000        0x0 /opt/arm-linux-musleabi/bin/../lib/gcc/arm-linux-musleabi/7.3.0/../../../../arm-linux-musleabi/lib/libc_kernel.a(memchr.o)
 .text          0x0000000000000000        0x0 /opt/arm-linux-musleabi/bin/../lib/gcc/arm-linux-musleabi/7.3.0/../../../../arm-linux-musleabi/lib/libc_kernel.a(memrchr.o)
 .data          0x0000000000000000        0x0 /opt/arm-linux-musleabi/bin/../lib/gcc/arm-linux-musleabi/7.3.0/../../../../arm-linux-musleabi/lib/libc_kernel.a(memrchr.o)
 .bss           0x0000000000000000        0x0 /opt/arm-linux-musleabi/bin/../lib/gcc/arm-linux-musleabi/7.3.0/../../../../arm-linux-musleabi/lib/libc_kernel.a(memrchr.o)
 .text          0x0000000000000000        0x0 /opt/arm-linux-musleabi/bin/../lib/gcc/arm-linux-musleabi/7.3.0/../../../../arm-linux-musleabi/lib/libc_kernel.a(stpncpy.o)
 .data          0x0000000000000000        0x0 /opt/arm-linux-musleabi/bin/../lib/gcc/arm-linux-musleabi/7.3.0/../../../../arm-linux-musleabi/lib/libc_kernel.a(stpncpy.o)
 .bss           0x0000000000000000        0x0 /opt/arm-linux-musleabi/bin/../lib/gcc/arm-linux-musleabi/7.3.0/../../../../arm-linux-musleabi/lib/libc_kernel.a(stpncpy.o)
 .text          0x0000000000000000        0x0 /opt/arm-linux-musleabi/bin/../lib/gcc/arm-linux-musleabi/7.3.0/../../../../arm-linux-musleabi/lib/libc_kernel.a(frexp.o)
 .data          0x0000000000000000        0x0 /opt/arm-linux-musleabi/bin/../lib/gcc/arm-linux-musleabi/7.3.0/../../../../arm-linux-musleabi/lib/libc_kernel.a(frexp.o)
 .bss           0x0000000000000000        0x0 /opt/arm-linux-musleabi/bin/../lib/gcc/arm-linux-musleabi/7.3.0/../../../../arm-linux-musleabi/lib/libc_kernel.a(frexp.o)
 .text          0x0000000000000000        0x0 /opt/arm-linux-musleabi/bin/../lib/gcc/arm-linux-musleabi/7.3.0/../../../../arm-linux-musleabi/lib/libc_kernel.a(wcrtomb.o)
 .data          0x0000000000000000        0x0 /opt/arm-linux-musleabi/bin/../lib/gcc/arm-linux-musleabi/7.3.0/../../../../arm-linux-musleabi/lib/libc_kernel.a(wcrtomb.o)
 .bss           0x0000000000000000        0x0 /opt/arm-linux-musleabi/bin/../lib/gcc/arm-linux-musleabi/7.3.0/../../../../arm-linux-musleabi/lib/libc_kernel.a(wcrtomb.o)
 .text          0x0000000000000000        0x0 /opt/arm-linux-musleabi/bin/../lib/gcc/arm-linux-musleabi/7.3.0/../../../../arm-linux-musleabi/lib/libc_kernel.a(__stdio_exit.o)
 .data          0x0000000000000000        0x0 /opt/arm-linux-musleabi/bin/../lib/gcc/arm-linux-musleabi/7.3.0/../../../../arm-linux-musleabi/lib/libc_kernel.a(__stdio_exit.o)
 .bss           0x0000000000000000        0x0 /opt/arm-linux-musleabi/bin/../lib/gcc/arm-linux-musleabi/7.3.0/../../../../arm-linux-musleabi/lib/libc_kernel.a(__stdio_exit.o)
 .text.close_file
                0x0000000000000000       0x78 /opt/arm-linux-musleabi/bin/../lib/gcc/arm-linux-musleabi/7.3.0/../../../../arm-linux-musleabi/lib/libc_kernel.a(__stdio_exit.o)
 .text.__stdio_exit
                0x0000000000000000       0x5c /opt/arm-linux-musleabi/bin/../lib/gcc/arm-linux-musleabi/7.3.0/../../../../arm-linux-musleabi/lib/libc_kernel.a(__stdio_exit.o)
 .bss.dummy_file
                0x0000000000000000        0x4 /opt/arm-linux-musleabi/bin/../lib/gcc/arm-linux-musleabi/7.3.0/../../../../arm-linux-musleabi/lib/libc_kernel.a(__stdio_exit.o)
 .debug_info    0x0000000000000000      0x3fa /opt/arm-linux-musleabi/bin/../lib/gcc/arm-linux-musleabi/7.3.0/../../../../arm-linux-musleabi/lib/libc_kernel.a(__stdio_exit.o)
 .debug_abbrev  0x0000000000000000      0x173 /opt/arm-linux-musleabi/bin/../lib/gcc/arm-linux-musleabi/7.3.0/../../../../arm-linux-musleabi/lib/libc_kernel.a(__stdio_exit.o)
 .debug_loc     0x0000000000000000       0x47 /opt/arm-linux-musleabi/bin/../lib/gcc/arm-linux-musleabi/7.3.0/../../../../arm-linux-musleabi/lib/libc_kernel.a(__stdio_exit.o)
 .debug_aranges
                0x0000000000000000       0x28 /opt/arm-linux-musleabi/bin/../lib/gcc/arm-linux-musleabi/7.3.0/../../../../arm-linux-musleabi/lib/libc_kernel.a(__stdio_exit.o)
 .debug_ranges  0x0000000000000000       0x18 /opt/arm-linux-musleabi/bin/../lib/gcc/arm-linux-musleabi/7.3.0/../../../../arm-linux-musleabi/lib/libc_kernel.a(__stdio_exit.o)
 .debug_line    0x0000000000000000      0x123 /opt/arm-linux-musleabi/bin/../lib/gcc/arm-linux-musleabi/7.3.0/../../../../arm-linux-musleabi/lib/libc_kernel.a(__stdio_exit.o)
 .debug_str     0x0000000000000000      0x327 /opt/arm-linux-musleabi/bin/../lib/gcc/arm-linux-musleabi/7.3.0/../../../../arm-linux-musleabi/lib/libc_kernel.a(__stdio_exit.o)
 .comment       0x0000000000000000       0x12 /opt/arm-linux-musleabi/bin/../lib/gcc/arm-linux-musleabi/7.3.0/../../../../arm-linux-musleabi/lib/libc_kernel.a(__stdio_exit.o)
 .note.GNU-stack
                0x0000000000000000        0x0 /opt/arm-linux-musleabi/bin/../lib/gcc/arm-linux-musleabi/7.3.0/../../../../arm-linux-musleabi/lib/libc_kernel.a(__stdio_exit.o)
 .debug_frame   0x0000000000000000       0x4c /opt/arm-linux-musleabi/bin/../lib/gcc/arm-linux-musleabi/7.3.0/../../../../arm-linux-musleabi/lib/libc_kernel.a(__stdio_exit.o)
 .ARM.attributes
                0x0000000000000000       0x33 /opt/arm-linux-musleabi/bin/../lib/gcc/arm-linux-musleabi/7.3.0/../../../../arm-linux-musleabi/lib/libc_kernel.a(__stdio_exit.o)
 .text          0x0000000000000000        0x0 /opt/arm-linux-musleabi/bin/../lib/gcc/arm-linux-musleabi/7.3.0/../../../../arm-linux-musleabi/lib/libc_kernel.a(__toread.o)
 .data          0x0000000000000000        0x0 /opt/arm-linux-musleabi/bin/../lib/gcc/arm-linux-musleabi/7.3.0/../../../../arm-linux-musleabi/lib/libc_kernel.a(__toread.o)
 .bss           0x0000000000000000        0x0 /opt/arm-linux-musleabi/bin/../lib/gcc/arm-linux-musleabi/7.3.0/../../../../arm-linux-musleabi/lib/libc_kernel.a(__toread.o)
 .text.__toread_needs_stdio_exit
                0x0000000000000000        0x4 /opt/arm-linux-musleabi/bin/../lib/gcc/arm-linux-musleabi/7.3.0/../../../../arm-linux-musleabi/lib/libc_kernel.a(__toread.o)
 .data          0x0000000000000000        0x0 /opt/arm-linux-musleabi/bin/../lib/gcc/arm-linux-musleabi/7.3.0/libgcc.a(_udivsi3.o)
 .bss           0x0000000000000000        0x0 /opt/arm-linux-musleabi/bin/../lib/gcc/arm-linux-musleabi/7.3.0/libgcc.a(_udivsi3.o)
 .data          0x0000000000000000        0x0 /opt/arm-linux-musleabi/bin/../lib/gcc/arm-linux-musleabi/7.3.0/libgcc.a(_divsi3.o)
 .bss           0x0000000000000000        0x0 /opt/arm-linux-musleabi/bin/../lib/gcc/arm-linux-musleabi/7.3.0/libgcc.a(_divsi3.o)
 .data          0x0000000000000000        0x0 /opt/arm-linux-musleabi/bin/../lib/gcc/arm-linux-musleabi/7.3.0/libgcc.a(_arm_addsubdf3.o)
 .bss           0x0000000000000000        0x0 /opt/arm-linux-musleabi/bin/../lib/gcc/arm-linux-musleabi/7.3.0/libgcc.a(_arm_addsubdf3.o)
 .data          0x0000000000000000        0x0 /opt/arm-linux-musleabi/bin/../lib/gcc/arm-linux-musleabi/7.3.0/libgcc.a(_arm_muldivdf3.o)
 .bss           0x0000000000000000        0x0 /opt/arm-linux-musleabi/bin/../lib/gcc/arm-linux-musleabi/7.3.0/libgcc.a(_arm_muldivdf3.o)
 .data          0x0000000000000000        0x0 /opt/arm-linux-musleabi/bin/../lib/gcc/arm-linux-musleabi/7.3.0/libgcc.a(_arm_cmpdf2.o)
 .bss           0x0000000000000000        0x0 /opt/arm-linux-musleabi/bin/../lib/gcc/arm-linux-musleabi/7.3.0/libgcc.a(_arm_cmpdf2.o)
 .data          0x0000000000000000        0x0 /opt/arm-linux-musleabi/bin/../lib/gcc/arm-linux-musleabi/7.3.0/libgcc.a(_arm_fixdfsi.o)
 .bss           0x0000000000000000        0x0 /opt/arm-linux-musleabi/bin/../lib/gcc/arm-linux-musleabi/7.3.0/libgcc.a(_arm_fixdfsi.o)
 .data          0x0000000000000000        0x0 /opt/arm-linux-musleabi/bin/../lib/gcc/arm-linux-musleabi/7.3.0/libgcc.a(_arm_fixunsdfsi.o)
 .bss           0x0000000000000000        0x0 /opt/arm-linux-musleabi/bin/../lib/gcc/arm-linux-musleabi/7.3.0/libgcc.a(_arm_fixunsdfsi.o)
 .text          0x0000000000000000       0xd4 /opt/arm-linux-musleabi/bin/../lib/gcc/arm-linux-musleabi/7.3.0/libgcc.a(_aeabi_ldivmod.o)
 .data          0x0000000000000000        0x0 /opt/arm-linux-musleabi/bin/../lib/gcc/arm-linux-musleabi/7.3.0/libgcc.a(_aeabi_ldivmod.o)
 .bss           0x0000000000000000        0x0 /opt/arm-linux-musleabi/bin/../lib/gcc/arm-linux-musleabi/7.3.0/libgcc.a(_aeabi_ldivmod.o)
 .note.GNU-stack
                0x0000000000000000        0x0 /opt/arm-linux-musleabi/bin/../lib/gcc/arm-linux-musleabi/7.3.0/libgcc.a(_aeabi_ldivmod.o)
 .debug_line    0x0000000000000000       0x7d /opt/arm-linux-musleabi/bin/../lib/gcc/arm-linux-musleabi/7.3.0/libgcc.a(_aeabi_ldivmod.o)
 .debug_info    0x0000000000000000       0x26 /opt/arm-linux-musleabi/bin/../lib/gcc/arm-linux-musleabi/7.3.0/libgcc.a(_aeabi_ldivmod.o)
 .debug_abbrev  0x0000000000000000       0x14 /opt/arm-linux-musleabi/bin/../lib/gcc/arm-linux-musleabi/7.3.0/libgcc.a(_aeabi_ldivmod.o)
 .debug_aranges
                0x0000000000000000       0x20 /opt/arm-linux-musleabi/bin/../lib/gcc/arm-linux-musleabi/7.3.0/libgcc.a(_aeabi_ldivmod.o)
 .debug_str     0x0000000000000000       0xaa /opt/arm-linux-musleabi/bin/../lib/gcc/arm-linux-musleabi/7.3.0/libgcc.a(_aeabi_ldivmod.o)
 .debug_frame   0x0000000000000000       0x44 /opt/arm-linux-musleabi/bin/../lib/gcc/arm-linux-musleabi/7.3.0/libgcc.a(_aeabi_ldivmod.o)
 .ARM.attributes
                0x0000000000000000       0x18 /opt/arm-linux-musleabi/bin/../lib/gcc/arm-linux-musleabi/7.3.0/libgcc.a(_aeabi_ldivmod.o)
 .data          0x0000000000000000        0x0 /opt/arm-linux-musleabi/bin/../lib/gcc/arm-linux-musleabi/7.3.0/libgcc.a(_aeabi_uldivmod.o)
 .bss           0x0000000000000000        0x0 /opt/arm-linux-musleabi/bin/../lib/gcc/arm-linux-musleabi/7.3.0/libgcc.a(_aeabi_uldivmod.o)
 .data          0x0000000000000000        0x0 /opt/arm-linux-musleabi/bin/../lib/gcc/arm-linux-musleabi/7.3.0/libgcc.a(_dvmd_lnx.o)
 .bss           0x0000000000000000        0x0 /opt/arm-linux-musleabi/bin/../lib/gcc/arm-linux-musleabi/7.3.0/libgcc.a(_dvmd_lnx.o)
 .data          0x0000000000000000        0x0 /opt/arm-linux-musleabi/bin/../lib/gcc/arm-linux-musleabi/7.3.0/libgcc.a(_udivmoddi4.o)
 .bss           0x0000000000000000        0x0 /opt/arm-linux-musleabi/bin/../lib/gcc/arm-linux-musleabi/7.3.0/libgcc.a(_udivmoddi4.o)
 .ARM.extab     0x0000000000000000        0x0 /opt/arm-linux-musleabi/bin/../lib/gcc/arm-linux-musleabi/7.3.0/libgcc.a(_udivmoddi4.o)
 .text          0x0000000000000000        0x0 /opt/arm-linux-musleabi/bin/../lib/gcc/arm-linux-musleabi/7.3.0/../../../../arm-linux-musleabi/lib/libc_kernel.a(raise.o)
 .data          0x0000000000000000        0x0 /opt/arm-linux-musleabi/bin/../lib/gcc/arm-linux-musleabi/7.3.0/../../../../arm-linux-musleabi/lib/libc_kernel.a(raise.o)
 .bss           0x0000000000000000        0x0 /opt/arm-linux-musleabi/bin/../lib/gcc/arm-linux-musleabi/7.3.0/../../../../arm-linux-musleabi/lib/libc_kernel.a(raise.o)
 .text          0x0000000000000000        0x0 /opt/arm-linux-musleabi/bin/../lib/gcc/arm-linux-musleabi/7.3.0/../../../../arm-linux-musleabi/lib/libc_kernel.a(block.o)
 .data          0x0000000000000000        0x0 /opt/arm-linux-musleabi/bin/../lib/gcc/arm-linux-musleabi/7.3.0/../../../../arm-linux-musleabi/lib/libc_kernel.a(block.o)
 .bss           0x0000000000000000        0x0 /opt/arm-linux-musleabi/bin/../lib/gcc/arm-linux-musleabi/7.3.0/../../../../arm-linux-musleabi/lib/libc_kernel.a(block.o)
 .text.__block_all_sigs
                0x0000000000000000       0x38 /opt/arm-linux-musleabi/bin/../lib/gcc/arm-linux-musleabi/7.3.0/../../../../arm-linux-musleabi/lib/libc_kernel.a(block.o)
 .rodata.all_mask
                0x0000000000000000        0x8 /opt/arm-linux-musleabi/bin/../lib/gcc/arm-linux-musleabi/7.3.0/../../../../arm-linux-musleabi/lib/libc_kernel.a(block.o)

Memory Configuration

Name             Origin             Length             Attributes
*default*        0x0000000000000000 0xffffffffffffffff

Linker script and memory map

LOAD /opt/arm-linux-musleabi/bin/../lib/gcc/arm-linux-musleabi/7.3.0/libgcc.a
LOAD build/libcpu/backtrace.o
LOAD build/libcpu/cache.o
LOAD build/libcpu/cpu.o
LOAD build/libcpu/cpuport.o
LOAD build/libcpu/interrupt.o
LOAD build/libcpu/mmu.o
LOAD build/libcpu/page.o
LOAD build/libcpu/rt_low_level_init.o
LOAD build/libcpu/stack.o
LOAD build/libcpu/trap.o
LOAD build/libcpu/context_gcc.o
LOAD build/libcpu/cp15_gcc.o
LOAD build/libcpu/mmu_gcc.o
LOAD build/libcpu/start_gcc.o
LOAD build/drivers/board.o
LOAD build/drivers/drv_clock.o
LOAD build/drivers/drv_gpio.o
LOAD build/drivers/drv_uart.o
LOAD build/drivers/drv_wdg.o
LOAD build/applications/main.o
LOAD build/kernel/src/clock.o
LOAD build/kernel/src/components.o
LOAD build/kernel/src/device.o
LOAD build/kernel/src/idle.o
LOAD build/kernel/src/ipc.o
LOAD build/kernel/src/irq.o
LOAD build/kernel/src/kservice.o
LOAD build/kernel/src/memheap.o
LOAD build/kernel/src/mempool.o
LOAD build/kernel/src/object.o
LOAD build/kernel/src/scheduler.o
LOAD build/kernel/src/signal.o
LOAD build/kernel/src/slab.o
LOAD build/kernel/src/thread.o
LOAD build/kernel/src/timer.o
LOAD build/kernel/components/lwp/ioremap.o
LOAD build/kernel/components/lwp/lwp.o
LOAD build/kernel/components/lwp/lwp_avl.o
LOAD build/kernel/components/lwp/lwp_console.o
LOAD build/kernel/components/lwp/lwp_futex.o
LOAD build/kernel/components/lwp/lwp_ipc.o
LOAD build/kernel/components/lwp/lwp_mm_area.o
LOAD build/kernel/components/lwp/lwp_pid.o
LOAD build/kernel/components/lwp/lwp_pmutex.o
LOAD build/kernel/components/lwp/lwp_shm.o
LOAD build/kernel/components/lwp/lwp_signal.o
LOAD build/kernel/components/lwp/lwp_syscall.o
LOAD build/kernel/components/lwp/lwp_tid.o
LOAD build/kernel/components/lwp/lwp_user_mm.o
LOAD build/kernel/components/lwp/arch/arm/arm926/lwp_gcc.o
LOAD build/kernel/components/lwp/arch/arm/common/reloc.o
LOAD build/kernel/components/lwp/arch/arm/arm926/arch_user_space_init.o
LOAD build/kernel/components/lwp/arch/arm/arm926/arch_user_stack.o
LOAD build/kernel/components/finsh/shell.o
LOAD build/kernel/components/finsh/cmd.o
LOAD build/kernel/components/finsh/msh.o
LOAD build/kernel/components/finsh/msh_file.o
LOAD build/kernel/components/libc/mmap/posix_mmap.o
LOAD build/kernel/components/libc/termios/posix_termios.o
LOAD build/kernel/components/libc/time/clock_time.o
LOAD build/kernel/components/libc/time/posix_sleep.o
LOAD build/kernel/components/libc/aio/posix_aio.o
LOAD build/kernel/components/libc/compilers/musl/libc.o
LOAD build/kernel/components/libc/compilers/musl/mem.o
LOAD build/kernel/components/libc/compilers/musl/stdio.o
LOAD build/kernel/components/libc/compilers/musl/time.o
LOAD build/kernel/components/dfs/src/dfs.o
LOAD build/kernel/components/dfs/src/dfs_file.o
LOAD build/kernel/components/dfs/src/dfs_fs.o
LOAD build/kernel/components/dfs/src/dfs_posix.o
LOAD build/kernel/components/dfs/src/poll.o
LOAD build/kernel/components/dfs/src/select.o
LOAD build/kernel/components/dfs/filesystems/devfs/devfs.o
LOAD build/kernel/components/dfs/filesystems/romfs/dfs_romfs.o
LOAD build/kernel/components/drivers/src/completion.o
LOAD build/kernel/components/drivers/src/dataqueue.o
LOAD build/kernel/components/drivers/src/pipe.o
LOAD build/kernel/components/drivers/src/ringblk_buf.o
LOAD build/kernel/components/drivers/src/ringbuffer.o
LOAD build/kernel/components/drivers/src/waitqueue.o
LOAD build/kernel/components/drivers/src/workqueue.o
LOAD build/kernel/components/drivers/serial/serial.o
LOAD build/kernel/components/drivers/watchdog/watchdog.o
START GROUP
LOAD /opt/arm-linux-musleabi/bin/../lib/gcc/arm-linux-musleabi/7.3.0/../../../../arm-linux-musleabi/lib/libc_kernel.a
LOAD /opt/arm-linux-musleabi/bin/../lib/gcc/arm-linux-musleabi/7.3.0/libgcc.a
END GROUP
LOAD /opt/arm-linux-musleabi/bin/../lib/gcc/arm-linux-musleabi/7.3.0/libgcc.a
LOAD /opt/arm-linux-musleabi/bin/../lib/gcc/arm-linux-musleabi/7.3.0/../../../../arm-linux-musleabi/lib/libgcc_s.so
START GROUP
LOAD /opt/arm-linux-musleabi/bin/../lib/gcc/arm-linux-musleabi/7.3.0/../../../../arm-linux-musleabi/lib/libgcc_s.so.1
LOAD /opt/arm-linux-musleabi/bin/../lib/gcc/arm-linux-musleabi/7.3.0/libgcc.a
END GROUP
LOAD /opt/arm-linux-musleabi/bin/../lib/gcc/arm-linux-musleabi/7.3.0/../../../../arm-linux-musleabi/lib/libc_kernel.a
LOAD /opt/arm-linux-musleabi/bin/../lib/gcc/arm-linux-musleabi/7.3.0/libgcc.a
LOAD /opt/arm-linux-musleabi/bin/../lib/gcc/arm-linux-musleabi/7.3.0/../../../../arm-linux-musleabi/lib/libgcc_s.so
START GROUP
LOAD /opt/arm-linux-musleabi/bin/../lib/gcc/arm-linux-musleabi/7.3.0/../../../../arm-linux-musleabi/lib/libgcc_s.so.1
LOAD /opt/arm-linux-musleabi/bin/../lib/gcc/arm-linux-musleabi/7.3.0/libgcc.a
END GROUP
START GROUP
LOAD /opt/arm-linux-musleabi/bin/../lib/gcc/arm-linux-musleabi/7.3.0/libgcc.a
LOAD /opt/arm-linux-musleabi/bin/../lib/gcc/arm-linux-musleabi/7.3.0/../../../../arm-linux-musleabi/lib/libgcc_s.so
START GROUP
LOAD /opt/arm-linux-musleabi/bin/../lib/gcc/arm-linux-musleabi/7.3.0/../../../../arm-linux-musleabi/lib/libgcc_s.so.1
LOAD /opt/arm-linux-musleabi/bin/../lib/gcc/arm-linux-musleabi/7.3.0/libgcc.a
END GROUP
LOAD /opt/arm-linux-musleabi/bin/../lib/gcc/arm-linux-musleabi/7.3.0/../../../../arm-linux-musleabi/lib/libc_kernel.a
END GROUP
                0x00000000c0000000                . = 0xc0000000
                0x00000000c0000000                __image_start = .
                0x00000000c0000000                __text_start = .

.text           0x00000000c0000000    0x2f4e8
 *(.vectors)
 .vectors       0x00000000c0000000       0x50 build/libcpu/start_gcc.o
                0x00000000c0000010                system_vectors
 build/libcpu/start_gcc.o(.text)
 .text          0x00000000c0000050      0x250 build/libcpu/start_gcc.o
                0x00000000c0000050                reset
                0x00000000c00001e4                enable_mmu
                0x00000000c0000240                set_process_id
 build/libcpu/mmu_gcc.o(.text)
 .text          0x00000000c00002a0       0x44 build/libcpu/mmu_gcc.o
                0x00000000c00002a0                switch_mmu
                0x00000000c00002c0                mmu_tlb_invalidate
                0x00000000c00002dc                mmu_table_get
 build/libcpu/cp15_gcc.o(.text)
 build/libcpu/context_gcc.o(.text)
 .text          0x00000000c00002e4       0x30 build/libcpu/context_gcc.o
                0x00000000c00002e4                rt_hw_interrupt_disable
                0x00000000c00002f4                rt_hw_interrupt_enable
                0x00000000c00002fc                rt_hw_context_switch_to
 *(.text)
 *fill*         0x00000000c0000314        0xc 00000000
 .text          0x00000000c0000320      0x328 build/kernel/components/lwp/arch/arm/arm926/lwp_gcc.o
                0x00000000c0000320                lwp_user_entry
                0x00000000c0000348                set_user_context
                0x00000000c0000380                lwp_set_thread_context
                0x00000000c00003b8                lwp_get_user_sp
                0x00000000c00003c8                sys_fork
                0x00000000c00003c8                sys_vfork
                0x00000000c00003d0                sys_fork_exit
                0x00000000c00003d8                sys_clone
                0x00000000c00003e0                sys_clone_exit
                0x00000000c00003e8                lwp_exec_user
                0x00000000c000040c                vector_swi
                0x00000000c0000474                ret_to_user
                0x00000000c000048c                lwp_check_exit
                0x00000000c000056c                check_vfp
                0x00000000c0000574                get_vfp
                0x00000000c0000578                rt_cpu_get_thread_idr
                0x00000000c0000580                lwp_set_thread_area
                0x00000000c0000580                rt_cpu_set_thread_idr
                0x00000000c00005a0                __kuser_helper_start
                0x00000000c0000640                __kuser_helper_end
 .text          0x00000000c0000648      0x2fc /opt/arm-linux-musleabi/bin/../lib/gcc/arm-linux-musleabi/7.3.0/../../../../arm-linux-musleabi/lib/libc_kernel.a(memcpy_le.o)
                0x00000000c0000648                memcpy
 .text          0x00000000c0000944       0x9c /opt/arm-linux-musleabi/bin/../lib/gcc/arm-linux-musleabi/7.3.0/../../../../arm-linux-musleabi/lib/libc_kernel.a(atomics.o)
                0x00000000c0000944                __a_barrier_dummy
                0x00000000c0000948                __a_barrier_oldkuser
                0x00000000c0000968                __a_barrier_v6
                0x00000000c0000970                __a_barrier_v7
                0x00000000c0000978                __a_cas_dummy
                0x00000000c000098c                __a_cas_v6
                0x00000000c00009b0                __a_cas_v7
                0x00000000c00009d4                __a_gettp_cp15
 .text          0x00000000c00009e0       0x2c /opt/arm-linux-musleabi/bin/../lib/gcc/arm-linux-musleabi/7.3.0/../../../../arm-linux-musleabi/lib/libc_kernel.a(syscall.o)
                0x00000000c00009e0                __syscall
                0x00000000c00009e4                syscall
 .text          0x00000000c0000a0c      0x20c /opt/arm-linux-musleabi/bin/../lib/gcc/arm-linux-musleabi/7.3.0/libgcc.a(_udivsi3.o)
                0x00000000c0000a0c                __udivsi3
                0x00000000c0000a0c                __aeabi_uidiv
                0x00000000c0000bf8                __aeabi_uidivmod
 .text          0x00000000c0000c18      0x240 /opt/arm-linux-musleabi/bin/../lib/gcc/arm-linux-musleabi/7.3.0/libgcc.a(_divsi3.o)
                0x00000000c0000c18                __aeabi_idiv
                0x00000000c0000c18                __divsi3
                0x00000000c0000e38                __aeabi_idivmod
 .text          0x00000000c0000e58      0x3c0 /opt/arm-linux-musleabi/bin/../lib/gcc/arm-linux-musleabi/7.3.0/libgcc.a(_arm_addsubdf3.o)
                0x00000000c0000e58                __aeabi_drsub
                0x00000000c0000e60                __aeabi_dsub
                0x00000000c0000e60                __subdf3
                0x00000000c0000e64                __adddf3
                0x00000000c0000e64                __aeabi_dadd
                0x00000000c0001110                __aeabi_ui2d
                0x00000000c0001110                __floatunsidf
                0x00000000c0001134                __floatsidf
                0x00000000c0001134                __aeabi_i2d
                0x00000000c000115c                __extendsfdf2
                0x00000000c000115c                __aeabi_f2d
                0x00000000c00011a4                __aeabi_ul2d
                0x00000000c00011a4                __floatundidf
                0x00000000c00011b8                __floatdidf
                0x00000000c00011b8                __aeabi_l2d
 .text          0x00000000c0001218      0x470 /opt/arm-linux-musleabi/bin/../lib/gcc/arm-linux-musleabi/7.3.0/libgcc.a(_arm_muldivdf3.o)
                0x00000000c0001218                __aeabi_dmul
                0x00000000c0001218                __muldf3
                0x00000000c0001484                __aeabi_ddiv
                0x00000000c0001484                __divdf3
 .text          0x00000000c0001688      0x12c /opt/arm-linux-musleabi/bin/../lib/gcc/arm-linux-musleabi/7.3.0/libgcc.a(_arm_cmpdf2.o)
                0x00000000c0001688                __gtdf2
                0x00000000c0001688                __gedf2
                0x00000000c0001690                __ltdf2
                0x00000000c0001690                __ledf2
                0x00000000c0001698                __cmpdf2
                0x00000000c0001698                __eqdf2
                0x00000000c0001698                __nedf2
                0x00000000c0001720                __aeabi_cdrcmple
                0x00000000c000173c                __aeabi_cdcmple
                0x00000000c000173c                __aeabi_cdcmpeq
                0x00000000c0001750                __aeabi_dcmpeq
                0x00000000c0001764                __aeabi_dcmplt
                0x00000000c0001778                __aeabi_dcmple
                0x00000000c000178c                __aeabi_dcmpge
                0x00000000c00017a0                __aeabi_dcmpgt
 .text          0x00000000c00017b4       0x5c /opt/arm-linux-musleabi/bin/../lib/gcc/arm-linux-musleabi/7.3.0/libgcc.a(_arm_fixdfsi.o)
                0x00000000c00017b4                __fixdfsi
                0x00000000c00017b4                __aeabi_d2iz
 .text          0x00000000c0001810       0x54 /opt/arm-linux-musleabi/bin/../lib/gcc/arm-linux-musleabi/7.3.0/libgcc.a(_arm_fixunsdfsi.o)
                0x00000000c0001810                __fixunsdfsi
                0x00000000c0001810                __aeabi_d2uiz
 .text          0x00000000c0001864       0x3c /opt/arm-linux-musleabi/bin/../lib/gcc/arm-linux-musleabi/7.3.0/libgcc.a(_aeabi_uldivmod.o)
                0x00000000c0001864                __aeabi_uldivmod
 .text          0x00000000c00018a0       0x10 /opt/arm-linux-musleabi/bin/../lib/gcc/arm-linux-musleabi/7.3.0/libgcc.a(_dvmd_lnx.o)
                0x00000000c00018a0                __aeabi_ldiv0
                0x00000000c00018a0                __aeabi_idiv0
 .text          0x00000000c00018b0      0x158 /opt/arm-linux-musleabi/bin/../lib/gcc/arm-linux-musleabi/7.3.0/libgcc.a(_udivmoddi4.o)
                0x00000000c00018b0                __udivmoddi4
 *(.text.*)
 .text.unwind_frame
                0x00000000c0001a08      0x83c build/libcpu/backtrace.o
                0x00000000c0001a08                unwind_frame
 .text.rt_unwind
                0x00000000c0002244       0x9c build/libcpu/backtrace.o
                0x00000000c0002244                rt_unwind
 .text.rt_hw_cpu_dcache_clean
                0x00000000c00022e0       0x4c build/libcpu/cache.o
                0x00000000c00022e0                rt_hw_cpu_dcache_clean
 .text.rt_hw_cpu_icache_ops
                0x00000000c000232c       0x54 build/libcpu/cache.o
                0x00000000c000232c                rt_hw_cpu_icache_ops
 .text.rt_hw_cpu_dcache_ops
                0x00000000c0002380       0xa4 build/libcpu/cache.o
                0x00000000c0002380                rt_hw_cpu_dcache_ops
 .text.sys_cacheflush
                0x00000000c0002424       0xc8 build/libcpu/cache.o
                0x00000000c0002424                sys_cacheflush
 .text.machine_reset
                0x00000000c00024ec       0x24 build/libcpu/cpu.o
                0x00000000c00024ec                machine_reset
 .text.machine_shutdown
                0x00000000c0002510       0x18 build/libcpu/cpu.o
                0x00000000c0002510                machine_shutdown
 .text.rt_hw_cpu_shutdown
                0x00000000c0002528       0x48 build/libcpu/cpuport.o
                0x00000000c0002528                rt_hw_cpu_shutdown
 .text.rt_hw_interrupt_handler
                0x00000000c0002570       0x10 build/libcpu/interrupt.o
 .text.rt_hw_interrupt_init
                0x00000000c0002580       0xb8 build/libcpu/interrupt.o
                0x00000000c0002580                rt_hw_interrupt_init
 .text.rt_hw_interrupt_mask
                0x00000000c0002638       0x38 build/libcpu/interrupt.o
                0x00000000c0002638                rt_hw_interrupt_mask
 .text.rt_hw_interrupt_umask
                0x00000000c0002670       0x38 build/libcpu/interrupt.o
                0x00000000c0002670                rt_hw_interrupt_umask
 .text.rt_hw_interrupt_install
                0x00000000c00026a8       0x9c build/libcpu/interrupt.o
                0x00000000c00026a8                rt_hw_interrupt_install
 .text.rt_hw_interrupt_control
                0x00000000c0002744       0x64 build/libcpu/interrupt.o
                0x00000000c0002744                rt_hw_interrupt_control
 .text.rt_interrupt_dispatch
                0x00000000c00027a8       0x80 build/libcpu/interrupt.o
                0x00000000c00027a8                rt_interrupt_dispatch
 .text.__rt_hw_mmu_unmap
                0x00000000c0002828      0x100 build/libcpu/mmu.o
 .text.rt_hw_init_mmu_table
                0x00000000c0002928       0xb0 build/libcpu/mmu.o
                0x00000000c0002928                rt_hw_init_mmu_table
 .text.rt_hw_mmu_map_init
                0x00000000c00029d8       0xa8 build/libcpu/mmu.o
                0x00000000c00029d8                rt_hw_mmu_map_init
 .text.rt_hw_mmu_ioremap_init
                0x00000000c0002a80        0x8 build/libcpu/mmu.o
                0x00000000c0002a80                rt_hw_mmu_ioremap_init
 .text._rt_hw_mmu_map
                0x00000000c0002a88      0x30c build/libcpu/mmu.o
                0x00000000c0002a88                _rt_hw_mmu_map
 .text._rt_hw_mmu_map_auto
                0x00000000c0002d94      0x3a0 build/libcpu/mmu.o
                0x00000000c0002d94                _rt_hw_mmu_map_auto
 .text.rt_hw_mmu_map
                0x00000000c0003134       0x54 build/libcpu/mmu.o
                0x00000000c0003134                rt_hw_mmu_map
 .text.rt_hw_mmu_map_auto
                0x00000000c0003188       0x44 build/libcpu/mmu.o
                0x00000000c0003188                rt_hw_mmu_map_auto
 .text.rt_hw_mmu_unmap
                0x00000000c00031cc      0x12c build/libcpu/mmu.o
                0x00000000c00031cc                rt_hw_mmu_unmap
 .text.rt_hw_mmu_v2p
                0x00000000c00032f8       0xa4 build/libcpu/mmu.o
                0x00000000c00032f8                rt_hw_mmu_v2p
 .text.init_mm_setup
                0x00000000c000339c       0x88 build/libcpu/mmu.o
                0x00000000c000339c                init_mm_setup
 .text.list_page
                0x00000000c0003424       0xcc build/libcpu/page.o
                0x00000000c0003424                list_page
 .text.rt_page_bits
                0x00000000c00034f0       0x28 build/libcpu/page.o
                0x00000000c00034f0                rt_page_bits
 .text.rt_page_ref_inc
                0x00000000c0003518       0xa0 build/libcpu/page.o
                0x00000000c0003518                rt_page_ref_inc
 .text.rt_pages_alloc
                0x00000000c00035b8      0x1a0 build/libcpu/page.o
                0x00000000c00035b8                rt_pages_alloc
 .text.rt_pages_free
                0x00000000c0003758      0x1e8 build/libcpu/page.o
                0x00000000c0003758                rt_pages_free
 .text.rt_page_init
                0x00000000c0003940      0x2ac build/libcpu/page.o
                0x00000000c0003940                rt_page_init
 .text.rt_low_level_init
                0x00000000c0003bec       0x64 build/libcpu/rt_low_level_init.o
                0x00000000c0003bec                rt_low_level_init
 .text.rt_hw_stack_init
                0x00000000c0003c50       0x74 build/libcpu/stack.o
                0x00000000c0003c50                rt_hw_stack_init
 .text.rt_hw_trap_undef
                0x00000000c0003cc4      0x128 build/libcpu/trap.o
                0x00000000c0003cc4                rt_hw_trap_undef
 .text.rt_hw_trap_swi
                0x00000000c0003dec       0xe4 build/libcpu/trap.o
                0x00000000c0003dec                rt_hw_trap_swi
 .text.rt_hw_trap_pabt
                0x00000000c0003ed0      0x128 build/libcpu/trap.o
                0x00000000c0003ed0                rt_hw_trap_pabt
 .text.rt_hw_trap_dabt
                0x00000000c0003ff8      0x14c build/libcpu/trap.o
                0x00000000c0003ff8                rt_hw_trap_dabt
 .text.rt_hw_trap_resv
                0x00000000c0004144       0xe4 build/libcpu/trap.o
                0x00000000c0004144                rt_hw_trap_resv
 .text.rt_hw_trap_irq
                0x00000000c0004228        0x4 build/libcpu/trap.o
                0x00000000c0004228                rt_hw_trap_irq
 .text.rt_hw_trap_fiq
                0x00000000c000422c        0x4 build/libcpu/trap.o
                0x00000000c000422c                rt_hw_trap_fiq
 .text.isr      0x00000000c0004230       0xa4 build/libcpu/context_gcc.o
                0x00000000c0004230                rt_hw_context_switch
                0x00000000c0004268                rt_hw_context_switch_interrupt
                0x00000000c0004294                rt_hw_context_switch_exit
 *fill*         0x00000000c00042d4        0xc 00000000
 .text.isr      0x00000000c00042e0      0x35c build/libcpu/start_gcc.o
                0x00000000c00042e0                vector_fiq
                0x00000000c0004300                vector_irq
                0x00000000c0004480                vector_undef
                0x00000000c00044e0                vector_pabt
                0x00000000c0004560                vector_dabt
                0x00000000c00045e0                vector_resv
                0x00000000c0004624                rt_clz
 .text.os_clock_irq_handle
                0x00000000c000463c       0x1c build/drivers/board.o
 .text.rt_hw_board_init
                0x00000000c0004658      0x130 build/drivers/board.o
                0x00000000c0004658                rt_hw_board_init
 .text.ccu_init
                0x00000000c0004788       0x24 build/drivers/drv_clock.o
                0x00000000c0004788                ccu_init
 .text.apb_get_clk
                0x00000000c00047ac      0x180 build/drivers/drv_clock.o
                0x00000000c00047ac                apb_get_clk
 .text.bus_gate_clk_enalbe
                0x00000000c000492c       0x80 build/drivers/drv_clock.o
                0x00000000c000492c                bus_gate_clk_enalbe
 .text.bus_software_reset_disalbe
                0x00000000c00049ac       0x80 build/drivers/drv_clock.o
                0x00000000c00049ac                bus_software_reset_disalbe
 .text.bus_software_reset_enalbe
                0x00000000c0004a2c       0x80 build/drivers/drv_clock.o
                0x00000000c0004a2c                bus_software_reset_enalbe
 .text.gpio_irq_handler
                0x00000000c0004aac       0x7c build/drivers/drv_gpio.o
 .text.gpio_set_func
                0x00000000c0004b28       0xc8 build/drivers/drv_gpio.o
                0x00000000c0004b28                gpio_set_func
 .text.rt_hw_gpio_init
                0x00000000c0004bf0       0x98 build/drivers/drv_gpio.o
                0x00000000c0004bf0                rt_hw_gpio_init
 .text.uart_putc
                0x00000000c0004c88       0x24 build/drivers/drv_uart.o
 .text.uart_getc
                0x00000000c0004cac       0x20 build/drivers/drv_uart.o
 .text.uart_dma_transmit
                0x00000000c0004ccc        0x8 build/drivers/drv_uart.o
 .text.uart_control
                0x00000000c0004cd4       0x94 build/drivers/drv_uart.o
 .text.uart_configure
                0x00000000c0004d68      0x1c0 build/drivers/drv_uart.o
 .text.uart_irq_handler
                0x00000000c0004f28       0xec build/drivers/drv_uart.o
                0x00000000c0004f28                uart_irq_handler
 .text.rt_hw_uart_init
                0x00000000c0005014       0xac build/drivers/drv_uart.o
                0x00000000c0005014                rt_hw_uart_init
 .text.watchdog_init
                0x00000000c00050c0       0x4c build/drivers/drv_wdg.o
 .text.watchdog_ctrl
                0x00000000c000510c       0xf8 build/drivers/drv_wdg.o
 .text.rt_hw_wdt_init
                0x00000000c0005204       0x88 build/drivers/drv_wdg.o
                0x00000000c0005204                rt_hw_wdt_init
 .text.hw_watchdog_init
                0x00000000c000528c       0x34 build/drivers/drv_wdg.o
                0x00000000c000528c                hw_watchdog_init
 .text.hw_watchdog_start
                0x00000000c00052c0       0x38 build/drivers/drv_wdg.o
                0x00000000c00052c0                hw_watchdog_start
 .text.startup.main
                0x00000000c00052f8       0x1c build/applications/main.o
                0x00000000c00052f8                main
 .text.rt_tick_get
                0x00000000c0005314       0x10 build/kernel/src/clock.o
                0x00000000c0005314                rt_tick_get
 .text.rt_tick_sethook
                0x00000000c0005324       0x10 build/kernel/src/clock.o
                0x00000000c0005324                rt_tick_sethook
 .text.rt_tick_increase
                0x00000000c0005334       0x68 build/kernel/src/clock.o
                0x00000000c0005334                rt_tick_increase
 .text.rt_tick_from_millisecond
                0x00000000c000539c       0x5c build/kernel/src/clock.o
                0x00000000c000539c                rt_tick_from_millisecond
 .text.rti_start
                0x00000000c00053f8        0x8 build/kernel/src/components.o
 .text.main_thread_entry
                0x00000000c0005400       0x48 build/kernel/src/components.o
                0x00000000c0005400                main_thread_entry
 .text.rti_end  0x00000000c0005448        0x8 build/kernel/src/components.o
 .text.rti_board_start
                0x00000000c0005450        0x8 build/kernel/src/components.o
 .text.rti_board_end
                0x00000000c0005458        0x8 build/kernel/src/components.o
 .text.rt_components_board_init
                0x00000000c0005460       0x44 build/kernel/src/components.o
                0x00000000c0005460                rt_components_board_init
 .text.rtthread_startup
                0x00000000c00054a4       0x90 build/kernel/src/components.o
                0x00000000c00054a4                rtthread_startup
 .text.rt_device_register
                0x00000000c0005534       0xf8 build/kernel/src/device.o
                0x00000000c0005534                rt_device_register
 .text.rt_device_unregister
                0x00000000c000562c       0x80 build/kernel/src/device.o
                0x00000000c000562c                rt_device_unregister
 .text.rt_device_find
                0x00000000c00056ac       0xb0 build/kernel/src/device.o
                0x00000000c00056ac                rt_device_find
 .text.rt_device_init
                0x00000000c000575c       0x90 build/kernel/src/device.o
                0x00000000c000575c                rt_device_init
 .text.rt_device_open
                0x00000000c00057ec      0x148 build/kernel/src/device.o
                0x00000000c00057ec                rt_device_open
 .text.rt_device_close
                0x00000000c0005934       0xb8 build/kernel/src/device.o
                0x00000000c0005934                rt_device_close
 .text.rt_device_read
                0x00000000c00059ec       0xb0 build/kernel/src/device.o
                0x00000000c00059ec                rt_device_read
 .text.rt_device_write
                0x00000000c0005a9c       0xb4 build/kernel/src/device.o
                0x00000000c0005a9c                rt_device_write
 .text.rt_device_control
                0x00000000c0005b50       0x84 build/kernel/src/device.o
                0x00000000c0005b50                rt_device_control
 .text.rt_device_set_rx_indicate
                0x00000000c0005bd4       0x64 build/kernel/src/device.o
                0x00000000c0005bd4                rt_device_set_rx_indicate
 .text.rt_thread_idle_entry
                0x00000000c0005c38      0x134 build/kernel/src/idle.o
 .text.rt_thread_defunct_enqueue
                0x00000000c0005d6c       0x24 build/kernel/src/idle.o
                0x00000000c0005d6c                rt_thread_defunct_enqueue
 .text.rt_thread_idle_init
                0x00000000c0005d90       0x70 build/kernel/src/idle.o
                0x00000000c0005d90                rt_thread_idle_init
 .text._rt_mb_send_wait
                0x00000000c0005e00      0x320 build/kernel/src/ipc.o
 .text._rt_mb_recv
                0x00000000c0006120      0x360 build/kernel/src/ipc.o
 .text._rt_mq_recv
                0x00000000c0006480      0x3bc build/kernel/src/ipc.o
 .text._rt_mq_send_wait
                0x00000000c000683c      0x3c0 build/kernel/src/ipc.o
 .text.rt_sem_init
                0x00000000c0006bfc       0x7c build/kernel/src/ipc.o
                0x00000000c0006bfc                rt_sem_init
 .text.rt_sem_create
                0x00000000c0006c78       0xb0 build/kernel/src/ipc.o
                0x00000000c0006c78                rt_sem_create
 .text.rt_sem_delete
                0x00000000c0006d28      0x120 build/kernel/src/ipc.o
                0x00000000c0006d28                rt_sem_delete
 .text.rt_sem_take
                0x00000000c0006e48      0x264 build/kernel/src/ipc.o
                0x00000000c0006e48                rt_sem_take
 .text.rt_sem_take_interruptible
                0x00000000c00070ac      0x264 build/kernel/src/ipc.o
                0x00000000c00070ac                rt_sem_take_interruptible
 .text.rt_sem_trytake
                0x00000000c0007310      0x268 build/kernel/src/ipc.o
                0x00000000c0007310                rt_sem_trytake
 .text.rt_sem_release
                0x00000000c0007578       0xe0 build/kernel/src/ipc.o
                0x00000000c0007578                rt_sem_release
 .text.rt_mutex_init
                0x00000000c0007658       0x6c build/kernel/src/ipc.o
                0x00000000c0007658                rt_mutex_init
 .text.rt_mutex_detach
                0x00000000c00076c4       0xcc build/kernel/src/ipc.o
                0x00000000c00076c4                rt_mutex_detach
 .text.rt_mutex_create
                0x00000000c0007790       0x94 build/kernel/src/ipc.o
                0x00000000c0007790                rt_mutex_create
 .text.rt_mutex_delete
                0x00000000c0007824      0x120 build/kernel/src/ipc.o
                0x00000000c0007824                rt_mutex_delete
 .text.rt_mutex_take
                0x00000000c0007944      0x2ec build/kernel/src/ipc.o
                0x00000000c0007944                rt_mutex_take
 .text.rt_mutex_take_interruptible
                0x00000000c0007c30      0x2ec build/kernel/src/ipc.o
                0x00000000c0007c30                rt_mutex_take_interruptible
 .text.rt_mutex_release
                0x00000000c0007f1c      0x228 build/kernel/src/ipc.o
                0x00000000c0007f1c                rt_mutex_release
 .text.rt_event_create
                0x00000000c0008144       0x88 build/kernel/src/ipc.o
                0x00000000c0008144                rt_event_create
 .text.rt_event_delete
                0x00000000c00081cc      0x110 build/kernel/src/ipc.o
                0x00000000c00081cc                rt_event_delete
 .text.rt_event_send
                0x00000000c00082dc      0x170 build/kernel/src/ipc.o
                0x00000000c00082dc                rt_event_send
 .text.rt_event_recv
                0x00000000c000844c      0x30c build/kernel/src/ipc.o
                0x00000000c000844c                rt_event_recv
 .text.rt_mb_create
                0x00000000c0008758       0xd4 build/kernel/src/ipc.o
                0x00000000c0008758                rt_mb_create
 .text.rt_mb_delete
                0x00000000c000882c      0x168 build/kernel/src/ipc.o
                0x00000000c000882c                rt_mb_delete
 .text.rt_mb_send_wait
                0x00000000c0008994        0x8 build/kernel/src/ipc.o
                0x00000000c0008994                rt_mb_send_wait
 .text.rt_mb_send
                0x00000000c000899c        0xc build/kernel/src/ipc.o
                0x00000000c000899c                rt_mb_send
 .text.rt_mb_recv
                0x00000000c00089a8        0x8 build/kernel/src/ipc.o
                0x00000000c00089a8                rt_mb_recv
 .text.rt_mq_create
                0x00000000c00089b0      0x13c build/kernel/src/ipc.o
                0x00000000c00089b0                rt_mq_create
 .text.rt_mq_delete
                0x00000000c0008aec      0x168 build/kernel/src/ipc.o
                0x00000000c0008aec                rt_mq_delete
 .text.rt_mq_send
                0x00000000c0008c54       0x20 build/kernel/src/ipc.o
                0x00000000c0008c54                rt_mq_send
 .text.rt_mq_urgent
                0x00000000c0008c74      0x190 build/kernel/src/ipc.o
                0x00000000c0008c74                rt_mq_urgent
 .text.rt_mq_recv
                0x00000000c0008e04       0x1c build/kernel/src/ipc.o
                0x00000000c0008e04                rt_mq_recv
 .text.rt_interrupt_enter
                0x00000000c0008e20       0x48 build/kernel/src/irq.o
                0x00000000c0008e20                rt_interrupt_enter
 .text.rt_interrupt_leave
                0x00000000c0008e68       0x48 build/kernel/src/irq.o
                0x00000000c0008e68                rt_interrupt_leave
 .text.rt_interrupt_get_nest
                0x00000000c0008eb0       0x24 build/kernel/src/irq.o
                0x00000000c0008eb0                rt_interrupt_get_nest
 .text.print_number
                0x00000000c0008ed4      0x690 build/kernel/src/kservice.o
 .text.rt_get_errno
                0x00000000c0009564       0x34 build/kernel/src/kservice.o
                0x00000000c0009564                rt_get_errno
 .text.rt_set_errno
                0x00000000c0009598       0x90 build/kernel/src/kservice.o
                0x00000000c0009598                rt_set_errno
 .text._rt_errno
                0x00000000c0009628       0x30 build/kernel/src/kservice.o
                0x00000000c0009628                _rt_errno
 .text.___errno_location
                0x00000000c0009658       0x30 build/kernel/src/kservice.o
                0x00000000c0009658                ___errno_location
 .text.rt_memset
                0x00000000c0009688       0xc4 build/kernel/src/kservice.o
                0x00000000c0009688                rt_memset
 .text.rt_memcpy
                0x00000000c000974c      0x1a0 build/kernel/src/kservice.o
                0x00000000c000974c                rt_memcpy
 .text.rt_memmove
                0x00000000c00098ec      0x10c build/kernel/src/kservice.o
                0x00000000c00098ec                rt_memmove
 .text.rt_strncpy
                0x00000000c00099f8       0x48 build/kernel/src/kservice.o
                0x00000000c00099f8                rt_strncpy
 .text.rt_strncmp
                0x00000000c0009a40       0x8c build/kernel/src/kservice.o
                0x00000000c0009a40                rt_strncmp
 .text.rt_strcmp
                0x00000000c0009acc       0x34 build/kernel/src/kservice.o
                0x00000000c0009acc                rt_strcmp
 .text.rt_strlen
                0x00000000c0009b00       0x2c build/kernel/src/kservice.o
                0x00000000c0009b00                rt_strlen
 .text.rt_strdup
                0x00000000c0009b2c      0x1f8 build/kernel/src/kservice.o
                0x00000000c0009b2c                rt_strdup
 .text.rt_vsnprintf
                0x00000000c0009d24      0x82c build/kernel/src/kservice.o
                0x00000000c0009d24                rt_vsnprintf
 .text.rt_snprintf
                0x00000000c000a550       0x30 build/kernel/src/kservice.o
                0x00000000c000a550                rt_snprintf
 .text.rt_sprintf
                0x00000000c000a580       0x34 build/kernel/src/kservice.o
                0x00000000c000a580                rt_sprintf
 .text.rt_console_get_device
                0x00000000c000a5b4       0x10 build/kernel/src/kservice.o
                0x00000000c000a5b4                rt_console_get_device
 .text.rt_console_set_device
                0x00000000c000a5c4       0x54 build/kernel/src/kservice.o
                0x00000000c000a5c4                rt_console_set_device
 .text.rt_hw_console_output
                0x00000000c000a618        0x4 build/kernel/src/kservice.o
                0x00000000c000a618                rt_hw_console_output
 .text.rt_kprintf
                0x00000000c000a61c       0x98 build/kernel/src/kservice.o
                0x00000000c000a61c                rt_kprintf
 .text.rt_show_version
                0x00000000c000a6b4       0x58 build/kernel/src/kservice.o
                0x00000000c000a6b4                rt_show_version
 .text.rt_free_align
                0x00000000c000a70c        0x8 build/kernel/src/kservice.o
                0x00000000c000a70c                rt_free_align
 .text.__rt_ffs
                0x00000000c000a714       0x64 build/kernel/src/kservice.o
                0x00000000c000a714                __rt_ffs
 .text.rt_assert_handler
                0x00000000c000a778       0x5c build/kernel/src/kservice.o
                0x00000000c000a778                rt_assert_handler
 .text.rt_mp_create
                0x00000000c000a7d4      0x164 build/kernel/src/mempool.o
                0x00000000c000a7d4                rt_mp_create
 .text.rt_mp_free
                0x00000000c000a938       0x8c build/kernel/src/mempool.o
                0x00000000c000a938                rt_mp_free
 .text.rt_object_get_information
                0x00000000c000a9c4      0x100 build/kernel/src/object.o
                0x00000000c000a9c4                rt_object_get_information
 .text.rt_object_get_length
                0x00000000c000aac4      0x140 build/kernel/src/object.o
                0x00000000c000aac4                rt_object_get_length
 .text.rt_object_get_pointers
                0x00000000c000ac04      0x184 build/kernel/src/object.o
                0x00000000c000ac04                rt_object_get_pointers
 .text.rt_object_init
                0x00000000c000ad88      0x218 build/kernel/src/object.o
                0x00000000c000ad88                rt_object_init
 .text.rt_object_detach
                0x00000000c000afa0       0x7c build/kernel/src/object.o
                0x00000000c000afa0                rt_object_detach
 .text.rt_object_allocate
                0x00000000c000b01c      0x1f8 build/kernel/src/object.o
                0x00000000c000b01c                rt_object_allocate
 .text.rt_object_delete
                0x00000000c000b214       0xa8 build/kernel/src/object.o
                0x00000000c000b214                rt_object_delete
 .text.rt_object_is_systemobject
                0x00000000c000b2bc       0x38 build/kernel/src/object.o
                0x00000000c000b2bc                rt_object_is_systemobject
 .text.rt_object_get_type
                0x00000000c000b2f4       0x38 build/kernel/src/object.o
                0x00000000c000b2f4                rt_object_get_type
 .text.rt_custom_object_create
                0x00000000c000b32c       0x28 build/kernel/src/object.o
                0x00000000c000b32c                rt_custom_object_create
 .text.rt_custom_object_destroy
                0x00000000c000b354       0xc8 build/kernel/src/object.o
                0x00000000c000b354                rt_custom_object_destroy
 .text.rt_system_scheduler_init
                0x00000000c000b41c       0x44 build/kernel/src/scheduler.o
                0x00000000c000b41c                rt_system_scheduler_init
 .text.rt_system_scheduler_start
                0x00000000c000b460       0xb0 build/kernel/src/scheduler.o
                0x00000000c000b460                rt_system_scheduler_start
 .text.rt_schedule
                0x00000000c000b510      0x2f0 build/kernel/src/scheduler.o
                0x00000000c000b510                rt_schedule
 .text.rt_schedule_insert_thread
                0x00000000c000b800       0xa8 build/kernel/src/scheduler.o
                0x00000000c000b800                rt_schedule_insert_thread
 .text.rt_schedule_remove_thread
                0x00000000c000b8a8       0x84 build/kernel/src/scheduler.o
                0x00000000c000b8a8                rt_schedule_remove_thread
 .text.rt_enter_critical
                0x00000000c000b92c       0x24 build/kernel/src/scheduler.o
                0x00000000c000b92c                rt_enter_critical
 .text.rt_exit_critical
                0x00000000c000b950       0x5c build/kernel/src/scheduler.o
                0x00000000c000b950                rt_exit_critical
 .text.rt_thread_handle_sig
                0x00000000c000b9ac       0xd8 build/kernel/src/signal.o
                0x00000000c000b9ac                rt_thread_handle_sig
 .text.rt_thread_free_sig
                0x00000000c000ba84       0x54 build/kernel/src/signal.o
                0x00000000c000ba84                rt_thread_free_sig
 .text.rt_system_signal_init
                0x00000000c000bad8       0x7c build/kernel/src/signal.o
                0x00000000c000bad8                rt_system_signal_init
 .text.list_mem
                0x00000000c000bb54       0x60 build/kernel/src/slab.o
                0x00000000c000bb54                list_mem
 .text.rt_page_free
                0x00000000c000bbb4      0x19c build/kernel/src/slab.o
                0x00000000c000bbb4                rt_page_free
 .text.rt_system_heap_init
                0x00000000c000bd50      0x24c build/kernel/src/slab.o
                0x00000000c000bd50                rt_system_heap_init
 .text.rt_malloc
                0x00000000c000bf9c      0x50c build/kernel/src/slab.o
                0x00000000c000bf9c                rt_malloc
 .text.rt_calloc
                0x00000000c000c4a8      0x52c build/kernel/src/slab.o
                0x00000000c000c4a8                rt_calloc
 .text.rt_free  0x00000000c000c9d4      0x248 build/kernel/src/slab.o
                0x00000000c000c9d4                rt_free
 .text.rt_realloc
                0x00000000c000cc1c      0x1ec build/kernel/src/slab.o
                0x00000000c000cc1c                rt_realloc
 .text.rt_thread_exit
                0x00000000c000ce08       0x6c build/kernel/src/thread.o
                0x00000000c000ce08                rt_thread_exit
 .text.rt_thread_timeout
                0x00000000c000ce74       0xb4 build/kernel/src/thread.o
                0x00000000c000ce74                rt_thread_timeout
 .text.rt_thread_init
                0x00000000c000cf28      0x1c4 build/kernel/src/thread.o
                0x00000000c000cf28                rt_thread_init
 .text.rt_thread_self
                0x00000000c000d0ec       0x10 build/kernel/src/thread.o
                0x00000000c000d0ec                rt_thread_self
 .text.rt_thread_startup
                0x00000000c000d0fc      0x14c build/kernel/src/thread.o
                0x00000000c000d0fc                rt_thread_startup
 .text.rt_thread_detach
                0x00000000c000d248       0xfc build/kernel/src/thread.o
                0x00000000c000d248                rt_thread_detach
 .text.rt_thread_create
                0x00000000c000d344      0x198 build/kernel/src/thread.o
                0x00000000c000d344                rt_thread_create
 .text.rt_thread_delete
                0x00000000c000d4dc       0xd0 build/kernel/src/thread.o
                0x00000000c000d4dc                rt_thread_delete
 .text.rt_thread_delay
                0x00000000c000d5ac      0x1c0 build/kernel/src/thread.o
                0x00000000c000d5ac                rt_thread_delay
 .text.rt_thread_control
                0x00000000c000d76c      0x2fc build/kernel/src/thread.o
                0x00000000c000d76c                rt_thread_control
 .text.rt_thread_suspend_with_flag
                0x00000000c000da68      0x168 build/kernel/src/thread.o
                0x00000000c000da68                rt_thread_suspend_with_flag
 .text.rt_thread_mdelay
                0x00000000c000dbd0       0xc0 build/kernel/src/thread.o
                0x00000000c000dbd0                rt_thread_mdelay
 .text.rt_thread_resume
                0x00000000c000dc90       0xdc build/kernel/src/thread.o
                0x00000000c000dc90                rt_thread_resume
 .text.rt_thread_wakeup
                0x00000000c000dd6c      0x13c build/kernel/src/thread.o
                0x00000000c000dd6c                rt_thread_wakeup
 .text.rt_thread_wakeup_set
                0x00000000c000dea8       0x70 build/kernel/src/thread.o
                0x00000000c000dea8                rt_thread_wakeup_set
 .text.rt_thread_find
                0x00000000c000df18       0xb8 build/kernel/src/thread.o
                0x00000000c000df18                rt_thread_find
 .text.rt_timer_init
                0x00000000c000dfd0       0x78 build/kernel/src/timer.o
                0x00000000c000dfd0                rt_timer_init
 .text.rt_timer_detach
                0x00000000c000e048       0xb4 build/kernel/src/timer.o
                0x00000000c000e048                rt_timer_detach
 .text.rt_timer_create
                0x00000000c000e0fc       0x54 build/kernel/src/timer.o
                0x00000000c000e0fc                rt_timer_create
 .text.rt_timer_delete
                0x00000000c000e150       0xbc build/kernel/src/timer.o
                0x00000000c000e150                rt_timer_delete
 .text.rt_timer_start
                0x00000000c000e20c      0x1a8 build/kernel/src/timer.o
                0x00000000c000e20c                rt_timer_start
 .text.rt_timer_stop
                0x00000000c000e3b4       0xd4 build/kernel/src/timer.o
                0x00000000c000e3b4                rt_timer_stop
 .text.rt_timer_control
                0x00000000c000e488      0x110 build/kernel/src/timer.o
                0x00000000c000e488                rt_timer_control
 .text.rt_timer_check
                0x00000000c000e598      0x138 build/kernel/src/timer.o
                0x00000000c000e598                rt_timer_check
 .text.rt_soft_timer_check
                0x00000000c000e6d0      0x154 build/kernel/src/timer.o
                0x00000000c000e6d0                rt_soft_timer_check
 .text.rt_thread_timer_entry
                0x00000000c000e824       0x64 build/kernel/src/timer.o
 .text.rt_system_timer_init
                0x00000000c000e888       0x14 build/kernel/src/timer.o
                0x00000000c000e888                rt_system_timer_init
 .text.rt_system_timer_thread_init
                0x00000000c000e89c       0x70 build/kernel/src/timer.o
                0x00000000c000e89c                rt_system_timer_thread_init
 .text.rt_ioremap
                0x00000000c000e90c       0xd0 build/kernel/components/lwp/ioremap.o
                0x00000000c000e90c                rt_ioremap
 .text.lwp_thread_entry
                0x00000000c000e9dc       0x40 build/kernel/components/lwp/lwp.o
 .text.lwp_cleanup
                0x00000000c000ea1c       0x54 build/kernel/components/lwp/lwp.o
                0x00000000c000ea1c                lwp_cleanup
 .text.load_fread.constprop.2
                0x00000000c000ea70       0x78 build/kernel/components/lwp/lwp.o
 .text.lwp_argscopy
                0x00000000c000eae8      0x27c build/kernel/components/lwp/lwp.o
                0x00000000c000eae8                lwp_argscopy
 .text.lwp_load
                0x00000000c000ed64      0xd34 build/kernel/components/lwp/lwp.o
                0x00000000c000ed64                lwp_load
 .text.lwp_self
                0x00000000c000fa98       0x14 build/kernel/components/lwp/lwp.o
                0x00000000c000fa98                lwp_self
 .text.lwp_execve
                0x00000000c000faac      0x290 build/kernel/components/lwp/lwp.o
                0x00000000c000faac                lwp_execve
 .text.exec     0x00000000c000fd3c      0x3f0 build/kernel/components/lwp/lwp.o
                0x00000000c000fd3c                exec
 .text.lwp_avl_rebalance
                0x00000000c001012c      0x1b8 build/kernel/components/lwp/lwp_avl.o
 .text.lwp_avl_remove
                0x00000000c00102e4       0xe8 build/kernel/components/lwp/lwp_avl.o
                0x00000000c00102e4                lwp_avl_remove
 .text.lwp_avl_insert
                0x00000000c00103cc       0x60 build/kernel/components/lwp/lwp_avl.o
                0x00000000c00103cc                lwp_avl_insert
 .text.lwp_avl_find
                0x00000000c001042c       0x44 build/kernel/components/lwp/lwp_avl.o
                0x00000000c001042c                lwp_avl_find
 .text.lwp_avl_traversal
                0x00000000c0010470       0xa8 build/kernel/components/lwp/lwp_avl.o
                0x00000000c0010470                lwp_avl_traversal
 .text.console_fops_close
                0x00000000c0010518       0x58 build/kernel/components/lwp/lwp_console.o
 .text.console_fops_open
                0x00000000c0010570       0x5c build/kernel/components/lwp/lwp_console.o
 .text.console_fops_poll
                0x00000000c00105cc       0xd0 build/kernel/components/lwp/lwp_console.o
 .text.console_fops_write
                0x00000000c001069c       0x60 build/kernel/components/lwp/lwp_console.o
 .text.rt_console_write
                0x00000000c00106fc       0x88 build/kernel/components/lwp/lwp_console.o
 .text.console_fops_read
                0x00000000c0010784       0xe8 build/kernel/components/lwp/lwp_console.o
 .text.rt_console_read
                0x00000000c001086c       0xc8 build/kernel/components/lwp/lwp_console.o
 .text.rt_console_close
                0x00000000c0010934       0x58 build/kernel/components/lwp/lwp_console.o
 .text.rt_console_open
                0x00000000c001098c       0x6c build/kernel/components/lwp/lwp_console.o
 .text.console_rx_notify
                0x00000000c00109f8       0xd8 build/kernel/components/lwp/lwp_console.o
 .text.rt_console_init
                0x00000000c0010ad0       0xc4 build/kernel/components/lwp/lwp_console.o
 .text.rt_console_set_foreground
                0x00000000c0010b94       0x60 build/kernel/components/lwp/lwp_console.o
                0x00000000c0010b94                rt_console_set_foreground
 .text.rt_console_get_foreground
                0x00000000c0010bf4       0x20 build/kernel/components/lwp/lwp_console.o
                0x00000000c0010bf4                rt_console_get_foreground
 .text.rt_console_set_iodev
                0x00000000c0010c14      0x128 build/kernel/components/lwp/lwp_console.o
                0x00000000c0010c14                rt_console_set_iodev
 .text.rt_console_register
                0x00000000c0010d3c       0xec build/kernel/components/lwp/lwp_console.o
                0x00000000c0010d3c                rt_console_register
 .text.futex_system_init
                0x00000000c0010e28       0x24 build/kernel/components/lwp/lwp_futex.o
 .text.futex_destory
                0x00000000c0010e4c       0x40 build/kernel/components/lwp/lwp_futex.o
                0x00000000c0010e4c                futex_destory
 .text.sys_futex
                0x00000000c0010e8c      0x2c4 build/kernel/components/lwp/lwp_futex.o
                0x00000000c0010e8c                sys_futex
 .text.channel_fops_poll
                0x00000000c0011150       0x58 build/kernel/components/lwp/lwp_ipc.o
 .text.wakeup_sender_wait_reply
                0x00000000c00111a8       0x60 build/kernel/components/lwp/lwp_ipc.o
 .text.wakeup_sender_wait_recv
                0x00000000c0011208       0xb4 build/kernel/components/lwp/lwp_ipc.o
 .text.sender_timeout
                0x00000000c00112bc       0xd8 build/kernel/components/lwp/lwp_ipc.o
 .text.list_channel
                0x00000000c0011394      0x17c build/kernel/components/lwp/lwp_ipc.o
 .text.channel_fops_close
                0x00000000c0011510       0xd4 build/kernel/components/lwp/lwp_ipc.o
 .text.wakeup_receiver
                0x00000000c00115e4       0x58 build/kernel/components/lwp/lwp_ipc.o
 .text.receiver_timeout
                0x00000000c001163c       0x74 build/kernel/components/lwp/lwp_ipc.o
 .text.rt_raw_channel_open
                0x00000000c00116b0      0x15c build/kernel/components/lwp/lwp_ipc.o
                0x00000000c00116b0                rt_raw_channel_open
 .text.rt_raw_channel_close
                0x00000000c001180c      0x15c build/kernel/components/lwp/lwp_ipc.o
                0x00000000c001180c                rt_raw_channel_close
 .text.lwp_channel_open
                0x00000000c0011968      0x150 build/kernel/components/lwp/lwp_ipc.o
                0x00000000c0011968                lwp_channel_open
 .text.lwp_channel_close
                0x00000000c0011ab8       0xd4 build/kernel/components/lwp/lwp_ipc.o
                0x00000000c0011ab8                lwp_channel_close
 .text.lwp_channel_send
                0x00000000c0011b8c      0x1c8 build/kernel/components/lwp/lwp_ipc.o
                0x00000000c0011b8c                lwp_channel_send
 .text.lwp_channel_send_recv_timeout
                0x00000000c0011d54      0x420 build/kernel/components/lwp/lwp_ipc.o
                0x00000000c0011d54                lwp_channel_send_recv_timeout
 .text.lwp_channel_reply
                0x00000000c0012174      0x170 build/kernel/components/lwp/lwp_ipc.o
                0x00000000c0012174                lwp_channel_reply
 .text.lwp_channel_recv_timeout
                0x00000000c00122e4      0x2e8 build/kernel/components/lwp/lwp_ipc.o
                0x00000000c00122e4                lwp_channel_recv_timeout
 .text.top_mem_fun
                0x00000000c00125cc       0x1c build/kernel/components/lwp/lwp_mm_area.o
                0x00000000c00125cc                top_mem_fun
 .text.lwp_map_area_insert
                0x00000000c00125e8       0x80 build/kernel/components/lwp/lwp_mm_area.o
                0x00000000c00125e8                lwp_map_area_insert
 .text.lwp_map_area_remove
                0x00000000c0012668       0x38 build/kernel/components/lwp/lwp_mm_area.o
                0x00000000c0012668                lwp_map_area_remove
 .text.lwp_map_find
                0x00000000c00126a0       0x54 build/kernel/components/lwp/lwp_mm_area.o
                0x00000000c00126a0                lwp_map_find
 .text.lwp_map_find_first
                0x00000000c00126f4       0x1c build/kernel/components/lwp/lwp_mm_area.o
                0x00000000c00126f4                lwp_map_find_first
 .text.lwp_vmem_count
                0x00000000c0012710       0x2c build/kernel/components/lwp/lwp_mm_area.o
                0x00000000c0012710                lwp_vmem_count
 .text.cmd_kill
                0x00000000c001273c       0x70 build/kernel/components/lwp/lwp_pid.o
 .text.cmd_killall
                0x00000000c00127ac       0xbc build/kernel/components/lwp/lwp_pid.o
 .text.list_process
                0x00000000c0012868      0x410 build/kernel/components/lwp/lwp_pid.o
                0x00000000c0012868                list_process
 .text._object_dup
                0x00000000c0012c78       0x84 build/kernel/components/lwp/lwp_pid.o
 .text.lwp_free.part.3
                0x00000000c0012cfc      0x378 build/kernel/components/lwp/lwp_pid.o
 .text.lwp_get_pid_ary
                0x00000000c0013074        0xc build/kernel/components/lwp/lwp_pid.o
                0x00000000c0013074                lwp_get_pid_ary
 .text.lwp_user_object_lock_init
                0x00000000c0013080       0x14 build/kernel/components/lwp/lwp_pid.o
                0x00000000c0013080                lwp_user_object_lock_init
 .text.lwp_user_object_add
                0x00000000c0013094       0x90 build/kernel/components/lwp/lwp_pid.o
                0x00000000c0013094                lwp_user_object_add
 .text.lwp_user_object_delete
                0x00000000c0013124      0x170 build/kernel/components/lwp/lwp_pid.o
                0x00000000c0013124                lwp_user_object_delete
 .text.lwp_user_object_clear
                0x00000000c0013294      0x15c build/kernel/components/lwp/lwp_pid.o
                0x00000000c0013294                lwp_user_object_clear
 .text.lwp_user_object_dup
                0x00000000c00133f0       0x5c build/kernel/components/lwp/lwp_pid.o
                0x00000000c00133f0                lwp_user_object_dup
 .text.lwp_new  0x00000000c001344c      0x288 build/kernel/components/lwp/lwp_pid.o
                0x00000000c001344c                lwp_new
 .text.lwp_ref_inc
                0x00000000c00136d4       0x20 build/kernel/components/lwp/lwp_pid.o
                0x00000000c00136d4                lwp_ref_inc
 .text.lwp_ref_dec
                0x00000000c00136f4       0x4c build/kernel/components/lwp/lwp_pid.o
                0x00000000c00136f4                lwp_ref_dec
 .text.lwp_from_pid
                0x00000000c0013740       0x40 build/kernel/components/lwp/lwp_pid.o
                0x00000000c0013740                lwp_from_pid
 .text.lwp_to_pid
                0x00000000c0013780        0xc build/kernel/components/lwp/lwp_pid.o
                0x00000000c0013780                lwp_to_pid
 .text.lwp_getpid
                0x00000000c001378c       0x14 build/kernel/components/lwp/lwp_pid.o
                0x00000000c001378c                lwp_getpid
 .text.waitpid  0x00000000c00137a0      0x1ac build/kernel/components/lwp/lwp_pid.o
                0x00000000c00137a0                waitpid
 .text.lwp_check_exit_request
                0x00000000c001394c       0x30 build/kernel/components/lwp/lwp_pid.o
                0x00000000c001394c                lwp_check_exit_request
 .text.lwp_terminate
                0x00000000c001397c       0x7c build/kernel/components/lwp/lwp_pid.o
                0x00000000c001397c                lwp_terminate
 .text.lwp_wait_subthread_exit
                0x00000000c00139f8       0xb4 build/kernel/components/lwp/lwp_pid.o
                0x00000000c00139f8                lwp_wait_subthread_exit
 .text.pmutex_system_init
                0x00000000c0013aac       0x24 build/kernel/components/lwp/lwp_pmutex.o
 .text.pmutex_destory
                0x00000000c0013ad0       0x48 build/kernel/components/lwp/lwp_pmutex.o
 .text.sys_pmutex
                0x00000000c0013b18      0x2d0 build/kernel/components/lwp/lwp_pmutex.o
                0x00000000c0013b18                sys_pmutex
 .text._shm_info
                0x00000000c0013de8       0x40 build/kernel/components/lwp/lwp_shm.o
 .text.list_shm
                0x00000000c0013e28       0x4c build/kernel/components/lwp/lwp_shm.o
                0x00000000c0013e28                list_shm
 .text.lwp_shmget
                0x00000000c0013e74      0x170 build/kernel/components/lwp/lwp_shm.o
                0x00000000c0013e74                lwp_shmget
 .text.lwp_shmrm
                0x00000000c0013fe4       0xc4 build/kernel/components/lwp/lwp_shm.o
                0x00000000c0013fe4                lwp_shmrm
 .text.lwp_shmat
                0x00000000c00140a8       0xbc build/kernel/components/lwp/lwp_shm.o
                0x00000000c00140a8                lwp_shmat
 .text.lwp_shm_ref_inc
                0x00000000c0014164       0x70 build/kernel/components/lwp/lwp_shm.o
                0x00000000c0014164                lwp_shm_ref_inc
 .text.lwp_shm_ref_dec
                0x00000000c00141d4       0x78 build/kernel/components/lwp/lwp_shm.o
                0x00000000c00141d4                lwp_shm_ref_dec
 .text.lwp_shmdt
                0x00000000c001424c       0x84 build/kernel/components/lwp/lwp_shm.o
                0x00000000c001424c                lwp_shmdt
 .text.lwp_suspend_sigcheck
                0x00000000c00142d0       0x90 build/kernel/components/lwp/lwp_signal.o
                0x00000000c00142d0                lwp_suspend_sigcheck
 .text.lwp_signal_check
                0x00000000c0014360       0x84 build/kernel/components/lwp/lwp_signal.o
                0x00000000c0014360                lwp_signal_check
 .text.lwp_signal_backup
                0x00000000c00143e4      0x1b8 build/kernel/components/lwp/lwp_signal.o
                0x00000000c00143e4                lwp_signal_backup
 .text.lwp_signal_restore
                0x00000000c001459c       0xc4 build/kernel/components/lwp/lwp_signal.o
                0x00000000c001459c                lwp_signal_restore
 .text.lwp_sighandler_get
                0x00000000c0014660       0x84 build/kernel/components/lwp/lwp_signal.o
                0x00000000c0014660                lwp_sighandler_get
 .text.lwp_sigaction
                0x00000000c00146e4      0x11c build/kernel/components/lwp/lwp_signal.o
                0x00000000c00146e4                lwp_sigaction
 .text.lwp_sigprocmask
                0x00000000c0014800       0xd4 build/kernel/components/lwp/lwp_signal.o
                0x00000000c0014800                lwp_sigprocmask
 .text.lwp_thread_sigprocmask
                0x00000000c00148d4       0xbc build/kernel/components/lwp/lwp_signal.o
                0x00000000c00148d4                lwp_thread_sigprocmask
 .text.lwp_kill
                0x00000000c0014990       0xd0 build/kernel/components/lwp/lwp_signal.o
                0x00000000c0014990                lwp_kill
 .text.lwp_thread_kill
                0x00000000c0014a60       0xd4 build/kernel/components/lwp/lwp_signal.o
                0x00000000c0014a60                lwp_thread_kill
 .text.sys_exit_group
                0x00000000c0014b34        0x4 build/kernel/components/lwp/lwp_syscall.o
                0x00000000c0014b34                sys_exit_group
 .text.sys_settimeofday
                0x00000000c0014b38        0x8 build/kernel/components/lwp/lwp_syscall.o
                0x00000000c0014b38                sys_settimeofday
 .text.sys_thread_self
                0x00000000c0014b40        0x4 build/kernel/components/lwp/lwp_syscall.o
                0x00000000c0014b40                sys_thread_self
 .text.sys_gettid
                0x00000000c0014b44       0x10 build/kernel/components/lwp/lwp_syscall.o
                0x00000000c0014b44                sys_gettid
 .text.sys_thread_delete
                0x00000000c0014b54        0x4 build/kernel/components/lwp/lwp_syscall.o
                0x00000000c0014b54                sys_thread_delete
 .text.sys_exit
                0x00000000c0014b58       0xa0 build/kernel/components/lwp/lwp_syscall.o
                0x00000000c0014b58                sys_exit
 .text.sys_notimpl
                0x00000000c0014bf8       0x14 build/kernel/components/lwp/lwp_syscall.o
                0x00000000c0014bf8                sys_notimpl
 .text.sys_prlimit64
                0x00000000c0014c0c       0x14 build/kernel/components/lwp/lwp_syscall.o
                0x00000000c0014c0c                sys_prlimit64
 .text.sys_setrlimit
                0x00000000c0014c20       0x14 build/kernel/components/lwp/lwp_syscall.o
                0x00000000c0014c20                sys_setrlimit
 .text.sys_set_tid_address
                0x00000000c0014c34       0x3c build/kernel/components/lwp/lwp_syscall.o
                0x00000000c0014c34                sys_set_tid_address
 .text.sys_clock_getres
                0x00000000c0014c70       0x50 build/kernel/components/lwp/lwp_syscall.o
                0x00000000c0014c70                sys_clock_getres
 .text.sys_read
                0x00000000c0014cc0       0xa0 build/kernel/components/lwp/lwp_syscall.o
                0x00000000c0014cc0                sys_read
 .text.sys_write
                0x00000000c0014d60       0x98 build/kernel/components/lwp/lwp_syscall.o
                0x00000000c0014d60                sys_write
 .text.sys_lseek
                0x00000000c0014df8        0x4 build/kernel/components/lwp/lwp_syscall.o
                0x00000000c0014df8                sys_lseek
 .text.sys_open
                0x00000000c0014dfc       0xa8 build/kernel/components/lwp/lwp_syscall.o
                0x00000000c0014dfc                sys_open
 .text.sys_close
                0x00000000c0014ea4        0x4 build/kernel/components/lwp/lwp_syscall.o
                0x00000000c0014ea4                sys_close
 .text.sys_ioctl
                0x00000000c0014ea8        0x4 build/kernel/components/lwp/lwp_syscall.o
                0x00000000c0014ea8                sys_ioctl
 .text.sys_fstat
                0x00000000c0014eac       0x60 build/kernel/components/lwp/lwp_syscall.o
                0x00000000c0014eac                sys_fstat
 .text.sys_poll
                0x00000000c0014f0c      0x17c build/kernel/components/lwp/lwp_syscall.o
                0x00000000c0014f0c                sys_poll
 .text.sys_select
                0x00000000c0015088      0x1ec build/kernel/components/lwp/lwp_syscall.o
                0x00000000c0015088                sys_select
 *fill*         0x00000000c0015274        0x4 00000000
 .text.sys_nanosleep
                0x00000000c0015278       0xfc build/kernel/components/lwp/lwp_syscall.o
                0x00000000c0015278                sys_nanosleep
 .text.sys_tick_get
                0x00000000c0015374        0x4 build/kernel/components/lwp/lwp_syscall.o
                0x00000000c0015374                sys_tick_get
 .text.sys_exec
                0x00000000c0015378        0x4 build/kernel/components/lwp/lwp_syscall.o
                0x00000000c0015378                sys_exec
 .text.sys_kill
                0x00000000c001537c        0x4 build/kernel/components/lwp/lwp_syscall.o
                0x00000000c001537c                sys_kill
 .text.sys_getpid
                0x00000000c0015380        0x4 build/kernel/components/lwp/lwp_syscall.o
                0x00000000c0015380                sys_getpid
 .text.sys_setpriority
                0x00000000c0015384       0x54 build/kernel/components/lwp/lwp_syscall.o
                0x00000000c0015384                sys_setpriority
 .text.sys_sem_create
                0x00000000c00153d8       0x38 build/kernel/components/lwp/lwp_syscall.o
                0x00000000c00153d8                sys_sem_create
 .text.sys_sem_delete
                0x00000000c0015410       0x18 build/kernel/components/lwp/lwp_syscall.o
                0x00000000c0015410                sys_sem_delete
 .text.sys_mutex_delete
                0x00000000c0015428       0x18 build/kernel/components/lwp/lwp_syscall.o
                0x00000000c0015428                sys_mutex_delete
 .text.sys_event_delete
                0x00000000c0015440       0x18 build/kernel/components/lwp/lwp_syscall.o
                0x00000000c0015440                sys_event_delete
 .text.sys_mb_delete
                0x00000000c0015458       0x18 build/kernel/components/lwp/lwp_syscall.o
                0x00000000c0015458                sys_mb_delete
 .text.sys_mq_delete
                0x00000000c0015470       0x18 build/kernel/components/lwp/lwp_syscall.o
                0x00000000c0015470                sys_mq_delete
 .text.sys_timer_delete
                0x00000000c0015488       0x18 build/kernel/components/lwp/lwp_syscall.o
                0x00000000c0015488                sys_timer_delete
 .text.sys_sem_take
                0x00000000c00154a0        0x4 build/kernel/components/lwp/lwp_syscall.o
                0x00000000c00154a0                sys_sem_take
 .text.sys_sem_release
                0x00000000c00154a4        0x4 build/kernel/components/lwp/lwp_syscall.o
                0x00000000c00154a4                sys_sem_release
 .text.timer_timeout_callback
                0x00000000c00154a8        0x4 build/kernel/components/lwp/lwp_syscall.o
 .text.sys_exit_critical
                0x00000000c00154ac        0xc build/kernel/components/lwp/lwp_syscall.o
                0x00000000c00154ac                sys_exit_critical
 .text.sys_mutex_create
                0x00000000c00154b8       0x38 build/kernel/components/lwp/lwp_syscall.o
                0x00000000c00154b8                sys_mutex_create
 .text.sys_mutex_take
                0x00000000c00154f0        0x4 build/kernel/components/lwp/lwp_syscall.o
                0x00000000c00154f0                sys_mutex_take
 .text.sys_mutex_release
                0x00000000c00154f4        0x4 build/kernel/components/lwp/lwp_syscall.o
                0x00000000c00154f4                sys_mutex_release
 .text.sys_brk  0x00000000c00154f8        0x4 build/kernel/components/lwp/lwp_syscall.o
                0x00000000c00154f8                sys_brk
 .text.sys_mmap2
                0x00000000c00154fc        0x4 build/kernel/components/lwp/lwp_syscall.o
                0x00000000c00154fc                sys_mmap2
 .text.sys_munmap
                0x00000000c0015500        0x4 build/kernel/components/lwp/lwp_syscall.o
                0x00000000c0015500                sys_munmap
 .text.sys_event_create
                0x00000000c0015504       0x38 build/kernel/components/lwp/lwp_syscall.o
                0x00000000c0015504                sys_event_create
 .text.sys_event_send
                0x00000000c001553c        0x4 build/kernel/components/lwp/lwp_syscall.o
                0x00000000c001553c                sys_event_send
 .text.sys_event_recv
                0x00000000c0015540        0x4 build/kernel/components/lwp/lwp_syscall.o
                0x00000000c0015540                sys_event_recv
 .text.sys_mb_create
                0x00000000c0015544       0x38 build/kernel/components/lwp/lwp_syscall.o
                0x00000000c0015544                sys_mb_create
 .text.sys_mb_send
                0x00000000c001557c        0x4 build/kernel/components/lwp/lwp_syscall.o
                0x00000000c001557c                sys_mb_send
 .text.sys_mb_send_wait
                0x00000000c0015580        0x4 build/kernel/components/lwp/lwp_syscall.o
                0x00000000c0015580                sys_mb_send_wait
 .text.sys_mb_recv
                0x00000000c0015584        0x4 build/kernel/components/lwp/lwp_syscall.o
                0x00000000c0015584                sys_mb_recv
 .text.sys_mq_create
                0x00000000c0015588       0x38 build/kernel/components/lwp/lwp_syscall.o
                0x00000000c0015588                sys_mq_create
 .text.sys_mq_send
                0x00000000c00155c0        0x4 build/kernel/components/lwp/lwp_syscall.o
                0x00000000c00155c0                sys_mq_send
 .text.sys_mq_urgent
                0x00000000c00155c4        0x4 build/kernel/components/lwp/lwp_syscall.o
                0x00000000c00155c4                sys_mq_urgent
 .text.sys_mq_recv
                0x00000000c00155c8        0x4 build/kernel/components/lwp/lwp_syscall.o
                0x00000000c00155c8                sys_mq_recv
 .text.sys_timer_create
                0x00000000c00155cc       0x54 build/kernel/components/lwp/lwp_syscall.o
                0x00000000c00155cc                sys_timer_create
 .text.sys_timer_start
                0x00000000c0015620        0x4 build/kernel/components/lwp/lwp_syscall.o
                0x00000000c0015620                sys_timer_start
 .text.sys_timer_stop
                0x00000000c0015624        0x4 build/kernel/components/lwp/lwp_syscall.o
                0x00000000c0015624                sys_timer_stop
 .text.sys_timer_control
                0x00000000c0015628        0x4 build/kernel/components/lwp/lwp_syscall.o
                0x00000000c0015628                sys_timer_control
 .text.sys_thread_create
                0x00000000c001562c      0x118 build/kernel/components/lwp/lwp_syscall.o
                0x00000000c001562c                sys_thread_create
 .text.lwp_user_thread
                0x00000000c0015744       0x4c build/kernel/components/lwp/lwp_syscall.o
 .text.sys_thread_startup
                0x00000000c0015790        0x4 build/kernel/components/lwp/lwp_syscall.o
                0x00000000c0015790                sys_thread_startup
 .text.sys_channel_open
                0x00000000c0015794       0x10 build/kernel/components/lwp/lwp_syscall.o
                0x00000000c0015794                sys_channel_open
 .text.sys_channel_close
                0x00000000c00157a4        0xc build/kernel/components/lwp/lwp_syscall.o
                0x00000000c00157a4                sys_channel_close
 .text.sys_channel_send
                0x00000000c00157b0       0x10 build/kernel/components/lwp/lwp_syscall.o
                0x00000000c00157b0                sys_channel_send
 .text.sys_channel_send_recv_timeout
                0x00000000c00157c0       0x28 build/kernel/components/lwp/lwp_syscall.o
                0x00000000c00157c0                sys_channel_send_recv_timeout
 .text.sys_channel_reply
                0x00000000c00157e8       0x10 build/kernel/components/lwp/lwp_syscall.o
                0x00000000c00157e8                sys_channel_reply
 .text.sys_channel_recv_timeout
                0x00000000c00157f8       0x14 build/kernel/components/lwp/lwp_syscall.o
                0x00000000c00157f8                sys_channel_recv_timeout
 .text.critical_init
                0x00000000c001580c       0x28 build/kernel/components/lwp/lwp_syscall.o
 .text.sys_enter_critical
                0x00000000c0015834       0x10 build/kernel/components/lwp/lwp_syscall.o
                0x00000000c0015834                sys_enter_critical
 .text.sys_log  0x00000000c0015844       0x4c build/kernel/components/lwp/lwp_syscall.o
                0x00000000c0015844                sys_log
 .text.sys_device_write
                0x00000000c0015890        0x4 build/kernel/components/lwp/lwp_syscall.o
                0x00000000c0015890                sys_device_write
 .text.sys_stat
                0x00000000c0015894        0x4 build/kernel/components/lwp/lwp_syscall.o
                0x00000000c0015894                sys_stat
 .text.sys_shmget
                0x00000000c0015898        0x4 build/kernel/components/lwp/lwp_syscall.o
                0x00000000c0015898                sys_shmget
 .text.sys_shmrm
                0x00000000c001589c        0x4 build/kernel/components/lwp/lwp_syscall.o
                0x00000000c001589c                sys_shmrm
 .text.sys_shmat
                0x00000000c00158a0        0x4 build/kernel/components/lwp/lwp_syscall.o
                0x00000000c00158a0                sys_shmat
 .text.sys_shmdt
                0x00000000c00158a4        0x4 build/kernel/components/lwp/lwp_syscall.o
                0x00000000c00158a4                sys_shmdt
 .text.sys_device_init
                0x00000000c00158a8        0x4 build/kernel/components/lwp/lwp_syscall.o
                0x00000000c00158a8                sys_device_init
 .text.sys_device_register
                0x00000000c00158ac        0x4 build/kernel/components/lwp/lwp_syscall.o
                0x00000000c00158ac                sys_device_register
 .text.sys_device_control
                0x00000000c00158b0        0x4 build/kernel/components/lwp/lwp_syscall.o
                0x00000000c00158b0                sys_device_control
 .text.sys_device_find
                0x00000000c00158b4        0x4 build/kernel/components/lwp/lwp_syscall.o
                0x00000000c00158b4                sys_device_find
 .text.sys_clock_settime
                0x00000000c00158b8       0x94 build/kernel/components/lwp/lwp_syscall.o
                0x00000000c00158b8                sys_clock_settime
 .text.sys_clock_gettime
                0x00000000c001594c       0x9c build/kernel/components/lwp/lwp_syscall.o
                0x00000000c001594c                sys_clock_gettime
 .text.sys_device_open
                0x00000000c00159e8        0x4 build/kernel/components/lwp/lwp_syscall.o
                0x00000000c00159e8                sys_device_open
 .text.sys_device_close
                0x00000000c00159ec        0x4 build/kernel/components/lwp/lwp_syscall.o
                0x00000000c00159ec                sys_device_close
 .text.sys_device_read
                0x00000000c00159f0        0x4 build/kernel/components/lwp/lwp_syscall.o
                0x00000000c00159f0                sys_device_read
 .text.sys_thread_find
                0x00000000c00159f4        0x4 build/kernel/components/lwp/lwp_syscall.o
                0x00000000c00159f4                sys_thread_find
 .text.sys_thread_mdelay
                0x00000000c00159f8        0x4 build/kernel/components/lwp/lwp_syscall.o
                0x00000000c00159f8                sys_thread_mdelay
 .text.sys_sigaction
                0x00000000c00159fc      0x174 build/kernel/components/lwp/lwp_syscall.o
                0x00000000c00159fc                sys_sigaction
 .text.sys_sigprocmask
                0x00000000c0015b70      0x120 build/kernel/components/lwp/lwp_syscall.o
                0x00000000c0015b70                sys_sigprocmask
 .text.sys_tkill
                0x00000000c0015c90       0x38 build/kernel/components/lwp/lwp_syscall.o
                0x00000000c0015c90                sys_tkill
 .text.sys_thread_sigprocmask
                0x00000000c0015cc8      0x114 build/kernel/components/lwp/lwp_syscall.o
                0x00000000c0015cc8                sys_thread_sigprocmask
 .text.sys_waitpid
                0x00000000c0015ddc       0x48 build/kernel/components/lwp/lwp_syscall.o
                0x00000000c0015ddc                sys_waitpid
 .text.sys_getcwd
                0x00000000c0015e24       0x38 build/kernel/components/lwp/lwp_syscall.o
                0x00000000c0015e24                sys_getcwd
 .text.sys_getdents
                0x00000000c0015e5c      0x138 build/kernel/components/lwp/lwp_syscall.o
                0x00000000c0015e5c                sys_getdents
 .text.sys_get_errno
                0x00000000c0015f94        0x4 build/kernel/components/lwp/lwp_syscall.o
                0x00000000c0015f94                sys_get_errno
 .text.sys_set_thread_area
                0x00000000c0015f98       0x20 build/kernel/components/lwp/lwp_syscall.o
                0x00000000c0015f98                sys_set_thread_area
 .text.sys_pipe
                0x00000000c0015fb8       0x34 build/kernel/components/lwp/lwp_syscall.o
                0x00000000c0015fb8                sys_pipe
 .text.sys_getrlimit
                0x00000000c0015fec       0x70 build/kernel/components/lwp/lwp_syscall.o
                0x00000000c0015fec                sys_getrlimit
 .text.sys_getpriority
                0x00000000c001605c       0x38 build/kernel/components/lwp/lwp_syscall.o
                0x00000000c001605c                sys_getpriority
 .text.sys_gettimeofday
                0x00000000c0016094       0x9c build/kernel/components/lwp/lwp_syscall.o
                0x00000000c0016094                sys_gettimeofday
 .text.sys_log_enable
                0x00000000c0016130       0x44 build/kernel/components/lwp/lwp_syscall.o
 .text._insert_args.constprop.4
                0x00000000c0016174      0x190 build/kernel/components/lwp/lwp_syscall.o
 .text.sys_chdir
                0x00000000c0016304       0x54 build/kernel/components/lwp/lwp_syscall.o
                0x00000000c0016304                sys_chdir
 .text.sys_rmdir
                0x00000000c0016358       0x54 build/kernel/components/lwp/lwp_syscall.o
                0x00000000c0016358                sys_rmdir
 .text.sys_mkdir
                0x00000000c00163ac       0x5c build/kernel/components/lwp/lwp_syscall.o
                0x00000000c00163ac                sys_mkdir
 .text.sys_rename
                0x00000000c0016408       0x94 build/kernel/components/lwp/lwp_syscall.o
                0x00000000c0016408                sys_rename
 .text.sys_access
                0x00000000c001649c       0xa0 build/kernel/components/lwp/lwp_syscall.o
                0x00000000c001649c                sys_access
 .text.sys_unlink
                0x00000000c001653c       0xb8 build/kernel/components/lwp/lwp_syscall.o
                0x00000000c001653c                sys_unlink
 .text._sys_clone
                0x00000000c00165f4      0x1c8 build/kernel/components/lwp/lwp_syscall.o
                0x00000000c00165f4                _sys_clone
 .text._sys_fork
                0x00000000c00167bc      0x318 build/kernel/components/lwp/lwp_syscall.o
                0x00000000c00167bc                _sys_fork
 .text.load_ldso
                0x00000000c0016ad4      0x308 build/kernel/components/lwp/lwp_syscall.o
                0x00000000c0016ad4                load_ldso
 .text.sys_execve
                0x00000000c0016ddc      0x7b8 build/kernel/components/lwp/lwp_syscall.o
                0x00000000c0016ddc                sys_execve
 .text.lwp_get_sys_api
                0x00000000c0017594       0x3c build/kernel/components/lwp/lwp_syscall.o
                0x00000000c0017594                lwp_get_sys_api
 .text.lwp_tid_get
                0x00000000c00175d0      0x158 build/kernel/components/lwp/lwp_tid.o
                0x00000000c00175d0                lwp_tid_get
 .text.lwp_tid_put
                0x00000000c0017728       0x5c build/kernel/components/lwp/lwp_tid.o
                0x00000000c0017728                lwp_tid_put
 .text.lwp_tid_get_thread
                0x00000000c0017784       0x40 build/kernel/components/lwp/lwp_tid.o
                0x00000000c0017784                lwp_tid_get_thread
 .text.lwp_tid_set_thread
                0x00000000c00177c4       0x3c build/kernel/components/lwp/lwp_tid.o
                0x00000000c00177c4                lwp_tid_set_thread
 .text.lwp_user_space_init
                0x00000000c0017800        0x4 build/kernel/components/lwp/lwp_user_mm.o
                0x00000000c0017800                lwp_user_space_init
 .text.lwp_mmu_switch
                0x00000000c0017804       0x4c build/kernel/components/lwp/lwp_user_mm.o
                0x00000000c0017804                lwp_mmu_switch
 .text.lwp_unmap_user_space
                0x00000000c0017850      0x15c build/kernel/components/lwp/lwp_user_mm.o
                0x00000000c0017850                lwp_unmap_user_space
 .text.lwp_unmap_user
                0x00000000c00179ac      0x130 build/kernel/components/lwp/lwp_user_mm.o
                0x00000000c00179ac                lwp_unmap_user
 .text.lwp_unmap_user_phy
                0x00000000c0017adc        0x4 build/kernel/components/lwp/lwp_user_mm.o
                0x00000000c0017adc                lwp_unmap_user_phy
 .text.lwp_map_user
                0x00000000c0017ae0      0x100 build/kernel/components/lwp/lwp_user_mm.o
                0x00000000c0017ae0                lwp_map_user
 .text.lwp_map_user_type
                0x00000000c0017be0      0x134 build/kernel/components/lwp/lwp_user_mm.o
                0x00000000c0017be0                lwp_map_user_type
 .text.lwp_dup_user
                0x00000000c0017d14      0x2e4 build/kernel/components/lwp/lwp_user_mm.o
                0x00000000c0017d14                lwp_dup_user
 .text.lwp_brk  0x00000000c0017ff8      0x12c build/kernel/components/lwp/lwp_user_mm.o
                0x00000000c0017ff8                lwp_brk
 .text.lwp_mmap2
                0x00000000c0018124      0x110 build/kernel/components/lwp/lwp_user_mm.o
                0x00000000c0018124                lwp_mmap2
 .text.lwp_munmap
                0x00000000c0018234       0x34 build/kernel/components/lwp/lwp_user_mm.o
                0x00000000c0018234                lwp_munmap
 .text.lwp_get_from_user
                0x00000000c0018268       0xb4 build/kernel/components/lwp/lwp_user_mm.o
                0x00000000c0018268                lwp_get_from_user
 .text.lwp_put_to_user
                0x00000000c001831c       0xb4 build/kernel/components/lwp/lwp_user_mm.o
                0x00000000c001831c                lwp_put_to_user
 .text.lwp_user_accessable
                0x00000000c00183d0       0x8c build/kernel/components/lwp/lwp_user_mm.o
                0x00000000c00183d0                lwp_user_accessable
 .text.lwp_elf_reloc
                0x00000000c001845c      0x134 build/kernel/components/lwp/arch/arm/common/reloc.o
                0x00000000c001845c                lwp_elf_reloc
 .text.arch_user_space_init
                0x00000000c0018590       0x88 build/kernel/components/lwp/arch/arm/arm926/arch_user_space_init.o
                0x00000000c0018590                arch_user_space_init
 .text.arch_kernel_mmu_table_get
                0x00000000c0018618        0xc build/kernel/components/lwp/arch/arm/arm926/arch_user_space_init.o
                0x00000000c0018618                arch_kernel_mmu_table_get
 .text.arch_kuser_init
                0x00000000c0018624       0x68 build/kernel/components/lwp/arch/arm/arm926/arch_user_space_init.o
                0x00000000c0018624                arch_kuser_init
 .text.arch_user_space_vtable_free
                0x00000000c001868c       0x1c build/kernel/components/lwp/arch/arm/arm926/arch_user_space_init.o
                0x00000000c001868c                arch_user_space_vtable_free
 .text.arch_expand_user_stack
                0x00000000c00186a8       0x60 build/kernel/components/lwp/arch/arm/arm926/arch_user_stack.o
                0x00000000c00186a8                arch_expand_user_stack
 .text.finsh_system_init
                0x00000000c0018708       0xfc build/kernel/components/finsh/shell.o
                0x00000000c0018708                finsh_system_init
 .text.finsh_get_prompt
                0x00000000c0018804       0xb4 build/kernel/components/finsh/shell.o
                0x00000000c0018804                finsh_get_prompt
 .text.finsh_thread_entry
                0x00000000c00188b8      0x8c8 build/kernel/components/finsh/shell.o
                0x00000000c00188b8                finsh_thread_entry
 .text.hello    0x00000000c0019180       0x18 build/kernel/components/finsh/cmd.o
                0x00000000c0019180                hello
 .text.clear    0x00000000c0019198       0x18 build/kernel/components/finsh/cmd.o
 .text.version  0x00000000c00191b0       0x10 build/kernel/components/finsh/cmd.o
                0x00000000c00191b0                version
 .text.list     0x00000000c00191c0       0xa0 build/kernel/components/finsh/cmd.o
                0x00000000c00191c0                list
 .text.top      0x00000000c0019260      0x420 build/kernel/components/finsh/cmd.o
                0x00000000c0019260                top
 .text.top_tick_hook
                0x00000000c0019680       0x4c build/kernel/components/finsh/cmd.o
 .text.top_getchar_entry
                0x00000000c00196cc       0x30 build/kernel/components/finsh/cmd.o
 .text.list_memheap
                0x00000000c00196fc      0x21c build/kernel/components/finsh/cmd.o
                0x00000000c00196fc                list_memheap
 .text.list_device
                0x00000000c0019918      0x230 build/kernel/components/finsh/cmd.o
                0x00000000c0019918                list_device
 .text.list_mutex
                0x00000000c0019b48      0x23c build/kernel/components/finsh/cmd.o
                0x00000000c0019b48                list_mutex
 .text.list_timer
                0x00000000c0019d84      0x24c build/kernel/components/finsh/cmd.o
                0x00000000c0019d84                list_timer
 .text.list_event
                0x00000000c0019fd0      0x284 build/kernel/components/finsh/cmd.o
                0x00000000c0019fd0                list_event
 .text.list_sem
                0x00000000c001a254      0x28c build/kernel/components/finsh/cmd.o
                0x00000000c001a254                list_sem
 .text.list_msgqueue
                0x00000000c001a4e0      0x28c build/kernel/components/finsh/cmd.o
                0x00000000c001a4e0                list_msgqueue
 .text.list_mempool
                0x00000000c001a76c      0x2ac build/kernel/components/finsh/cmd.o
                0x00000000c001a76c                list_mempool
 .text.list_mailbox
                0x00000000c001aa18      0x29c build/kernel/components/finsh/cmd.o
                0x00000000c001aa18                list_mailbox
 .text.list_thread
                0x00000000c001acb4      0x2d8 build/kernel/components/finsh/cmd.o
                0x00000000c001acb4                list_thread
 .text.msh_split
                0x00000000c001af8c      0x1f8 build/kernel/components/finsh/msh.o
 .text.msh_help
                0x00000000c001b184       0xa8 build/kernel/components/finsh/msh.o
                0x00000000c001b184                msh_help
 .text.cmd_ps   0x00000000c001b22c       0x10 build/kernel/components/finsh/msh.o
                0x00000000c001b22c                cmd_ps
 .text.cmd_free
                0x00000000c001b23c       0x10 build/kernel/components/finsh/msh.o
                0x00000000c001b23c                cmd_free
 .text.msh_auto_complete_path.part.1
                0x00000000c001b24c      0x378 build/kernel/components/finsh/msh.o
 .text.msh_exec
                0x00000000c001b5c4      0x2c0 build/kernel/components/finsh/msh.o
                0x00000000c001b5c4                msh_exec
 .text.msh_exec_script
                0x00000000c001b884      0x260 build/kernel/components/finsh/msh.o
                0x00000000c001b884                msh_exec_script
 .text.msh_auto_complete
                0x00000000c001bae4      0x270 build/kernel/components/finsh/msh.o
                0x00000000c001bae4                msh_auto_complete
 .text.cmd_ls   0x00000000c001bd54       0x20 build/kernel/components/finsh/msh_file.o
                0x00000000c001bd54                cmd_ls
 .text.cmd_pwd  0x00000000c001bd74       0x20 build/kernel/components/finsh/msh_file.o
                0x00000000c001bd74                cmd_pwd
 .text.msh_deltree
                0x00000000c001bd94      0x17c build/kernel/components/finsh/msh_file.o
 .text.cmd_rm   0x00000000c001bf10      0x1bc build/kernel/components/finsh/msh_file.o
                0x00000000c001bf10                cmd_rm
 .text.cmd_mkfs
                0x00000000c001c0cc       0x8c build/kernel/components/finsh/msh_file.o
                0x00000000c001c0cc                cmd_mkfs
 .text.cmd_cp   0x00000000c001c158       0x3c build/kernel/components/finsh/msh_file.o
                0x00000000c001c158                cmd_cp
 .text.cmd_mv   0x00000000c001c194      0x16c build/kernel/components/finsh/msh_file.o
                0x00000000c001c194                cmd_mv
 .text.cmd_cat  0x00000000c001c300       0x54 build/kernel/components/finsh/msh_file.o
                0x00000000c001c300                cmd_cat
 .text.cmd_cd   0x00000000c001c354       0x70 build/kernel/components/finsh/msh_file.o
                0x00000000c001c354                cmd_cd
 .text.cmd_mkdir
                0x00000000c001c3c4       0x40 build/kernel/components/finsh/msh_file.o
                0x00000000c001c3c4                cmd_mkdir
 .text.cmd_df   0x00000000c001c404       0x78 build/kernel/components/finsh/msh_file.o
                0x00000000c001c404                cmd_df
 .text.cmd_echo
                0x00000000c001c47c       0xa4 build/kernel/components/finsh/msh_file.o
                0x00000000c001c47c                cmd_echo
 .text.cfgetospeed
                0x00000000c001c520       0x14 build/kernel/components/libc/termios/posix_termios.o
                0x00000000c001c520                cfgetospeed
 .text.cfsetospeed
                0x00000000c001c534       0x44 build/kernel/components/libc/termios/posix_termios.o
                0x00000000c001c534                cfsetospeed
 .text.clock_time_system_init
                0x00000000c001c578       0x84 build/kernel/components/libc/time/clock_time.o
                0x00000000c001c578                clock_time_system_init
 .text.clock_time_to_tick
                0x00000000c001c5fc       0xe4 build/kernel/components/libc/time/clock_time.o
                0x00000000c001c5fc                clock_time_to_tick
 .text.aio_system_init
                0x00000000c001c6e0       0x58 build/kernel/components/libc/aio/posix_aio.o
                0x00000000c001c6e0                aio_system_init
 .text.libc_system_init
                0x00000000c001c738       0x38 build/kernel/components/libc/compilers/musl/libc.o
                0x00000000c001c738                libc_system_init
 .text.env_set  0x00000000c001c770       0xbc build/kernel/components/libc/compilers/musl/libc.o
                0x00000000c001c770                env_set
 .text.malloc   0x00000000c001c82c        0x4 build/kernel/components/libc/compilers/musl/mem.o
                0x00000000c001c82c                malloc
 .text.realloc  0x00000000c001c830        0x4 build/kernel/components/libc/compilers/musl/mem.o
                0x00000000c001c830                realloc
 .text.free     0x00000000c001c834        0x4 build/kernel/components/libc/compilers/musl/mem.o
                0x00000000c001c834                free
 .text.libc_stdio_set_console
                0x00000000c001c838       0xe4 build/kernel/components/libc/compilers/musl/stdio.o
                0x00000000c001c838                libc_stdio_set_console
 .text.list_fd  0x00000000c001c91c      0x19c build/kernel/components/dfs/src/dfs.o
                0x00000000c001c91c                list_fd
 .text.lsofp    0x00000000c001cab8      0x210 build/kernel/components/dfs/src/dfs.o
 .text.unmount  0x00000000c001ccc8       0x6c build/kernel/components/dfs/src/dfs.o
                0x00000000c001ccc8                unmount
 .text.dfs_init
                0x00000000c001cd34       0xf8 build/kernel/components/dfs/src/dfs.o
                0x00000000c001cd34                dfs_init
 .text.mount    0x00000000c001ce2c       0xfc build/kernel/components/dfs/src/dfs.o
                0x00000000c001ce2c                mount
 .text.lsof     0x00000000c001cf28       0xb8 build/kernel/components/dfs/src/dfs.o
                0x00000000c001cf28                lsof
 .text.dfs_lock
                0x00000000c001cfe0       0x44 build/kernel/components/dfs/src/dfs.o
                0x00000000c001cfe0                dfs_lock
 .text.dfs_fd_lock
                0x00000000c001d024       0x44 build/kernel/components/dfs/src/dfs.o
                0x00000000c001d024                dfs_fd_lock
 .text.dfs_unlock
                0x00000000c001d068        0xc build/kernel/components/dfs/src/dfs.o
                0x00000000c001d068                dfs_unlock
 .text.dfs_fd_unlock
                0x00000000c001d074        0xc build/kernel/components/dfs/src/dfs.o
                0x00000000c001d074                dfs_fd_unlock
 .text.fdt_fd_new
                0x00000000c001d080      0x180 build/kernel/components/dfs/src/dfs.o
                0x00000000c001d080                fdt_fd_new
 .text.fd_new   0x00000000c001d200      0x194 build/kernel/components/dfs/src/dfs.o
                0x00000000c001d200                fd_new
 .text.fdt_fd_get
                0x00000000c001d394       0xa8 build/kernel/components/dfs/src/dfs.o
                0x00000000c001d394                fdt_fd_get
 .text.fd_get   0x00000000c001d43c       0xc0 build/kernel/components/dfs/src/dfs.o
                0x00000000c001d43c                fd_get
 .text.fdt_fd_release
                0x00000000c001d4fc      0x104 build/kernel/components/dfs/src/dfs.o
                0x00000000c001d4fc                fdt_fd_release
 .text.fd_release
                0x00000000c001d600      0x100 build/kernel/components/dfs/src/dfs.o
                0x00000000c001d600                fd_release
 .text.sys_dup  0x00000000c001d700      0x17c build/kernel/components/dfs/src/dfs.o
                0x00000000c001d700                sys_dup
 .text.sys_dup2
                0x00000000c001d87c      0x168 build/kernel/components/dfs/src/dfs.o
                0x00000000c001d87c                sys_dup2
 .text.fd_associate
                0x00000000c001d9e4       0xb0 build/kernel/components/dfs/src/dfs.o
                0x00000000c001d9e4                fd_associate
 .text.fd_init  0x00000000c001da94       0x40 build/kernel/components/dfs/src/dfs.o
                0x00000000c001da94                fd_init
 .text.dfs_subdir
                0x00000000c001dad4       0x40 build/kernel/components/dfs/src/dfs.o
                0x00000000c001dad4                dfs_subdir
 .text.dfs_normalize_path
                0x00000000c001db14      0x234 build/kernel/components/dfs/src/dfs.o
                0x00000000c001db14                dfs_normalize_path
 .text.dfs_fdtable_get
                0x00000000c001dd48       0x20 build/kernel/components/dfs/src/dfs.o
                0x00000000c001dd48                dfs_fdtable_get
 .text.dfs_fdtable_get_global
                0x00000000c001dd68        0xc build/kernel/components/dfs/src/dfs.o
                0x00000000c001dd68                dfs_fdtable_get_global
 .text.dfs_file_close.part.0
                0x00000000c001dd74       0xcc build/kernel/components/dfs/src/dfs_file.o
 .text.dfs_fm_lock
                0x00000000c001de40       0x10 build/kernel/components/dfs/src/dfs_file.o
                0x00000000c001de40                dfs_fm_lock
 .text.dfs_fm_unlock
                0x00000000c001de50        0xc build/kernel/components/dfs/src/dfs_file.o
                0x00000000c001de50                dfs_fm_unlock
 .text.dfs_fnode_mgr_init
                0x00000000c001de5c       0x40 build/kernel/components/dfs/src/dfs_file.o
                0x00000000c001de5c                dfs_fnode_mgr_init
 .text.dfs_file_open
                0x00000000c001de9c      0x2f4 build/kernel/components/dfs/src/dfs_file.o
                0x00000000c001de9c                dfs_file_open
 .text.cat      0x00000000c001e190       0xd0 build/kernel/components/dfs/src/dfs_file.o
                0x00000000c001e190                cat
 .text.copyfile
                0x00000000c001e260      0x198 build/kernel/components/dfs/src/dfs_file.o
 .text.dfs_file_close
                0x00000000c001e3f8       0xe4 build/kernel/components/dfs/src/dfs_file.o
                0x00000000c001e3f8                dfs_file_close
 .text.dfs_file_ioctl
                0x00000000c001e4dc       0x78 build/kernel/components/dfs/src/dfs_file.o
                0x00000000c001e4dc                dfs_file_ioctl
 .text.dfs_file_read
                0x00000000c001e554       0x4c build/kernel/components/dfs/src/dfs_file.o
                0x00000000c001e554                dfs_file_read
 .text.dfs_file_getdents
                0x00000000c001e5a0       0x3c build/kernel/components/dfs/src/dfs_file.o
                0x00000000c001e5a0                dfs_file_getdents
 .text.dfs_file_unlink
                0x00000000c001e5dc      0x194 build/kernel/components/dfs/src/dfs_file.o
                0x00000000c001e5dc                dfs_file_unlink
 .text.rm       0x00000000c001e770       0x28 build/kernel/components/dfs/src/dfs_file.o
                0x00000000c001e770                rm
 .text.dfs_file_write
                0x00000000c001e798       0x30 build/kernel/components/dfs/src/dfs_file.o
                0x00000000c001e798                dfs_file_write
 .text.dfs_file_lseek
                0x00000000c001e7c8       0x50 build/kernel/components/dfs/src/dfs_file.o
                0x00000000c001e7c8                dfs_file_lseek
 .text.dfs_file_stat
                0x00000000c001e818      0x158 build/kernel/components/dfs/src/dfs_file.o
                0x00000000c001e818                dfs_file_stat
 .text.ls       0x00000000c001e970      0x188 build/kernel/components/dfs/src/dfs_file.o
                0x00000000c001e970                ls
 .text.copydir  0x00000000c001eaf8      0x1b4 build/kernel/components/dfs/src/dfs_file.o
 .text.copy     0x00000000c001ecac      0x2b8 build/kernel/components/dfs/src/dfs_file.o
                0x00000000c001ecac                copy
 .text.dfs_file_rename
                0x00000000c001ef64      0x1bc build/kernel/components/dfs/src/dfs_file.o
                0x00000000c001ef64                dfs_file_rename
 .text.df       0x00000000c001f120      0x24c build/kernel/components/dfs/src/dfs_fs.o
                0x00000000c001f120                df
 .text.dfs_register
                0x00000000c001f36c      0x2a8 build/kernel/components/dfs/src/dfs_fs.o
                0x00000000c001f36c                dfs_register
 .text.dfs_filesystem_lookup
                0x00000000c001f614       0xcc build/kernel/components/dfs/src/dfs_fs.o
                0x00000000c001f614                dfs_filesystem_lookup
 .text.dfs_mount
                0x00000000c001f6e0      0x328 build/kernel/components/dfs/src/dfs_fs.o
                0x00000000c001f6e0                dfs_mount
 .text.dfs_unmount
                0x00000000c001fa08      0x140 build/kernel/components/dfs/src/dfs_fs.o
                0x00000000c001fa08                dfs_unmount
 .text.dfs_mkfs
                0x00000000c001fb48      0x290 build/kernel/components/dfs/src/dfs_fs.o
                0x00000000c001fb48                dfs_mkfs
 .text.mkfs     0x00000000c001fdd8        0x4 build/kernel/components/dfs/src/dfs_fs.o
                0x00000000c001fdd8                mkfs
 .text.mkdir    0x00000000c001fddc       0x78 build/kernel/components/dfs/src/dfs_posix.o
                0x00000000c001fddc                mkdir
 .text.chdir    0x00000000c001fe54      0x160 build/kernel/components/dfs/src/dfs_posix.o
                0x00000000c001fe54                chdir
 .text.open     0x00000000c001ffb4       0x68 build/kernel/components/dfs/src/dfs_posix.o
                0x00000000c001ffb4                open
 .text.close    0x00000000c002001c       0x4c build/kernel/components/dfs/src/dfs_posix.o
                0x00000000c002001c                close
 .text.read     0x00000000c0020068       0x50 build/kernel/components/dfs/src/dfs_posix.o
                0x00000000c0020068                read
 .text.write    0x00000000c00200b8       0x50 build/kernel/components/dfs/src/dfs_posix.o
                0x00000000c00200b8                write
 .text.lseek    0x00000000c0020108       0xc0 build/kernel/components/dfs/src/dfs_posix.o
                0x00000000c0020108                lseek
 .text.rename   0x00000000c00201c8       0x24 build/kernel/components/dfs/src/dfs_posix.o
                0x00000000c00201c8                rename
 .text.unlink   0x00000000c00201ec       0x24 build/kernel/components/dfs/src/dfs_posix.o
                0x00000000c00201ec                unlink
 .text.stat     0x00000000c0020210       0x24 build/kernel/components/dfs/src/dfs_posix.o
                0x00000000c0020210                stat
 .text.fstat    0x00000000c0020234       0x6c build/kernel/components/dfs/src/dfs_posix.o
                0x00000000c0020234                fstat
 .text.fcntl    0x00000000c00202a0       0x54 build/kernel/components/dfs/src/dfs_posix.o
                0x00000000c00202a0                fcntl
 .text.ioctl    0x00000000c00202f4       0x30 build/kernel/components/dfs/src/dfs_posix.o
                0x00000000c00202f4                ioctl
 .text.opendir  0x00000000c0020324       0x9c build/kernel/components/dfs/src/dfs_posix.o
                0x00000000c0020324                opendir
 .text.readdir  0x00000000c00203c0       0x9c build/kernel/components/dfs/src/dfs_posix.o
                0x00000000c00203c0                readdir
 .text.rewinddir
                0x00000000c002045c       0x44 build/kernel/components/dfs/src/dfs_posix.o
                0x00000000c002045c                rewinddir
 .text.closedir
                0x00000000c00204a0       0x60 build/kernel/components/dfs/src/dfs_posix.o
                0x00000000c00204a0                closedir
 .text.access   0x00000000c0020500       0x30 build/kernel/components/dfs/src/dfs_posix.o
                0x00000000c0020500                access
 .text.getcwd   0x00000000c0020530       0x30 build/kernel/components/dfs/src/dfs_posix.o
                0x00000000c0020530                getcwd
 .text._poll_add
                0x00000000c0020560       0x64 build/kernel/components/dfs/src/poll.o
 .text.__wqueue_pollwake
                0x00000000c00205c4       0x2c build/kernel/components/dfs/src/poll.o
 .text.poll     0x00000000c00205f0      0x214 build/kernel/components/dfs/src/poll.o
                0x00000000c00205f0                poll
 .text.select   0x00000000c0020804      0x804 build/kernel/components/dfs/src/select.o
                0x00000000c0020804                select
 .text.dfs_device_fs_mount
                0x00000000c0021008        0x8 build/kernel/components/dfs/filesystems/devfs/devfs.o
                0x00000000c0021008                dfs_device_fs_mount
 .text.dfs_device_fs_poll
                0x00000000c0021010        0x8 build/kernel/components/dfs/filesystems/devfs/devfs.o
 .text.dfs_device_fs_ioctl
                0x00000000c0021018       0x78 build/kernel/components/dfs/filesystems/devfs/devfs.o
                0x00000000c0021018                dfs_device_fs_ioctl
 .text.dfs_device_fs_read
                0x00000000c0021090       0x80 build/kernel/components/dfs/filesystems/devfs/devfs.o
                0x00000000c0021090                dfs_device_fs_read
 .text.dfs_device_fs_write
                0x00000000c0021110       0x80 build/kernel/components/dfs/filesystems/devfs/devfs.o
                0x00000000c0021110                dfs_device_fs_write
 .text.dfs_device_fs_close
                0x00000000c0021190       0xf0 build/kernel/components/dfs/filesystems/devfs/devfs.o
                0x00000000c0021190                dfs_device_fs_close
 .text.dfs_device_fs_open
                0x00000000c0021280      0x1ec build/kernel/components/dfs/filesystems/devfs/devfs.o
                0x00000000c0021280                dfs_device_fs_open
 .text.dfs_device_fs_getdents
                0x00000000c002146c       0xd8 build/kernel/components/dfs/filesystems/devfs/devfs.o
                0x00000000c002146c                dfs_device_fs_getdents
 .text.dfs_device_fs_stat
                0x00000000c0021544       0xd4 build/kernel/components/dfs/filesystems/devfs/devfs.o
                0x00000000c0021544                dfs_device_fs_stat
 .text.devfs_init
                0x00000000c0021618       0x18 build/kernel/components/dfs/filesystems/devfs/devfs.o
                0x00000000c0021618                devfs_init
 .text.dfs_romfs_mount
                0x00000000c0021630       0x14 build/kernel/components/dfs/filesystems/romfs/dfs_romfs.o
                0x00000000c0021630                dfs_romfs_mount
 .text.dfs_romfs_unmount
                0x00000000c0021644        0x8 build/kernel/components/dfs/filesystems/romfs/dfs_romfs.o
                0x00000000c0021644                dfs_romfs_unmount
 .text.dfs_romfs_ioctl
                0x00000000c002164c        0x8 build/kernel/components/dfs/filesystems/romfs/dfs_romfs.o
                0x00000000c002164c                dfs_romfs_ioctl
 .text.dfs_romfs_lseek
                0x00000000c0021654       0x34 build/kernel/components/dfs/filesystems/romfs/dfs_romfs.o
                0x00000000c0021654                dfs_romfs_lseek
 .text.dfs_romfs_close
                0x00000000c0021688       0x60 build/kernel/components/dfs/filesystems/romfs/dfs_romfs.o
                0x00000000c0021688                dfs_romfs_close
 .text.dfs_romfs_read
                0x00000000c00216e8       0xc4 build/kernel/components/dfs/filesystems/romfs/dfs_romfs.o
                0x00000000c00216e8                dfs_romfs_read
 .text.dfs_romfs_getdents
                0x00000000c00217ac      0x12c build/kernel/components/dfs/filesystems/romfs/dfs_romfs.o
                0x00000000c00217ac                dfs_romfs_getdents
 .text.dfs_romfs_init
                0x00000000c00218d8       0x18 build/kernel/components/dfs/filesystems/romfs/dfs_romfs.o
                0x00000000c00218d8                dfs_romfs_init
 .text.dfs_romfs_lookup
                0x00000000c00218f0      0x160 build/kernel/components/dfs/filesystems/romfs/dfs_romfs.o
                0x00000000c00218f0                dfs_romfs_lookup
 .text.dfs_romfs_open
                0x00000000c0021a50      0x158 build/kernel/components/dfs/filesystems/romfs/dfs_romfs.o
                0x00000000c0021a50                dfs_romfs_open
 .text.dfs_romfs_stat
                0x00000000c0021ba8       0x70 build/kernel/components/dfs/filesystems/romfs/dfs_romfs.o
                0x00000000c0021ba8                dfs_romfs_stat
 .text.rt_completion_init
                0x00000000c0021c18       0x48 build/kernel/components/drivers/src/completion.o
                0x00000000c0021c18                rt_completion_init
 .text.rt_completion_wait
                0x00000000c0021c60      0x15c build/kernel/components/drivers/src/completion.o
                0x00000000c0021c60                rt_completion_wait
 .text.rt_completion_done
                0x00000000c0021dbc       0x74 build/kernel/components/drivers/src/completion.o
                0x00000000c0021dbc                rt_completion_done
 .text.rt_pipe_control
                0x00000000c0021e30        0x8 build/kernel/components/drivers/src/pipe.o
                0x00000000c0021e30                rt_pipe_control
 .text.rt_pipe_open
                0x00000000c0021e38       0x60 build/kernel/components/drivers/src/pipe.o
                0x00000000c0021e38                rt_pipe_open
 .text.pipe_fops_open
                0x00000000c0021e98       0x70 build/kernel/components/drivers/src/pipe.o
 .text.rt_pipe_close
                0x00000000c0021f08       0x44 build/kernel/components/drivers/src/pipe.o
                0x00000000c0021f08                rt_pipe_close
 .text.pipe_fops_poll
                0x00000000c0021f4c       0xc8 build/kernel/components/drivers/src/pipe.o
 .text.pipe_fops_ioctl
                0x00000000c0022014       0x70 build/kernel/components/drivers/src/pipe.o
 .text.pipe_fops_write
                0x00000000c0022084       0xf4 build/kernel/components/drivers/src/pipe.o
 .text.pipe_fops_read
                0x00000000c0022178       0xb4 build/kernel/components/drivers/src/pipe.o
 .text.rt_pipe_read
                0x00000000c002222c       0x98 build/kernel/components/drivers/src/pipe.o
                0x00000000c002222c                rt_pipe_read
 .text.rt_pipe_write
                0x00000000c00222c4       0x98 build/kernel/components/drivers/src/pipe.o
                0x00000000c00222c4                rt_pipe_write
 .text.pipe_fops_close
                0x00000000c002235c       0xd8 build/kernel/components/drivers/src/pipe.o
 .text.pipe     0x00000000c0022434      0x158 build/kernel/components/drivers/src/pipe.o
                0x00000000c0022434                pipe
 .text.rt_ringbuffer_init
                0x00000000c002258c       0x68 build/kernel/components/drivers/src/ringbuffer.o
                0x00000000c002258c                rt_ringbuffer_init
 .text.rt_ringbuffer_put
                0x00000000c00225f4      0x14c build/kernel/components/drivers/src/ringbuffer.o
                0x00000000c00225f4                rt_ringbuffer_put
 .text.rt_ringbuffer_put_force
                0x00000000c0022740      0x1a8 build/kernel/components/drivers/src/ringbuffer.o
                0x00000000c0022740                rt_ringbuffer_put_force
 .text.rt_ringbuffer_get
                0x00000000c00228e8      0x140 build/kernel/components/drivers/src/ringbuffer.o
                0x00000000c00228e8                rt_ringbuffer_get
 .text.rt_ringbuffer_data_len
                0x00000000c0022a28       0x54 build/kernel/components/drivers/src/ringbuffer.o
                0x00000000c0022a28                rt_ringbuffer_data_len
 .text.rt_ringbuffer_create
                0x00000000c0022a7c       0xa0 build/kernel/components/drivers/src/ringbuffer.o
                0x00000000c0022a7c                rt_ringbuffer_create
 .text.rt_ringbuffer_destroy
                0x00000000c0022b1c       0x40 build/kernel/components/drivers/src/ringbuffer.o
                0x00000000c0022b1c                rt_ringbuffer_destroy
 .text.__wqueue_default_wake
                0x00000000c0022b5c        0x8 build/kernel/components/drivers/src/waitqueue.o
                0x00000000c0022b5c                __wqueue_default_wake
 .text.rt_wqueue_add
                0x00000000c0022b64       0x34 build/kernel/components/drivers/src/waitqueue.o
                0x00000000c0022b64                rt_wqueue_add
 .text.rt_wqueue_remove
                0x00000000c0022b98       0x34 build/kernel/components/drivers/src/waitqueue.o
                0x00000000c0022b98                rt_wqueue_remove
 .text.rt_wqueue_wakeup
                0x00000000c0022bcc       0x98 build/kernel/components/drivers/src/waitqueue.o
                0x00000000c0022bcc                rt_wqueue_wakeup
 .text.rt_wqueue_wait
                0x00000000c0022c64      0x190 build/kernel/components/drivers/src/waitqueue.o
                0x00000000c0022c64                rt_wqueue_wait
 .text.rt_wqueue_wait_interruptible
                0x00000000c0022df4      0x190 build/kernel/components/drivers/src/waitqueue.o
                0x00000000c0022df4                rt_wqueue_wait_interruptible
 .text._workqueue_thread_entry
                0x00000000c0022f84       0xd4 build/kernel/components/drivers/src/workqueue.o
 .text.rt_work_sys_workqueue_init
                0x00000000c0023058       0xbc build/kernel/components/drivers/src/workqueue.o
                0x00000000c0023058                rt_work_sys_workqueue_init
 .text.rt_workqueue_create
                0x00000000c0023114       0x9c build/kernel/components/drivers/src/workqueue.o
                0x00000000c0023114                rt_workqueue_create
 .text.serial_fops_poll
                0x00000000c00231b0       0xa8 build/kernel/components/drivers/serial/serial.o
 .text.serial_fops_write
                0x00000000c0023258       0x18 build/kernel/components/drivers/serial/serial.o
 .text.serial_fops_read
                0x00000000c0023270       0x60 build/kernel/components/drivers/serial/serial.o
 .text.serial_fops_ioctl
                0x00000000c00232d0        0xc build/kernel/components/drivers/serial/serial.o
 .text.serial_fops_close
                0x00000000c00232dc       0x28 build/kernel/components/drivers/serial/serial.o
 .text.serial_fops_open
                0x00000000c0023304       0xdc build/kernel/components/drivers/serial/serial.o
 .text.serial_fops_rx_ind
                0x00000000c00233e0       0x18 build/kernel/components/drivers/serial/serial.o
 .text.rt_serial_control
                0x00000000c00233f8      0x720 build/kernel/components/drivers/serial/serial.o
 .text.rt_serial_init
                0x00000000c0023b18       0x68 build/kernel/components/drivers/serial/serial.o
 .text.rt_serial_open
                0x00000000c0023b80      0x1e8 build/kernel/components/drivers/serial/serial.o
 .text.rt_serial_read
                0x00000000c0023d68      0x168 build/kernel/components/drivers/serial/serial.o
 .text.rt_serial_write
                0x00000000c0023ed0      0x150 build/kernel/components/drivers/serial/serial.o
 .text.rt_serial_close
                0x00000000c0024020      0x118 build/kernel/components/drivers/serial/serial.o
 .text.rt_hw_serial_register
                0x00000000c0024138       0x88 build/kernel/components/drivers/serial/serial.o
                0x00000000c0024138                rt_hw_serial_register
 .text.rt_hw_serial_isr
                0x00000000c00241c0      0x1ac build/kernel/components/drivers/serial/serial.o
                0x00000000c00241c0                rt_hw_serial_isr
 .text.rt_watchdog_open
                0x00000000c002436c        0x8 build/kernel/components/drivers/watchdog/watchdog.o
 .text.rt_watchdog_control
                0x00000000c0024374       0x4c build/kernel/components/drivers/watchdog/watchdog.o
 .text.rt_watchdog_init
                0x00000000c00243c0       0x4c build/kernel/components/drivers/watchdog/watchdog.o
 .text.rt_watchdog_close
                0x00000000c002440c       0x5c build/kernel/components/drivers/watchdog/watchdog.o
 .text.rt_hw_watchdog_register
                0x00000000c0024468       0x7c build/kernel/components/drivers/watchdog/watchdog.o
                0x00000000c0024468                rt_hw_watchdog_register
 .text.getenv   0x00000000c00244e4       0x88 /opt/arm-linux-musleabi/bin/../lib/gcc/arm-linux-musleabi/7.3.0/../../../../arm-linux-musleabi/lib/libc_kernel.a(getenv.o)
                0x00000000c00244e4                getenv
 .text.__putenv
                0x00000000c002456c      0x158 /opt/arm-linux-musleabi/bin/../lib/gcc/arm-linux-musleabi/7.3.0/../../../../arm-linux-musleabi/lib/libc_kernel.a(putenv.o)
                0x00000000c002456c                __putenv
 .text.putenv   0x00000000c00246c4       0x40 /opt/arm-linux-musleabi/bin/../lib/gcc/arm-linux-musleabi/7.3.0/../../../../arm-linux-musleabi/lib/libc_kernel.a(putenv.o)
                0x00000000c00246c4                putenv
 .text.__env_rm_add
                0x00000000c0024704       0xc0 /opt/arm-linux-musleabi/bin/../lib/gcc/arm-linux-musleabi/7.3.0/../../../../arm-linux-musleabi/lib/libc_kernel.a(setenv.o)
                0x00000000c0024704                __env_rm_add
 .text.setenv   0x00000000c00247c4       0xc8 /opt/arm-linux-musleabi/bin/../lib/gcc/arm-linux-musleabi/7.3.0/../../../../arm-linux-musleabi/lib/libc_kernel.a(setenv.o)
                0x00000000c00247c4                setenv
 .text.unsetenv
                0x00000000c002488c       0xcc /opt/arm-linux-musleabi/bin/../lib/gcc/arm-linux-musleabi/7.3.0/../../../../arm-linux-musleabi/lib/libc_kernel.a(unsetenv.o)
                0x00000000c002488c                unsetenv
 .text.dummy    0x00000000c0024958        0x4 /opt/arm-linux-musleabi/bin/../lib/gcc/arm-linux-musleabi/7.3.0/../../../../arm-linux-musleabi/lib/libc_kernel.a(fclose.o)
                0x00000000c0024958                __unlist_locked_file
 .text.fclose   0x00000000c002495c       0xc0 /opt/arm-linux-musleabi/bin/../lib/gcc/arm-linux-musleabi/7.3.0/../../../../arm-linux-musleabi/lib/libc_kernel.a(fclose.o)
                0x00000000c002495c                fclose
 .text.fflush   0x00000000c0024a1c      0x1c4 /opt/arm-linux-musleabi/bin/../lib/gcc/arm-linux-musleabi/7.3.0/../../../../arm-linux-musleabi/lib/libc_kernel.a(fflush.o)
                0x00000000c0024a1c                fflush
                0x00000000c0024a1c                fflush_unlocked
 .text.fileno   0x00000000c0024be0       0x58 /opt/arm-linux-musleabi/bin/../lib/gcc/arm-linux-musleabi/7.3.0/../../../../arm-linux-musleabi/lib/libc_kernel.a(fileno.o)
                0x00000000c0024be0                fileno_unlocked
                0x00000000c0024be0                fileno
 .text.fopen    0x00000000c0024c38       0xe8 /opt/arm-linux-musleabi/bin/../lib/gcc/arm-linux-musleabi/7.3.0/../../../../arm-linux-musleabi/lib/libc_kernel.a(fopen.o)
                0x00000000c0024c38                fopen
                0x00000000c0024c38                fopen64
 .text.locking_getc.constprop.1
                0x00000000c0024d20      0x11c /opt/arm-linux-musleabi/bin/../lib/gcc/arm-linux-musleabi/7.3.0/../../../../arm-linux-musleabi/lib/libc_kernel.a(getchar.o)
 .text.getchar  0x00000000c0024e3c       0x9c /opt/arm-linux-musleabi/bin/../lib/gcc/arm-linux-musleabi/7.3.0/../../../../arm-linux-musleabi/lib/libc_kernel.a(getchar.o)
                0x00000000c0024e3c                getchar
 .text.__ofl_lock
                0x00000000c0024ed8       0x1c /opt/arm-linux-musleabi/bin/../lib/gcc/arm-linux-musleabi/7.3.0/../../../../arm-linux-musleabi/lib/libc_kernel.a(ofl.o)
                0x00000000c0024ed8                __ofl_lock
 .text.__ofl_unlock
                0x00000000c0024ef4        0xc /opt/arm-linux-musleabi/bin/../lib/gcc/arm-linux-musleabi/7.3.0/../../../../arm-linux-musleabi/lib/libc_kernel.a(ofl.o)
                0x00000000c0024ef4                __ofl_unlock
 .text.printf   0x00000000c0024f00       0x38 /opt/arm-linux-musleabi/bin/../lib/gcc/arm-linux-musleabi/7.3.0/../../../../arm-linux-musleabi/lib/libc_kernel.a(printf.o)
                0x00000000c0024f00                printf
 .text.setvbuf  0x00000000c0024f38       0x6c /opt/arm-linux-musleabi/bin/../lib/gcc/arm-linux-musleabi/7.3.0/../../../../arm-linux-musleabi/lib/libc_kernel.a(setvbuf.o)
                0x00000000c0024f38                setvbuf
 .text.snprintf
                0x00000000c0024fa4       0x30 /opt/arm-linux-musleabi/bin/../lib/gcc/arm-linux-musleabi/7.3.0/../../../../arm-linux-musleabi/lib/libc_kernel.a(snprintf.o)
                0x00000000c0024fa4                snprintf
 .text.pop_arg  0x00000000c0024fd4      0x194 /opt/arm-linux-musleabi/bin/../lib/gcc/arm-linux-musleabi/7.3.0/../../../../arm-linux-musleabi/lib/libc_kernel.a(vfprintf.o)
 .text.pad.part.0
                0x00000000c0025168       0xa8 /opt/arm-linux-musleabi/bin/../lib/gcc/arm-linux-musleabi/7.3.0/../../../../arm-linux-musleabi/lib/libc_kernel.a(vfprintf.o)
 .text.printf_core
                0x00000000c0025210     0x20d4 /opt/arm-linux-musleabi/bin/../lib/gcc/arm-linux-musleabi/7.3.0/../../../../arm-linux-musleabi/lib/libc_kernel.a(vfprintf.o)
 .text.vfprintf
                0x00000000c00272e4      0x18c /opt/arm-linux-musleabi/bin/../lib/gcc/arm-linux-musleabi/7.3.0/../../../../arm-linux-musleabi/lib/libc_kernel.a(vfprintf.o)
                0x00000000c00272e4                vfprintf
 .text.sn_write
                0x00000000c0027470       0xa8 /opt/arm-linux-musleabi/bin/../lib/gcc/arm-linux-musleabi/7.3.0/../../../../arm-linux-musleabi/lib/libc_kernel.a(vsnprintf.o)
 .text.vsnprintf
                0x00000000c0027518       0xdc /opt/arm-linux-musleabi/bin/../lib/gcc/arm-linux-musleabi/7.3.0/../../../../arm-linux-musleabi/lib/libc_kernel.a(vsnprintf.o)
                0x00000000c0027518                vsnprintf
 .text.atoi     0x00000000c00275f4       0xb0 /opt/arm-linux-musleabi/bin/../lib/gcc/arm-linux-musleabi/7.3.0/../../../../arm-linux-musleabi/lib/libc_kernel.a(atoi.o)
                0x00000000c00275f4                atoi
 .text.memcmp   0x00000000c00276a4       0x4c /opt/arm-linux-musleabi/bin/../lib/gcc/arm-linux-musleabi/7.3.0/../../../../arm-linux-musleabi/lib/libc_kernel.a(memcmp.o)
                0x00000000c00276a4                memcmp
 .text.memset   0x00000000c00276f0      0x11c /opt/arm-linux-musleabi/bin/../lib/gcc/arm-linux-musleabi/7.3.0/../../../../arm-linux-musleabi/lib/libc_kernel.a(memset.o)
                0x00000000c00276f0                memset
 .text.__stpcpy
                0x00000000c002780c       0xc4 /opt/arm-linux-musleabi/bin/../lib/gcc/arm-linux-musleabi/7.3.0/../../../../arm-linux-musleabi/lib/libc_kernel.a(stpcpy.o)
                0x00000000c002780c                stpcpy
                0x00000000c002780c                __stpcpy
 .text.strchr   0x00000000c00278d0       0x20 /opt/arm-linux-musleabi/bin/../lib/gcc/arm-linux-musleabi/7.3.0/../../../../arm-linux-musleabi/lib/libc_kernel.a(strchr.o)
                0x00000000c00278d0                strchr
 .text.__strchrnul
                0x00000000c00278f0       0xf8 /opt/arm-linux-musleabi/bin/../lib/gcc/arm-linux-musleabi/7.3.0/../../../../arm-linux-musleabi/lib/libc_kernel.a(strchrnul.o)
                0x00000000c00278f0                __strchrnul
                0x00000000c00278f0                strchrnul
 .text.strcmp   0x00000000c00279e8       0x44 /opt/arm-linux-musleabi/bin/../lib/gcc/arm-linux-musleabi/7.3.0/../../../../arm-linux-musleabi/lib/libc_kernel.a(strcmp.o)
                0x00000000c00279e8                strcmp
 .text.strcpy   0x00000000c0027a2c       0x14 /opt/arm-linux-musleabi/bin/../lib/gcc/arm-linux-musleabi/7.3.0/../../../../arm-linux-musleabi/lib/libc_kernel.a(strcpy.o)
                0x00000000c0027a2c                strcpy
 .text.strlen   0x00000000c0027a40       0xb0 /opt/arm-linux-musleabi/bin/../lib/gcc/arm-linux-musleabi/7.3.0/../../../../arm-linux-musleabi/lib/libc_kernel.a(strlen.o)
                0x00000000c0027a40                strlen
 .text.strncmp  0x00000000c0027af0       0x94 /opt/arm-linux-musleabi/bin/../lib/gcc/arm-linux-musleabi/7.3.0/../../../../arm-linux-musleabi/lib/libc_kernel.a(strncmp.o)
                0x00000000c0027af0                strncmp
 .text.strncpy  0x00000000c0027b84       0x14 /opt/arm-linux-musleabi/bin/../lib/gcc/arm-linux-musleabi/7.3.0/../../../../arm-linux-musleabi/lib/libc_kernel.a(strncpy.o)
                0x00000000c0027b84                strncpy
 .text.strnlen  0x00000000c0027b98       0x28 /opt/arm-linux-musleabi/bin/../lib/gcc/arm-linux-musleabi/7.3.0/../../../../arm-linux-musleabi/lib/libc_kernel.a(strnlen.o)
                0x00000000c0027b98                strnlen
 .text.strrchr  0x00000000c0027bc0       0x24 /opt/arm-linux-musleabi/bin/../lib/gcc/arm-linux-musleabi/7.3.0/../../../../arm-linux-musleabi/lib/libc_kernel.a(strrchr.o)
                0x00000000c0027bc0                strrchr
 .text.twoway_strstr
                0x00000000c0027be4      0x36c /opt/arm-linux-musleabi/bin/../lib/gcc/arm-linux-musleabi/7.3.0/../../../../arm-linux-musleabi/lib/libc_kernel.a(strstr.o)
 .text.strstr   0x00000000c0027f50      0x1a4 /opt/arm-linux-musleabi/bin/../lib/gcc/arm-linux-musleabi/7.3.0/../../../../arm-linux-musleabi/lib/libc_kernel.a(strstr.o)
                0x00000000c0027f50                strstr
 .text.__lock   0x00000000c00280f4      0x160 /opt/arm-linux-musleabi/bin/../lib/gcc/arm-linux-musleabi/7.3.0/../../../../arm-linux-musleabi/lib/libc_kernel.a(__lock.o)
                0x00000000c00280f4                __lock
 .text.__unlock
                0x00000000c0028254       0xa4 /opt/arm-linux-musleabi/bin/../lib/gcc/arm-linux-musleabi/7.3.0/../../../../arm-linux-musleabi/lib/libc_kernel.a(__lock.o)
                0x00000000c0028254                __unlock
 .text.__strerror_l
                0x00000000c00282f8       0x6c /opt/arm-linux-musleabi/bin/../lib/gcc/arm-linux-musleabi/7.3.0/../../../../arm-linux-musleabi/lib/libc_kernel.a(strerror.o)
                0x00000000c00282f8                strerror_l
                0x00000000c00282f8                __strerror_l
 .text.strerror
                0x00000000c0028364       0x28 /opt/arm-linux-musleabi/bin/../lib/gcc/arm-linux-musleabi/7.3.0/../../../../arm-linux-musleabi/lib/libc_kernel.a(strerror.o)
                0x00000000c0028364                strerror
 .text.syscall_restart_syscall
                0x00000000c002838c        0x8 /opt/arm-linux-musleabi/bin/../lib/gcc/arm-linux-musleabi/7.3.0/../../../../arm-linux-musleabi/lib/libc_kernel.a(rtt_syscall.o)
 .text.syscall_exit
                0x00000000c0028394        0x4 /opt/arm-linux-musleabi/bin/../lib/gcc/arm-linux-musleabi/7.3.0/../../../../arm-linux-musleabi/lib/libc_kernel.a(rtt_syscall.o)
 .text.syscall_brk
                0x00000000c0028398        0x8 /opt/arm-linux-musleabi/bin/../lib/gcc/arm-linux-musleabi/7.3.0/../../../../arm-linux-musleabi/lib/libc_kernel.a(rtt_syscall.o)
 .text.syscall_ioctl
                0x00000000c00283a0        0x8 /opt/arm-linux-musleabi/bin/../lib/gcc/arm-linux-musleabi/7.3.0/../../../../arm-linux-musleabi/lib/libc_kernel.a(rtt_syscall.o)
 .text.syscall_statfs
                0x00000000c00283a8        0x8 /opt/arm-linux-musleabi/bin/../lib/gcc/arm-linux-musleabi/7.3.0/../../../../arm-linux-musleabi/lib/libc_kernel.a(rtt_syscall.o)
 .text.syscall_fstatfs
                0x00000000c00283b0        0x8 /opt/arm-linux-musleabi/bin/../lib/gcc/arm-linux-musleabi/7.3.0/../../../../arm-linux-musleabi/lib/libc_kernel.a(rtt_syscall.o)
 .text.syscall_poll
                0x00000000c00283b8        0x8 /opt/arm-linux-musleabi/bin/../lib/gcc/arm-linux-musleabi/7.3.0/../../../../arm-linux-musleabi/lib/libc_kernel.a(rtt_syscall.o)
 .text.syscall_socket
                0x00000000c00283c0        0x8 /opt/arm-linux-musleabi/bin/../lib/gcc/arm-linux-musleabi/7.3.0/../../../../arm-linux-musleabi/lib/libc_kernel.a(rtt_syscall.o)
 .text.syscall_bind
                0x00000000c00283c8        0x8 /opt/arm-linux-musleabi/bin/../lib/gcc/arm-linux-musleabi/7.3.0/../../../../arm-linux-musleabi/lib/libc_kernel.a(rtt_syscall.o)
 .text.syscall_listen
                0x00000000c00283d0        0x8 /opt/arm-linux-musleabi/bin/../lib/gcc/arm-linux-musleabi/7.3.0/../../../../arm-linux-musleabi/lib/libc_kernel.a(rtt_syscall.o)
 .text.syscall_accept
                0x00000000c00283d8        0x8 /opt/arm-linux-musleabi/bin/../lib/gcc/arm-linux-musleabi/7.3.0/../../../../arm-linux-musleabi/lib/libc_kernel.a(rtt_syscall.o)
 .text.syscall_send
                0x00000000c00283e0        0x8 /opt/arm-linux-musleabi/bin/../lib/gcc/arm-linux-musleabi/7.3.0/../../../../arm-linux-musleabi/lib/libc_kernel.a(rtt_syscall.o)
 .text.syscall_sendto
                0x00000000c00283e8        0x8 /opt/arm-linux-musleabi/bin/../lib/gcc/arm-linux-musleabi/7.3.0/../../../../arm-linux-musleabi/lib/libc_kernel.a(rtt_syscall.o)
 .text.syscall_recvfrom
                0x00000000c00283f0        0x8 /opt/arm-linux-musleabi/bin/../lib/gcc/arm-linux-musleabi/7.3.0/../../../../arm-linux-musleabi/lib/libc_kernel.a(rtt_syscall.o)
 .text.syscall_set_thread_area
                0x00000000c00283f8        0xc /opt/arm-linux-musleabi/bin/../lib/gcc/arm-linux-musleabi/7.3.0/../../../../arm-linux-musleabi/lib/libc_kernel.a(rtt_syscall.o)
 .text.syscall_writev
                0x00000000c0028404       0x48 /opt/arm-linux-musleabi/bin/../lib/gcc/arm-linux-musleabi/7.3.0/../../../../arm-linux-musleabi/lib/libc_kernel.a(rtt_syscall.o)
 .text.syscall_write
                0x00000000c002844c        0x4 /opt/arm-linux-musleabi/bin/../lib/gcc/arm-linux-musleabi/7.3.0/../../../../arm-linux-musleabi/lib/libc_kernel.a(rtt_syscall.o)
 .text.syscall_readv
                0x00000000c0028450       0x48 /opt/arm-linux-musleabi/bin/../lib/gcc/arm-linux-musleabi/7.3.0/../../../../arm-linux-musleabi/lib/libc_kernel.a(rtt_syscall.o)
 .text.syscall_read
                0x00000000c0028498        0x4 /opt/arm-linux-musleabi/bin/../lib/gcc/arm-linux-musleabi/7.3.0/../../../../arm-linux-musleabi/lib/libc_kernel.a(rtt_syscall.o)
 .text.syscall__llseek
                0x00000000c002849c       0x28 /opt/arm-linux-musleabi/bin/../lib/gcc/arm-linux-musleabi/7.3.0/../../../../arm-linux-musleabi/lib/libc_kernel.a(rtt_syscall.o)
 .text.syscall_lseek
                0x00000000c00284c4       0x20 /opt/arm-linux-musleabi/bin/../lib/gcc/arm-linux-musleabi/7.3.0/../../../../arm-linux-musleabi/lib/libc_kernel.a(rtt_syscall.o)
 .text.syscall_close
                0x00000000c00284e4        0x4 /opt/arm-linux-musleabi/bin/../lib/gcc/arm-linux-musleabi/7.3.0/../../../../arm-linux-musleabi/lib/libc_kernel.a(rtt_syscall.o)
 .text.syscall_open
                0x00000000c00284e8        0x4 /opt/arm-linux-musleabi/bin/../lib/gcc/arm-linux-musleabi/7.3.0/../../../../arm-linux-musleabi/lib/libc_kernel.a(rtt_syscall.o)
 .text.syscall_recv
                0x00000000c00284ec        0x8 /opt/arm-linux-musleabi/bin/../lib/gcc/arm-linux-musleabi/7.3.0/../../../../arm-linux-musleabi/lib/libc_kernel.a(rtt_syscall.o)
 .text.syscall_connect
                0x00000000c00284f4        0x8 /opt/arm-linux-musleabi/bin/../lib/gcc/arm-linux-musleabi/7.3.0/../../../../arm-linux-musleabi/lib/libc_kernel.a(rtt_syscall.o)
 .text.syscall_fstat
                0x00000000c00284fc        0x8 /opt/arm-linux-musleabi/bin/../lib/gcc/arm-linux-musleabi/7.3.0/../../../../arm-linux-musleabi/lib/libc_kernel.a(rtt_syscall.o)
 .text.syscall_lstat
                0x00000000c0028504        0x8 /opt/arm-linux-musleabi/bin/../lib/gcc/arm-linux-musleabi/7.3.0/../../../../arm-linux-musleabi/lib/libc_kernel.a(rtt_syscall.o)
 .text.syscall_statfs64
                0x00000000c002850c        0x8 /opt/arm-linux-musleabi/bin/../lib/gcc/arm-linux-musleabi/7.3.0/../../../../arm-linux-musleabi/lib/libc_kernel.a(rtt_syscall.o)
 .text.syscall_fstatfs64
                0x00000000c0028514        0x8 /opt/arm-linux-musleabi/bin/../lib/gcc/arm-linux-musleabi/7.3.0/../../../../arm-linux-musleabi/lib/libc_kernel.a(rtt_syscall.o)
 .text.syscall_stat64
                0x00000000c002851c        0x8 /opt/arm-linux-musleabi/bin/../lib/gcc/arm-linux-musleabi/7.3.0/../../../../arm-linux-musleabi/lib/libc_kernel.a(rtt_syscall.o)
 .text.syscall_lstat64
                0x00000000c0028524        0x8 /opt/arm-linux-musleabi/bin/../lib/gcc/arm-linux-musleabi/7.3.0/../../../../arm-linux-musleabi/lib/libc_kernel.a(rtt_syscall.o)
 .text.syscall_fstat64
                0x00000000c002852c        0x8 /opt/arm-linux-musleabi/bin/../lib/gcc/arm-linux-musleabi/7.3.0/../../../../arm-linux-musleabi/lib/libc_kernel.a(rtt_syscall.o)
 .text.syscall_stat
                0x00000000c0028534        0x8 /opt/arm-linux-musleabi/bin/../lib/gcc/arm-linux-musleabi/7.3.0/../../../../arm-linux-musleabi/lib/libc_kernel.a(rtt_syscall.o)
 .text.syscall_vhangup
                0x00000000c002853c        0x8 /opt/arm-linux-musleabi/bin/../lib/gcc/arm-linux-musleabi/7.3.0/../../../../arm-linux-musleabi/lib/libc_kernel.a(rtt_syscall.o)
 .text.syscall_setitimer
                0x00000000c0028544        0x8 /opt/arm-linux-musleabi/bin/../lib/gcc/arm-linux-musleabi/7.3.0/../../../../arm-linux-musleabi/lib/libc_kernel.a(rtt_syscall.o)
 .text.syscall_getitimer
                0x00000000c002854c        0x8 /opt/arm-linux-musleabi/bin/../lib/gcc/arm-linux-musleabi/7.3.0/../../../../arm-linux-musleabi/lib/libc_kernel.a(rtt_syscall.o)
 .text.syscall_wait4
                0x00000000c0028554        0x8 /opt/arm-linux-musleabi/bin/../lib/gcc/arm-linux-musleabi/7.3.0/../../../../arm-linux-musleabi/lib/libc_kernel.a(rtt_syscall.o)
 .text.syscall_swapoff
                0x00000000c002855c        0x8 /opt/arm-linux-musleabi/bin/../lib/gcc/arm-linux-musleabi/7.3.0/../../../../arm-linux-musleabi/lib/libc_kernel.a(rtt_syscall.o)
 .text.syscall_shmget
                0x00000000c0028564        0x8 /opt/arm-linux-musleabi/bin/../lib/gcc/arm-linux-musleabi/7.3.0/../../../../arm-linux-musleabi/lib/libc_kernel.a(rtt_syscall.o)
 .text.syscall_shmctl
                0x00000000c002856c        0x8 /opt/arm-linux-musleabi/bin/../lib/gcc/arm-linux-musleabi/7.3.0/../../../../arm-linux-musleabi/lib/libc_kernel.a(rtt_syscall.o)
 .text.syscall_add_key
                0x00000000c0028574        0x8 /opt/arm-linux-musleabi/bin/../lib/gcc/arm-linux-musleabi/7.3.0/../../../../arm-linux-musleabi/lib/libc_kernel.a(rtt_syscall.o)
 .text.syscall_request_key
                0x00000000c002857c        0x8 /opt/arm-linux-musleabi/bin/../lib/gcc/arm-linux-musleabi/7.3.0/../../../../arm-linux-musleabi/lib/libc_kernel.a(rtt_syscall.o)
 .text.syscall_keyctl
                0x00000000c0028584        0x8 /opt/arm-linux-musleabi/bin/../lib/gcc/arm-linux-musleabi/7.3.0/../../../../arm-linux-musleabi/lib/libc_kernel.a(rtt_syscall.o)
 .text.syscall_semtimedop
                0x00000000c002858c        0x8 /opt/arm-linux-musleabi/bin/../lib/gcc/arm-linux-musleabi/7.3.0/../../../../arm-linux-musleabi/lib/libc_kernel.a(rtt_syscall.o)
 .text.syscall_vserver
                0x00000000c0028594        0x8 /opt/arm-linux-musleabi/bin/../lib/gcc/arm-linux-musleabi/7.3.0/../../../../arm-linux-musleabi/lib/libc_kernel.a(rtt_syscall.o)
 .text.syscall_ioprio_set
                0x00000000c002859c        0x8 /opt/arm-linux-musleabi/bin/../lib/gcc/arm-linux-musleabi/7.3.0/../../../../arm-linux-musleabi/lib/libc_kernel.a(rtt_syscall.o)
 .text.syscall_ioprio_get
                0x00000000c00285a4        0x8 /opt/arm-linux-musleabi/bin/../lib/gcc/arm-linux-musleabi/7.3.0/../../../../arm-linux-musleabi/lib/libc_kernel.a(rtt_syscall.o)
 .text.syscall_inotify_init
                0x00000000c00285ac        0x8 /opt/arm-linux-musleabi/bin/../lib/gcc/arm-linux-musleabi/7.3.0/../../../../arm-linux-musleabi/lib/libc_kernel.a(rtt_syscall.o)
 .text.syscall_inotify_add_watch
                0x00000000c00285b4        0x8 /opt/arm-linux-musleabi/bin/../lib/gcc/arm-linux-musleabi/7.3.0/../../../../arm-linux-musleabi/lib/libc_kernel.a(rtt_syscall.o)
 .text.syscall_inotify_rm_watch
                0x00000000c00285bc        0x8 /opt/arm-linux-musleabi/bin/../lib/gcc/arm-linux-musleabi/7.3.0/../../../../arm-linux-musleabi/lib/libc_kernel.a(rtt_syscall.o)
 .text.syscall_mbind
                0x00000000c00285c4        0x8 /opt/arm-linux-musleabi/bin/../lib/gcc/arm-linux-musleabi/7.3.0/../../../../arm-linux-musleabi/lib/libc_kernel.a(rtt_syscall.o)
 .text.syscall_get_mempolicy
                0x00000000c00285cc        0x8 /opt/arm-linux-musleabi/bin/../lib/gcc/arm-linux-musleabi/7.3.0/../../../../arm-linux-musleabi/lib/libc_kernel.a(rtt_syscall.o)
 .text.syscall_set_mempolicy
                0x00000000c00285d4        0x8 /opt/arm-linux-musleabi/bin/../lib/gcc/arm-linux-musleabi/7.3.0/../../../../arm-linux-musleabi/lib/libc_kernel.a(rtt_syscall.o)
 .text.syscall_openat
                0x00000000c00285dc        0x8 /opt/arm-linux-musleabi/bin/../lib/gcc/arm-linux-musleabi/7.3.0/../../../../arm-linux-musleabi/lib/libc_kernel.a(rtt_syscall.o)
 .text.syscall_mkdirat
                0x00000000c00285e4        0x8 /opt/arm-linux-musleabi/bin/../lib/gcc/arm-linux-musleabi/7.3.0/../../../../arm-linux-musleabi/lib/libc_kernel.a(rtt_syscall.o)
 .text.syscall_mknodat
                0x00000000c00285ec        0x8 /opt/arm-linux-musleabi/bin/../lib/gcc/arm-linux-musleabi/7.3.0/../../../../arm-linux-musleabi/lib/libc_kernel.a(rtt_syscall.o)
 .text.syscall_fchownat
                0x00000000c00285f4        0x8 /opt/arm-linux-musleabi/bin/../lib/gcc/arm-linux-musleabi/7.3.0/../../../../arm-linux-musleabi/lib/libc_kernel.a(rtt_syscall.o)
 .text.syscall_futimesat
                0x00000000c00285fc        0x8 /opt/arm-linux-musleabi/bin/../lib/gcc/arm-linux-musleabi/7.3.0/../../../../arm-linux-musleabi/lib/libc_kernel.a(rtt_syscall.o)
 .text.syscall_fstatat64
                0x00000000c0028604        0x8 /opt/arm-linux-musleabi/bin/../lib/gcc/arm-linux-musleabi/7.3.0/../../../../arm-linux-musleabi/lib/libc_kernel.a(rtt_syscall.o)
 .text.syscall_unlinkat
                0x00000000c002860c        0x8 /opt/arm-linux-musleabi/bin/../lib/gcc/arm-linux-musleabi/7.3.0/../../../../arm-linux-musleabi/lib/libc_kernel.a(rtt_syscall.o)
 .text.syscall_renameat
                0x00000000c0028614        0x8 /opt/arm-linux-musleabi/bin/../lib/gcc/arm-linux-musleabi/7.3.0/../../../../arm-linux-musleabi/lib/libc_kernel.a(rtt_syscall.o)
 .text.syscall_linkat
                0x00000000c002861c        0x8 /opt/arm-linux-musleabi/bin/../lib/gcc/arm-linux-musleabi/7.3.0/../../../../arm-linux-musleabi/lib/libc_kernel.a(rtt_syscall.o)
 .text.syscall_symlinkat
                0x00000000c0028624        0x8 /opt/arm-linux-musleabi/bin/../lib/gcc/arm-linux-musleabi/7.3.0/../../../../arm-linux-musleabi/lib/libc_kernel.a(rtt_syscall.o)
 .text.syscall_readlinkat
                0x00000000c002862c        0x8 /opt/arm-linux-musleabi/bin/../lib/gcc/arm-linux-musleabi/7.3.0/../../../../arm-linux-musleabi/lib/libc_kernel.a(rtt_syscall.o)
 .text.syscall_fchmodat
                0x00000000c0028634        0x8 /opt/arm-linux-musleabi/bin/../lib/gcc/arm-linux-musleabi/7.3.0/../../../../arm-linux-musleabi/lib/libc_kernel.a(rtt_syscall.o)
 .text.syscall_faccessat
                0x00000000c002863c        0x8 /opt/arm-linux-musleabi/bin/../lib/gcc/arm-linux-musleabi/7.3.0/../../../../arm-linux-musleabi/lib/libc_kernel.a(rtt_syscall.o)
 .text.syscall_pselect6
                0x00000000c0028644        0x8 /opt/arm-linux-musleabi/bin/../lib/gcc/arm-linux-musleabi/7.3.0/../../../../arm-linux-musleabi/lib/libc_kernel.a(rtt_syscall.o)
 .text.syscall_ppoll
                0x00000000c002864c        0x8 /opt/arm-linux-musleabi/bin/../lib/gcc/arm-linux-musleabi/7.3.0/../../../../arm-linux-musleabi/lib/libc_kernel.a(rtt_syscall.o)
 .text.syscall_unshare
                0x00000000c0028654        0x8 /opt/arm-linux-musleabi/bin/../lib/gcc/arm-linux-musleabi/7.3.0/../../../../arm-linux-musleabi/lib/libc_kernel.a(rtt_syscall.o)
 .text.syscall_set_robust_list
                0x00000000c002865c        0x8 /opt/arm-linux-musleabi/bin/../lib/gcc/arm-linux-musleabi/7.3.0/../../../../arm-linux-musleabi/lib/libc_kernel.a(rtt_syscall.o)
 .text.syscall_get_robust_list
                0x00000000c0028664        0x8 /opt/arm-linux-musleabi/bin/../lib/gcc/arm-linux-musleabi/7.3.0/../../../../arm-linux-musleabi/lib/libc_kernel.a(rtt_syscall.o)
 .text.syscall_splice
                0x00000000c002866c        0x8 /opt/arm-linux-musleabi/bin/../lib/gcc/arm-linux-musleabi/7.3.0/../../../../arm-linux-musleabi/lib/libc_kernel.a(rtt_syscall.o)
 .text.syscall_arm_sync_file_range
                0x00000000c0028674        0x8 /opt/arm-linux-musleabi/bin/../lib/gcc/arm-linux-musleabi/7.3.0/../../../../arm-linux-musleabi/lib/libc_kernel.a(rtt_syscall.o)
 .text.syscall_tee
                0x00000000c002867c        0x8 /opt/arm-linux-musleabi/bin/../lib/gcc/arm-linux-musleabi/7.3.0/../../../../arm-linux-musleabi/lib/libc_kernel.a(rtt_syscall.o)
 .text.syscall_vmsplice
                0x00000000c0028684        0x8 /opt/arm-linux-musleabi/bin/../lib/gcc/arm-linux-musleabi/7.3.0/../../../../arm-linux-musleabi/lib/libc_kernel.a(rtt_syscall.o)
 .text.syscall_move_pages
                0x00000000c002868c        0x8 /opt/arm-linux-musleabi/bin/../lib/gcc/arm-linux-musleabi/7.3.0/../../../../arm-linux-musleabi/lib/libc_kernel.a(rtt_syscall.o)
 .text.syscall_getcpu
                0x00000000c0028694        0x8 /opt/arm-linux-musleabi/bin/../lib/gcc/arm-linux-musleabi/7.3.0/../../../../arm-linux-musleabi/lib/libc_kernel.a(rtt_syscall.o)
 .text.syscall_epoll_pwait
                0x00000000c002869c        0x8 /opt/arm-linux-musleabi/bin/../lib/gcc/arm-linux-musleabi/7.3.0/../../../../arm-linux-musleabi/lib/libc_kernel.a(rtt_syscall.o)
 .text.syscall_kexec_load
                0x00000000c00286a4        0x8 /opt/arm-linux-musleabi/bin/../lib/gcc/arm-linux-musleabi/7.3.0/../../../../arm-linux-musleabi/lib/libc_kernel.a(rtt_syscall.o)
 .text.syscall_utimensat
                0x00000000c00286ac        0x8 /opt/arm-linux-musleabi/bin/../lib/gcc/arm-linux-musleabi/7.3.0/../../../../arm-linux-musleabi/lib/libc_kernel.a(rtt_syscall.o)
 .text.syscall_signalfd
                0x00000000c00286b4        0x8 /opt/arm-linux-musleabi/bin/../lib/gcc/arm-linux-musleabi/7.3.0/../../../../arm-linux-musleabi/lib/libc_kernel.a(rtt_syscall.o)
 .text.syscall_timerfd_create
                0x00000000c00286bc        0x8 /opt/arm-linux-musleabi/bin/../lib/gcc/arm-linux-musleabi/7.3.0/../../../../arm-linux-musleabi/lib/libc_kernel.a(rtt_syscall.o)
 .text.syscall_eventfd
                0x00000000c00286c4        0x8 /opt/arm-linux-musleabi/bin/../lib/gcc/arm-linux-musleabi/7.3.0/../../../../arm-linux-musleabi/lib/libc_kernel.a(rtt_syscall.o)
 .text.syscall_fallocate
                0x00000000c00286cc        0x8 /opt/arm-linux-musleabi/bin/../lib/gcc/arm-linux-musleabi/7.3.0/../../../../arm-linux-musleabi/lib/libc_kernel.a(rtt_syscall.o)
 .text.syscall_timerfd_settime
                0x00000000c00286d4        0x8 /opt/arm-linux-musleabi/bin/../lib/gcc/arm-linux-musleabi/7.3.0/../../../../arm-linux-musleabi/lib/libc_kernel.a(rtt_syscall.o)
 .text.syscall_timerfd_gettime
                0x00000000c00286dc        0x8 /opt/arm-linux-musleabi/bin/../lib/gcc/arm-linux-musleabi/7.3.0/../../../../arm-linux-musleabi/lib/libc_kernel.a(rtt_syscall.o)
 .text.syscall_signalfd4
                0x00000000c00286e4        0x8 /opt/arm-linux-musleabi/bin/../lib/gcc/arm-linux-musleabi/7.3.0/../../../../arm-linux-musleabi/lib/libc_kernel.a(rtt_syscall.o)
 .text.syscall_eventfd2
                0x00000000c00286ec        0x8 /opt/arm-linux-musleabi/bin/../lib/gcc/arm-linux-musleabi/7.3.0/../../../../arm-linux-musleabi/lib/libc_kernel.a(rtt_syscall.o)
 .text.syscall_epoll_create1
                0x00000000c00286f4        0x8 /opt/arm-linux-musleabi/bin/../lib/gcc/arm-linux-musleabi/7.3.0/../../../../arm-linux-musleabi/lib/libc_kernel.a(rtt_syscall.o)
 .text.syscall_dup3
                0x00000000c00286fc        0x8 /opt/arm-linux-musleabi/bin/../lib/gcc/arm-linux-musleabi/7.3.0/../../../../arm-linux-musleabi/lib/libc_kernel.a(rtt_syscall.o)
 .text.syscall_pipe2
                0x00000000c0028704        0x8 /opt/arm-linux-musleabi/bin/../lib/gcc/arm-linux-musleabi/7.3.0/../../../../arm-linux-musleabi/lib/libc_kernel.a(rtt_syscall.o)
 .text.syscall_inotify_init1
                0x00000000c002870c        0x8 /opt/arm-linux-musleabi/bin/../lib/gcc/arm-linux-musleabi/7.3.0/../../../../arm-linux-musleabi/lib/libc_kernel.a(rtt_syscall.o)
 .text.syscall_preadv
                0x00000000c0028714        0x8 /opt/arm-linux-musleabi/bin/../lib/gcc/arm-linux-musleabi/7.3.0/../../../../arm-linux-musleabi/lib/libc_kernel.a(rtt_syscall.o)
 .text.syscall_pwritev
                0x00000000c002871c        0x8 /opt/arm-linux-musleabi/bin/../lib/gcc/arm-linux-musleabi/7.3.0/../../../../arm-linux-musleabi/lib/libc_kernel.a(rtt_syscall.o)
 .text.syscall_rt_tgsigqueueinfo
                0x00000000c0028724        0x8 /opt/arm-linux-musleabi/bin/../lib/gcc/arm-linux-musleabi/7.3.0/../../../../arm-linux-musleabi/lib/libc_kernel.a(rtt_syscall.o)
 .text.syscall_perf_event_open
                0x00000000c002872c        0x8 /opt/arm-linux-musleabi/bin/../lib/gcc/arm-linux-musleabi/7.3.0/../../../../arm-linux-musleabi/lib/libc_kernel.a(rtt_syscall.o)
 .text.syscall_recvmmsg
                0x00000000c0028734        0x8 /opt/arm-linux-musleabi/bin/../lib/gcc/arm-linux-musleabi/7.3.0/../../../../arm-linux-musleabi/lib/libc_kernel.a(rtt_syscall.o)
 .text.syscall_accept4
                0x00000000c002873c        0x8 /opt/arm-linux-musleabi/bin/../lib/gcc/arm-linux-musleabi/7.3.0/../../../../arm-linux-musleabi/lib/libc_kernel.a(rtt_syscall.o)
 .text.syscall_fanotify_init
                0x00000000c0028744        0x8 /opt/arm-linux-musleabi/bin/../lib/gcc/arm-linux-musleabi/7.3.0/../../../../arm-linux-musleabi/lib/libc_kernel.a(rtt_syscall.o)
 .text.syscall_fanotify_mark
                0x00000000c002874c        0x8 /opt/arm-linux-musleabi/bin/../lib/gcc/arm-linux-musleabi/7.3.0/../../../../arm-linux-musleabi/lib/libc_kernel.a(rtt_syscall.o)
 .text.syscall_prlimit64
                0x00000000c0028754        0x8 /opt/arm-linux-musleabi/bin/../lib/gcc/arm-linux-musleabi/7.3.0/../../../../arm-linux-musleabi/lib/libc_kernel.a(rtt_syscall.o)
 .text.syscall_name_to_handle_at
                0x00000000c002875c        0x8 /opt/arm-linux-musleabi/bin/../lib/gcc/arm-linux-musleabi/7.3.0/../../../../arm-linux-musleabi/lib/libc_kernel.a(rtt_syscall.o)
 .text.syscall_semget
                0x00000000c0028764        0x8 /opt/arm-linux-musleabi/bin/../lib/gcc/arm-linux-musleabi/7.3.0/../../../../arm-linux-musleabi/lib/libc_kernel.a(rtt_syscall.o)
 .text.syscall_semctl
                0x00000000c002876c        0x8 /opt/arm-linux-musleabi/bin/../lib/gcc/arm-linux-musleabi/7.3.0/../../../../arm-linux-musleabi/lib/libc_kernel.a(rtt_syscall.o)
 .text.syscall_msgsnd
                0x00000000c0028774        0x8 /opt/arm-linux-musleabi/bin/../lib/gcc/arm-linux-musleabi/7.3.0/../../../../arm-linux-musleabi/lib/libc_kernel.a(rtt_syscall.o)
 .text.syscall_msgrcv
                0x00000000c002877c        0x8 /opt/arm-linux-musleabi/bin/../lib/gcc/arm-linux-musleabi/7.3.0/../../../../arm-linux-musleabi/lib/libc_kernel.a(rtt_syscall.o)
 .text.syscall_msgget
                0x00000000c0028784        0x8 /opt/arm-linux-musleabi/bin/../lib/gcc/arm-linux-musleabi/7.3.0/../../../../arm-linux-musleabi/lib/libc_kernel.a(rtt_syscall.o)
 .text.syscall_msgctl
                0x00000000c002878c        0x8 /opt/arm-linux-musleabi/bin/../lib/gcc/arm-linux-musleabi/7.3.0/../../../../arm-linux-musleabi/lib/libc_kernel.a(rtt_syscall.o)
 .text.syscall_shmat
                0x00000000c0028794        0x8 /opt/arm-linux-musleabi/bin/../lib/gcc/arm-linux-musleabi/7.3.0/../../../../arm-linux-musleabi/lib/libc_kernel.a(rtt_syscall.o)
 .text.syscall_shmdt
                0x00000000c002879c        0x8 /opt/arm-linux-musleabi/bin/../lib/gcc/arm-linux-musleabi/7.3.0/../../../../arm-linux-musleabi/lib/libc_kernel.a(rtt_syscall.o)
 .text.syscall_sysinfo
                0x00000000c00287a4        0x8 /opt/arm-linux-musleabi/bin/../lib/gcc/arm-linux-musleabi/7.3.0/../../../../arm-linux-musleabi/lib/libc_kernel.a(rtt_syscall.o)
 .text.syscall_fsync
                0x00000000c00287ac        0x8 /opt/arm-linux-musleabi/bin/../lib/gcc/arm-linux-musleabi/7.3.0/../../../../arm-linux-musleabi/lib/libc_kernel.a(rtt_syscall.o)
 .text.syscall_sigreturn
                0x00000000c00287b4        0x8 /opt/arm-linux-musleabi/bin/../lib/gcc/arm-linux-musleabi/7.3.0/../../../../arm-linux-musleabi/lib/libc_kernel.a(rtt_syscall.o)
 .text.syscall_clone
                0x00000000c00287bc        0x8 /opt/arm-linux-musleabi/bin/../lib/gcc/arm-linux-musleabi/7.3.0/../../../../arm-linux-musleabi/lib/libc_kernel.a(rtt_syscall.o)
 .text.syscall_setdomainname
                0x00000000c00287c4        0x8 /opt/arm-linux-musleabi/bin/../lib/gcc/arm-linux-musleabi/7.3.0/../../../../arm-linux-musleabi/lib/libc_kernel.a(rtt_syscall.o)
 .text.syscall_uname
                0x00000000c00287cc        0x8 /opt/arm-linux-musleabi/bin/../lib/gcc/arm-linux-musleabi/7.3.0/../../../../arm-linux-musleabi/lib/libc_kernel.a(rtt_syscall.o)
 .text.syscall_adjtimex
                0x00000000c00287d4        0x8 /opt/arm-linux-musleabi/bin/../lib/gcc/arm-linux-musleabi/7.3.0/../../../../arm-linux-musleabi/lib/libc_kernel.a(rtt_syscall.o)
 .text.syscall_mprotect
                0x00000000c00287dc        0x8 /opt/arm-linux-musleabi/bin/../lib/gcc/arm-linux-musleabi/7.3.0/../../../../arm-linux-musleabi/lib/libc_kernel.a(rtt_syscall.o)
 .text.syscall_sigprocmask
                0x00000000c00287e4        0x8 /opt/arm-linux-musleabi/bin/../lib/gcc/arm-linux-musleabi/7.3.0/../../../../arm-linux-musleabi/lib/libc_kernel.a(rtt_syscall.o)
 .text.syscall_init_module
                0x00000000c00287ec        0x8 /opt/arm-linux-musleabi/bin/../lib/gcc/arm-linux-musleabi/7.3.0/../../../../arm-linux-musleabi/lib/libc_kernel.a(rtt_syscall.o)
 .text.syscall_delete_module
                0x00000000c00287f4        0x8 /opt/arm-linux-musleabi/bin/../lib/gcc/arm-linux-musleabi/7.3.0/../../../../arm-linux-musleabi/lib/libc_kernel.a(rtt_syscall.o)
 .text.syscall_quotactl
                0x00000000c00287fc        0x8 /opt/arm-linux-musleabi/bin/../lib/gcc/arm-linux-musleabi/7.3.0/../../../../arm-linux-musleabi/lib/libc_kernel.a(rtt_syscall.o)
 .text.syscall_getpgid
                0x00000000c0028804        0x8 /opt/arm-linux-musleabi/bin/../lib/gcc/arm-linux-musleabi/7.3.0/../../../../arm-linux-musleabi/lib/libc_kernel.a(rtt_syscall.o)
 .text.syscall_fchdir
                0x00000000c002880c        0x8 /opt/arm-linux-musleabi/bin/../lib/gcc/arm-linux-musleabi/7.3.0/../../../../arm-linux-musleabi/lib/libc_kernel.a(rtt_syscall.o)
 .text.syscall_bdflush
                0x00000000c0028814        0x8 /opt/arm-linux-musleabi/bin/../lib/gcc/arm-linux-musleabi/7.3.0/../../../../arm-linux-musleabi/lib/libc_kernel.a(rtt_syscall.o)
 .text.syscall_sysfs
                0x00000000c002881c        0x8 /opt/arm-linux-musleabi/bin/../lib/gcc/arm-linux-musleabi/7.3.0/../../../../arm-linux-musleabi/lib/libc_kernel.a(rtt_syscall.o)
 .text.syscall_personality
                0x00000000c0028824        0x8 /opt/arm-linux-musleabi/bin/../lib/gcc/arm-linux-musleabi/7.3.0/../../../../arm-linux-musleabi/lib/libc_kernel.a(rtt_syscall.o)
 .text.syscall_setfsuid
                0x00000000c002882c        0x8 /opt/arm-linux-musleabi/bin/../lib/gcc/arm-linux-musleabi/7.3.0/../../../../arm-linux-musleabi/lib/libc_kernel.a(rtt_syscall.o)
 .text.syscall_setfsgid
                0x00000000c0028834        0x8 /opt/arm-linux-musleabi/bin/../lib/gcc/arm-linux-musleabi/7.3.0/../../../../arm-linux-musleabi/lib/libc_kernel.a(rtt_syscall.o)
 .text.syscall_getdents
                0x00000000c002883c        0x8 /opt/arm-linux-musleabi/bin/../lib/gcc/arm-linux-musleabi/7.3.0/../../../../arm-linux-musleabi/lib/libc_kernel.a(rtt_syscall.o)
 .text.syscall__newselect
                0x00000000c0028844        0x8 /opt/arm-linux-musleabi/bin/../lib/gcc/arm-linux-musleabi/7.3.0/../../../../arm-linux-musleabi/lib/libc_kernel.a(rtt_syscall.o)
 .text.syscall_flock
                0x00000000c002884c        0x8 /opt/arm-linux-musleabi/bin/../lib/gcc/arm-linux-musleabi/7.3.0/../../../../arm-linux-musleabi/lib/libc_kernel.a(rtt_syscall.o)
 .text.syscall_msync
                0x00000000c0028854        0x8 /opt/arm-linux-musleabi/bin/../lib/gcc/arm-linux-musleabi/7.3.0/../../../../arm-linux-musleabi/lib/libc_kernel.a(rtt_syscall.o)
 .text.syscall_getsid
                0x00000000c002885c        0x8 /opt/arm-linux-musleabi/bin/../lib/gcc/arm-linux-musleabi/7.3.0/../../../../arm-linux-musleabi/lib/libc_kernel.a(rtt_syscall.o)
 .text.syscall_umask
                0x00000000c0028864        0x8 /opt/arm-linux-musleabi/bin/../lib/gcc/arm-linux-musleabi/7.3.0/../../../../arm-linux-musleabi/lib/libc_kernel.a(rtt_syscall.o)
 .text.syscall_chroot
                0x00000000c002886c        0x8 /opt/arm-linux-musleabi/bin/../lib/gcc/arm-linux-musleabi/7.3.0/../../../../arm-linux-musleabi/lib/libc_kernel.a(rtt_syscall.o)
 .text.syscall_ustat
                0x00000000c0028874        0x8 /opt/arm-linux-musleabi/bin/../lib/gcc/arm-linux-musleabi/7.3.0/../../../../arm-linux-musleabi/lib/libc_kernel.a(rtt_syscall.o)
 .text.syscall_dup2
                0x00000000c002887c        0x8 /opt/arm-linux-musleabi/bin/../lib/gcc/arm-linux-musleabi/7.3.0/../../../../arm-linux-musleabi/lib/libc_kernel.a(rtt_syscall.o)
 .text.syscall_getppid
                0x00000000c0028884        0x8 /opt/arm-linux-musleabi/bin/../lib/gcc/arm-linux-musleabi/7.3.0/../../../../arm-linux-musleabi/lib/libc_kernel.a(rtt_syscall.o)
 .text.syscall_getpgrp
                0x00000000c002888c        0x8 /opt/arm-linux-musleabi/bin/../lib/gcc/arm-linux-musleabi/7.3.0/../../../../arm-linux-musleabi/lib/libc_kernel.a(rtt_syscall.o)
 .text.syscall_setsid
                0x00000000c0028894        0x8 /opt/arm-linux-musleabi/bin/../lib/gcc/arm-linux-musleabi/7.3.0/../../../../arm-linux-musleabi/lib/libc_kernel.a(rtt_syscall.o)
 .text.syscall_sigaction
                0x00000000c002889c        0x8 /opt/arm-linux-musleabi/bin/../lib/gcc/arm-linux-musleabi/7.3.0/../../../../arm-linux-musleabi/lib/libc_kernel.a(rtt_syscall.o)
 .text.syscall_setreuid
                0x00000000c00288a4        0x8 /opt/arm-linux-musleabi/bin/../lib/gcc/arm-linux-musleabi/7.3.0/../../../../arm-linux-musleabi/lib/libc_kernel.a(rtt_syscall.o)
 .text.syscall_setregid
                0x00000000c00288ac        0x8 /opt/arm-linux-musleabi/bin/../lib/gcc/arm-linux-musleabi/7.3.0/../../../../arm-linux-musleabi/lib/libc_kernel.a(rtt_syscall.o)
 .text.syscall_sigsuspend
                0x00000000c00288b4        0x8 /opt/arm-linux-musleabi/bin/../lib/gcc/arm-linux-musleabi/7.3.0/../../../../arm-linux-musleabi/lib/libc_kernel.a(rtt_syscall.o)
 .text.syscall_sigpending
                0x00000000c00288bc        0x8 /opt/arm-linux-musleabi/bin/../lib/gcc/arm-linux-musleabi/7.3.0/../../../../arm-linux-musleabi/lib/libc_kernel.a(rtt_syscall.o)
 .text.syscall_sethostname
                0x00000000c00288c4        0x8 /opt/arm-linux-musleabi/bin/../lib/gcc/arm-linux-musleabi/7.3.0/../../../../arm-linux-musleabi/lib/libc_kernel.a(rtt_syscall.o)
 .text.syscall_setrlimit
                0x00000000c00288cc        0x8 /opt/arm-linux-musleabi/bin/../lib/gcc/arm-linux-musleabi/7.3.0/../../../../arm-linux-musleabi/lib/libc_kernel.a(rtt_syscall.o)
 .text.syscall_getrusage
                0x00000000c00288d4        0x8 /opt/arm-linux-musleabi/bin/../lib/gcc/arm-linux-musleabi/7.3.0/../../../../arm-linux-musleabi/lib/libc_kernel.a(rtt_syscall.o)
 .text.syscall_gettimeofday
                0x00000000c00288dc        0x8 /opt/arm-linux-musleabi/bin/../lib/gcc/arm-linux-musleabi/7.3.0/../../../../arm-linux-musleabi/lib/libc_kernel.a(rtt_syscall.o)
 .text.syscall_settimeofday
                0x00000000c00288e4        0x8 /opt/arm-linux-musleabi/bin/../lib/gcc/arm-linux-musleabi/7.3.0/../../../../arm-linux-musleabi/lib/libc_kernel.a(rtt_syscall.o)
 .text.syscall_getgroups
                0x00000000c00288ec        0x8 /opt/arm-linux-musleabi/bin/../lib/gcc/arm-linux-musleabi/7.3.0/../../../../arm-linux-musleabi/lib/libc_kernel.a(rtt_syscall.o)
 .text.syscall_setgroups
                0x00000000c00288f4        0x8 /opt/arm-linux-musleabi/bin/../lib/gcc/arm-linux-musleabi/7.3.0/../../../../arm-linux-musleabi/lib/libc_kernel.a(rtt_syscall.o)
 .text.syscall_symlink
                0x00000000c00288fc        0x8 /opt/arm-linux-musleabi/bin/../lib/gcc/arm-linux-musleabi/7.3.0/../../../../arm-linux-musleabi/lib/libc_kernel.a(rtt_syscall.o)
 .text.syscall_readlink
                0x00000000c0028904        0x8 /opt/arm-linux-musleabi/bin/../lib/gcc/arm-linux-musleabi/7.3.0/../../../../arm-linux-musleabi/lib/libc_kernel.a(rtt_syscall.o)
 .text.syscall_uselib
                0x00000000c002890c        0x8 /opt/arm-linux-musleabi/bin/../lib/gcc/arm-linux-musleabi/7.3.0/../../../../arm-linux-musleabi/lib/libc_kernel.a(rtt_syscall.o)
 .text.syscall_swapon
                0x00000000c0028914        0x8 /opt/arm-linux-musleabi/bin/../lib/gcc/arm-linux-musleabi/7.3.0/../../../../arm-linux-musleabi/lib/libc_kernel.a(rtt_syscall.o)
 .text.syscall_reboot
                0x00000000c002891c        0x8 /opt/arm-linux-musleabi/bin/../lib/gcc/arm-linux-musleabi/7.3.0/../../../../arm-linux-musleabi/lib/libc_kernel.a(rtt_syscall.o)
 .text.syscall_munmap
                0x00000000c0028924        0x8 /opt/arm-linux-musleabi/bin/../lib/gcc/arm-linux-musleabi/7.3.0/../../../../arm-linux-musleabi/lib/libc_kernel.a(rtt_syscall.o)
 .text.syscall_truncate
                0x00000000c002892c        0x8 /opt/arm-linux-musleabi/bin/../lib/gcc/arm-linux-musleabi/7.3.0/../../../../arm-linux-musleabi/lib/libc_kernel.a(rtt_syscall.o)
 .text.syscall_ftruncate
                0x00000000c0028934        0x8 /opt/arm-linux-musleabi/bin/../lib/gcc/arm-linux-musleabi/7.3.0/../../../../arm-linux-musleabi/lib/libc_kernel.a(rtt_syscall.o)
 .text.syscall_fchmod
                0x00000000c002893c        0x8 /opt/arm-linux-musleabi/bin/../lib/gcc/arm-linux-musleabi/7.3.0/../../../../arm-linux-musleabi/lib/libc_kernel.a(rtt_syscall.o)
 .text.syscall_fchown
                0x00000000c0028944        0x8 /opt/arm-linux-musleabi/bin/../lib/gcc/arm-linux-musleabi/7.3.0/../../../../arm-linux-musleabi/lib/libc_kernel.a(rtt_syscall.o)
 .text.syscall_getpriority
                0x00000000c002894c        0x8 /opt/arm-linux-musleabi/bin/../lib/gcc/arm-linux-musleabi/7.3.0/../../../../arm-linux-musleabi/lib/libc_kernel.a(rtt_syscall.o)
 .text.syscall_setpriority
                0x00000000c0028954        0x8 /opt/arm-linux-musleabi/bin/../lib/gcc/arm-linux-musleabi/7.3.0/../../../../arm-linux-musleabi/lib/libc_kernel.a(rtt_syscall.o)
 .text.syscall_syslog
                0x00000000c002895c        0x8 /opt/arm-linux-musleabi/bin/../lib/gcc/arm-linux-musleabi/7.3.0/../../../../arm-linux-musleabi/lib/libc_kernel.a(rtt_syscall.o)
 .text.syscall_open_by_handle_at
                0x00000000c0028964        0x8 /opt/arm-linux-musleabi/bin/../lib/gcc/arm-linux-musleabi/7.3.0/../../../../arm-linux-musleabi/lib/libc_kernel.a(rtt_syscall.o)
 .text.syscall_clock_adjtime
                0x00000000c002896c        0x8 /opt/arm-linux-musleabi/bin/../lib/gcc/arm-linux-musleabi/7.3.0/../../../../arm-linux-musleabi/lib/libc_kernel.a(rtt_syscall.o)
 .text.syscall_syncfs
                0x00000000c0028974        0x8 /opt/arm-linux-musleabi/bin/../lib/gcc/arm-linux-musleabi/7.3.0/../../../../arm-linux-musleabi/lib/libc_kernel.a(rtt_syscall.o)
 .text.syscall_sendmmsg
                0x00000000c002897c        0x8 /opt/arm-linux-musleabi/bin/../lib/gcc/arm-linux-musleabi/7.3.0/../../../../arm-linux-musleabi/lib/libc_kernel.a(rtt_syscall.o)
 .text.syscall_setns
                0x00000000c0028984        0x8 /opt/arm-linux-musleabi/bin/../lib/gcc/arm-linux-musleabi/7.3.0/../../../../arm-linux-musleabi/lib/libc_kernel.a(rtt_syscall.o)
 .text.syscall_process_vm_readv
                0x00000000c002898c        0x8 /opt/arm-linux-musleabi/bin/../lib/gcc/arm-linux-musleabi/7.3.0/../../../../arm-linux-musleabi/lib/libc_kernel.a(rtt_syscall.o)
 .text.syscall_process_vm_writev
                0x00000000c0028994        0x8 /opt/arm-linux-musleabi/bin/../lib/gcc/arm-linux-musleabi/7.3.0/../../../../arm-linux-musleabi/lib/libc_kernel.a(rtt_syscall.o)
 .text.syscall_kcmp
                0x00000000c002899c        0x8 /opt/arm-linux-musleabi/bin/../lib/gcc/arm-linux-musleabi/7.3.0/../../../../arm-linux-musleabi/lib/libc_kernel.a(rtt_syscall.o)
 .text.syscall_finit_module
                0x00000000c00289a4        0x8 /opt/arm-linux-musleabi/bin/../lib/gcc/arm-linux-musleabi/7.3.0/../../../../arm-linux-musleabi/lib/libc_kernel.a(rtt_syscall.o)
 .text.syscall_sched_setattr
                0x00000000c00289ac        0x8 /opt/arm-linux-musleabi/bin/../lib/gcc/arm-linux-musleabi/7.3.0/../../../../arm-linux-musleabi/lib/libc_kernel.a(rtt_syscall.o)
 .text.syscall_sched_getattr
                0x00000000c00289b4        0x8 /opt/arm-linux-musleabi/bin/../lib/gcc/arm-linux-musleabi/7.3.0/../../../../arm-linux-musleabi/lib/libc_kernel.a(rtt_syscall.o)
 .text.syscall_renameat2
                0x00000000c00289bc        0x8 /opt/arm-linux-musleabi/bin/../lib/gcc/arm-linux-musleabi/7.3.0/../../../../arm-linux-musleabi/lib/libc_kernel.a(rtt_syscall.o)
 .text.syscall_seccomp
                0x00000000c00289c4        0x8 /opt/arm-linux-musleabi/bin/../lib/gcc/arm-linux-musleabi/7.3.0/../../../../arm-linux-musleabi/lib/libc_kernel.a(rtt_syscall.o)
 .text.syscall_getrandom
                0x00000000c00289cc        0x8 /opt/arm-linux-musleabi/bin/../lib/gcc/arm-linux-musleabi/7.3.0/../../../../arm-linux-musleabi/lib/libc_kernel.a(rtt_syscall.o)
 .text.syscall_memfd_create
                0x00000000c00289d4        0x8 /opt/arm-linux-musleabi/bin/../lib/gcc/arm-linux-musleabi/7.3.0/../../../../arm-linux-musleabi/lib/libc_kernel.a(rtt_syscall.o)
 .text.syscall_bpf
                0x00000000c00289dc        0x8 /opt/arm-linux-musleabi/bin/../lib/gcc/arm-linux-musleabi/7.3.0/../../../../arm-linux-musleabi/lib/libc_kernel.a(rtt_syscall.o)
 .text.syscall_execveat
                0x00000000c00289e4        0x8 /opt/arm-linux-musleabi/bin/../lib/gcc/arm-linux-musleabi/7.3.0/../../../../arm-linux-musleabi/lib/libc_kernel.a(rtt_syscall.o)
 .text.syscall_userfaultfd
                0x00000000c00289ec        0x8 /opt/arm-linux-musleabi/bin/../lib/gcc/arm-linux-musleabi/7.3.0/../../../../arm-linux-musleabi/lib/libc_kernel.a(rtt_syscall.o)
 .text.syscall_membarrier
                0x00000000c00289f4        0x8 /opt/arm-linux-musleabi/bin/../lib/gcc/arm-linux-musleabi/7.3.0/../../../../arm-linux-musleabi/lib/libc_kernel.a(rtt_syscall.o)
 .text.syscall_mlock2
                0x00000000c00289fc        0x8 /opt/arm-linux-musleabi/bin/../lib/gcc/arm-linux-musleabi/7.3.0/../../../../arm-linux-musleabi/lib/libc_kernel.a(rtt_syscall.o)
 .text.syscall_copy_file_range
                0x00000000c0028a04        0x8 /opt/arm-linux-musleabi/bin/../lib/gcc/arm-linux-musleabi/7.3.0/../../../../arm-linux-musleabi/lib/libc_kernel.a(rtt_syscall.o)
 .text.syscall_preadv2
                0x00000000c0028a0c        0x8 /opt/arm-linux-musleabi/bin/../lib/gcc/arm-linux-musleabi/7.3.0/../../../../arm-linux-musleabi/lib/libc_kernel.a(rtt_syscall.o)
 .text.syscall_pwritev2
                0x00000000c0028a14        0x8 /opt/arm-linux-musleabi/bin/../lib/gcc/arm-linux-musleabi/7.3.0/../../../../arm-linux-musleabi/lib/libc_kernel.a(rtt_syscall.o)
 .text.syscall_pkey_mprotect
                0x00000000c0028a1c        0x8 /opt/arm-linux-musleabi/bin/../lib/gcc/arm-linux-musleabi/7.3.0/../../../../arm-linux-musleabi/lib/libc_kernel.a(rtt_syscall.o)
 .text.syscall_pkey_alloc
                0x00000000c0028a24        0x8 /opt/arm-linux-musleabi/bin/../lib/gcc/arm-linux-musleabi/7.3.0/../../../../arm-linux-musleabi/lib/libc_kernel.a(rtt_syscall.o)
 .text.syscall_pkey_free
                0x00000000c0028a2c        0x8 /opt/arm-linux-musleabi/bin/../lib/gcc/arm-linux-musleabi/7.3.0/../../../../arm-linux-musleabi/lib/libc_kernel.a(rtt_syscall.o)
 .text.syscall_statx
                0x00000000c0028a34        0x8 /opt/arm-linux-musleabi/bin/../lib/gcc/arm-linux-musleabi/7.3.0/../../../../arm-linux-musleabi/lib/libc_kernel.a(rtt_syscall.o)
 .text.syscall_rseq
                0x00000000c0028a3c        0x8 /opt/arm-linux-musleabi/bin/../lib/gcc/arm-linux-musleabi/7.3.0/../../../../arm-linux-musleabi/lib/libc_kernel.a(rtt_syscall.o)
 .text.syscall_io_pgetevents
                0x00000000c0028a44        0x8 /opt/arm-linux-musleabi/bin/../lib/gcc/arm-linux-musleabi/7.3.0/../../../../arm-linux-musleabi/lib/libc_kernel.a(rtt_syscall.o)
 .text.syscall_fork
                0x00000000c0028a4c        0x8 /opt/arm-linux-musleabi/bin/../lib/gcc/arm-linux-musleabi/7.3.0/../../../../arm-linux-musleabi/lib/libc_kernel.a(rtt_syscall.o)
 .text.syscall_creat
                0x00000000c0028a54        0x8 /opt/arm-linux-musleabi/bin/../lib/gcc/arm-linux-musleabi/7.3.0/../../../../arm-linux-musleabi/lib/libc_kernel.a(rtt_syscall.o)
 .text.syscall_link
                0x00000000c0028a5c        0x8 /opt/arm-linux-musleabi/bin/../lib/gcc/arm-linux-musleabi/7.3.0/../../../../arm-linux-musleabi/lib/libc_kernel.a(rtt_syscall.o)
 .text.syscall_unlink
                0x00000000c0028a64        0x8 /opt/arm-linux-musleabi/bin/../lib/gcc/arm-linux-musleabi/7.3.0/../../../../arm-linux-musleabi/lib/libc_kernel.a(rtt_syscall.o)
 .text.syscall_execve
                0x00000000c0028a6c        0x8 /opt/arm-linux-musleabi/bin/../lib/gcc/arm-linux-musleabi/7.3.0/../../../../arm-linux-musleabi/lib/libc_kernel.a(rtt_syscall.o)
 .text.syscall_chdir
                0x00000000c0028a74        0x8 /opt/arm-linux-musleabi/bin/../lib/gcc/arm-linux-musleabi/7.3.0/../../../../arm-linux-musleabi/lib/libc_kernel.a(rtt_syscall.o)
 .text.syscall_mknod
                0x00000000c0028a7c        0x8 /opt/arm-linux-musleabi/bin/../lib/gcc/arm-linux-musleabi/7.3.0/../../../../arm-linux-musleabi/lib/libc_kernel.a(rtt_syscall.o)
 .text.syscall_chmod
                0x00000000c0028a84        0x8 /opt/arm-linux-musleabi/bin/../lib/gcc/arm-linux-musleabi/7.3.0/../../../../arm-linux-musleabi/lib/libc_kernel.a(rtt_syscall.o)
 .text.syscall_lchown
                0x00000000c0028a8c        0x8 /opt/arm-linux-musleabi/bin/../lib/gcc/arm-linux-musleabi/7.3.0/../../../../arm-linux-musleabi/lib/libc_kernel.a(rtt_syscall.o)
 .text.syscall_getpid
                0x00000000c0028a94        0x8 /opt/arm-linux-musleabi/bin/../lib/gcc/arm-linux-musleabi/7.3.0/../../../../arm-linux-musleabi/lib/libc_kernel.a(rtt_syscall.o)
 .text.syscall_mount
                0x00000000c0028a9c        0x8 /opt/arm-linux-musleabi/bin/../lib/gcc/arm-linux-musleabi/7.3.0/../../../../arm-linux-musleabi/lib/libc_kernel.a(rtt_syscall.o)
 .text.syscall_setuid
                0x00000000c0028aa4        0x8 /opt/arm-linux-musleabi/bin/../lib/gcc/arm-linux-musleabi/7.3.0/../../../../arm-linux-musleabi/lib/libc_kernel.a(rtt_syscall.o)
 .text.syscall_getuid
                0x00000000c0028aac        0x8 /opt/arm-linux-musleabi/bin/../lib/gcc/arm-linux-musleabi/7.3.0/../../../../arm-linux-musleabi/lib/libc_kernel.a(rtt_syscall.o)
 .text.syscall_ptrace
                0x00000000c0028ab4        0x8 /opt/arm-linux-musleabi/bin/../lib/gcc/arm-linux-musleabi/7.3.0/../../../../arm-linux-musleabi/lib/libc_kernel.a(rtt_syscall.o)
 .text.syscall_pause
                0x00000000c0028abc        0x8 /opt/arm-linux-musleabi/bin/../lib/gcc/arm-linux-musleabi/7.3.0/../../../../arm-linux-musleabi/lib/libc_kernel.a(rtt_syscall.o)
 .text.syscall_access
                0x00000000c0028ac4        0x8 /opt/arm-linux-musleabi/bin/../lib/gcc/arm-linux-musleabi/7.3.0/../../../../arm-linux-musleabi/lib/libc_kernel.a(rtt_syscall.o)
 .text.syscall_nice
                0x00000000c0028acc        0x8 /opt/arm-linux-musleabi/bin/../lib/gcc/arm-linux-musleabi/7.3.0/../../../../arm-linux-musleabi/lib/libc_kernel.a(rtt_syscall.o)
 .text.syscall_sync
                0x00000000c0028ad4        0x8 /opt/arm-linux-musleabi/bin/../lib/gcc/arm-linux-musleabi/7.3.0/../../../../arm-linux-musleabi/lib/libc_kernel.a(rtt_syscall.o)
 .text.syscall_kill
                0x00000000c0028adc        0x8 /opt/arm-linux-musleabi/bin/../lib/gcc/arm-linux-musleabi/7.3.0/../../../../arm-linux-musleabi/lib/libc_kernel.a(rtt_syscall.o)
 .text.syscall_rename
                0x00000000c0028ae4        0x8 /opt/arm-linux-musleabi/bin/../lib/gcc/arm-linux-musleabi/7.3.0/../../../../arm-linux-musleabi/lib/libc_kernel.a(rtt_syscall.o)
 .text.syscall_mkdir
                0x00000000c0028aec        0x8 /opt/arm-linux-musleabi/bin/../lib/gcc/arm-linux-musleabi/7.3.0/../../../../arm-linux-musleabi/lib/libc_kernel.a(rtt_syscall.o)
 .text.syscall_rmdir
                0x00000000c0028af4        0x8 /opt/arm-linux-musleabi/bin/../lib/gcc/arm-linux-musleabi/7.3.0/../../../../arm-linux-musleabi/lib/libc_kernel.a(rtt_syscall.o)
 .text.syscall_dup
                0x00000000c0028afc        0x8 /opt/arm-linux-musleabi/bin/../lib/gcc/arm-linux-musleabi/7.3.0/../../../../arm-linux-musleabi/lib/libc_kernel.a(rtt_syscall.o)
 .text.syscall_pipe
                0x00000000c0028b04        0x8 /opt/arm-linux-musleabi/bin/../lib/gcc/arm-linux-musleabi/7.3.0/../../../../arm-linux-musleabi/lib/libc_kernel.a(rtt_syscall.o)
 .text.syscall_times
                0x00000000c0028b0c        0x8 /opt/arm-linux-musleabi/bin/../lib/gcc/arm-linux-musleabi/7.3.0/../../../../arm-linux-musleabi/lib/libc_kernel.a(rtt_syscall.o)
 .text.syscall_setgid
                0x00000000c0028b14        0x8 /opt/arm-linux-musleabi/bin/../lib/gcc/arm-linux-musleabi/7.3.0/../../../../arm-linux-musleabi/lib/libc_kernel.a(rtt_syscall.o)
 .text.syscall_getgid
                0x00000000c0028b1c        0x8 /opt/arm-linux-musleabi/bin/../lib/gcc/arm-linux-musleabi/7.3.0/../../../../arm-linux-musleabi/lib/libc_kernel.a(rtt_syscall.o)
 .text.syscall_geteuid
                0x00000000c0028b24        0x8 /opt/arm-linux-musleabi/bin/../lib/gcc/arm-linux-musleabi/7.3.0/../../../../arm-linux-musleabi/lib/libc_kernel.a(rtt_syscall.o)
 .text.syscall_getegid
                0x00000000c0028b2c        0x8 /opt/arm-linux-musleabi/bin/../lib/gcc/arm-linux-musleabi/7.3.0/../../../../arm-linux-musleabi/lib/libc_kernel.a(rtt_syscall.o)
 .text.syscall_acct
                0x00000000c0028b34        0x8 /opt/arm-linux-musleabi/bin/../lib/gcc/arm-linux-musleabi/7.3.0/../../../../arm-linux-musleabi/lib/libc_kernel.a(rtt_syscall.o)
 .text.syscall_umount2
                0x00000000c0028b3c        0x8 /opt/arm-linux-musleabi/bin/../lib/gcc/arm-linux-musleabi/7.3.0/../../../../arm-linux-musleabi/lib/libc_kernel.a(rtt_syscall.o)
 .text.syscall_fcntl
                0x00000000c0028b44        0x8 /opt/arm-linux-musleabi/bin/../lib/gcc/arm-linux-musleabi/7.3.0/../../../../arm-linux-musleabi/lib/libc_kernel.a(rtt_syscall.o)
 .text.syscall_setpgid
                0x00000000c0028b4c        0x8 /opt/arm-linux-musleabi/bin/../lib/gcc/arm-linux-musleabi/7.3.0/../../../../arm-linux-musleabi/lib/libc_kernel.a(rtt_syscall.o)
 .text.syscall_tgkill
                0x00000000c0028b54        0x8 /opt/arm-linux-musleabi/bin/../lib/gcc/arm-linux-musleabi/7.3.0/../../../../arm-linux-musleabi/lib/libc_kernel.a(rtt_syscall.o)
 .text.syscall_lchown32
                0x00000000c0028b5c        0x8 /opt/arm-linux-musleabi/bin/../lib/gcc/arm-linux-musleabi/7.3.0/../../../../arm-linux-musleabi/lib/libc_kernel.a(rtt_syscall.o)
 .text.syscall_getuid32
                0x00000000c0028b64        0x8 /opt/arm-linux-musleabi/bin/../lib/gcc/arm-linux-musleabi/7.3.0/../../../../arm-linux-musleabi/lib/libc_kernel.a(rtt_syscall.o)
 .text.syscall_getgid32
                0x00000000c0028b6c        0x8 /opt/arm-linux-musleabi/bin/../lib/gcc/arm-linux-musleabi/7.3.0/../../../../arm-linux-musleabi/lib/libc_kernel.a(rtt_syscall.o)
 .text.syscall_getsockname
                0x00000000c0028b74        0x8 /opt/arm-linux-musleabi/bin/../lib/gcc/arm-linux-musleabi/7.3.0/../../../../arm-linux-musleabi/lib/libc_kernel.a(rtt_syscall.o)
 .text.syscall_clock_nanosleep
                0x00000000c0028b7c        0x8 /opt/arm-linux-musleabi/bin/../lib/gcc/arm-linux-musleabi/7.3.0/../../../../arm-linux-musleabi/lib/libc_kernel.a(rtt_syscall.o)
 .text.syscall_truncate64
                0x00000000c0028b84        0x8 /opt/arm-linux-musleabi/bin/../lib/gcc/arm-linux-musleabi/7.3.0/../../../../arm-linux-musleabi/lib/libc_kernel.a(rtt_syscall.o)
 .text.syscall_ftruncate64
                0x00000000c0028b8c        0x8 /opt/arm-linux-musleabi/bin/../lib/gcc/arm-linux-musleabi/7.3.0/../../../../arm-linux-musleabi/lib/libc_kernel.a(rtt_syscall.o)
 .text.syscall_getcwd
                0x00000000c0028b94        0x8 /opt/arm-linux-musleabi/bin/../lib/gcc/arm-linux-musleabi/7.3.0/../../../../arm-linux-musleabi/lib/libc_kernel.a(rtt_syscall.o)
 .text.syscall_capget
                0x00000000c0028b9c        0x8 /opt/arm-linux-musleabi/bin/../lib/gcc/arm-linux-musleabi/7.3.0/../../../../arm-linux-musleabi/lib/libc_kernel.a(rtt_syscall.o)
 .text.syscall_capset
                0x00000000c0028ba4        0x8 /opt/arm-linux-musleabi/bin/../lib/gcc/arm-linux-musleabi/7.3.0/../../../../arm-linux-musleabi/lib/libc_kernel.a(rtt_syscall.o)
 .text.syscall_sigaltstack
                0x00000000c0028bac        0x8 /opt/arm-linux-musleabi/bin/../lib/gcc/arm-linux-musleabi/7.3.0/../../../../arm-linux-musleabi/lib/libc_kernel.a(rtt_syscall.o)
 .text.syscall_sendfile
                0x00000000c0028bb4        0x8 /opt/arm-linux-musleabi/bin/../lib/gcc/arm-linux-musleabi/7.3.0/../../../../arm-linux-musleabi/lib/libc_kernel.a(rtt_syscall.o)
 .text.syscall_vfork
                0x00000000c0028bbc        0x8 /opt/arm-linux-musleabi/bin/../lib/gcc/arm-linux-musleabi/7.3.0/../../../../arm-linux-musleabi/lib/libc_kernel.a(rtt_syscall.o)
 .text.syscall_ugetrlimit
                0x00000000c0028bc4        0x8 /opt/arm-linux-musleabi/bin/../lib/gcc/arm-linux-musleabi/7.3.0/../../../../arm-linux-musleabi/lib/libc_kernel.a(rtt_syscall.o)
 .text.syscall_mmap2
                0x00000000c0028bcc        0x8 /opt/arm-linux-musleabi/bin/../lib/gcc/arm-linux-musleabi/7.3.0/../../../../arm-linux-musleabi/lib/libc_kernel.a(rtt_syscall.o)
 .text.syscall_geteuid32
                0x00000000c0028bd4        0x8 /opt/arm-linux-musleabi/bin/../lib/gcc/arm-linux-musleabi/7.3.0/../../../../arm-linux-musleabi/lib/libc_kernel.a(rtt_syscall.o)
 .text.syscall_getegid32
                0x00000000c0028bdc        0x8 /opt/arm-linux-musleabi/bin/../lib/gcc/arm-linux-musleabi/7.3.0/../../../../arm-linux-musleabi/lib/libc_kernel.a(rtt_syscall.o)
 .text.syscall_setreuid32
                0x00000000c0028be4        0x8 /opt/arm-linux-musleabi/bin/../lib/gcc/arm-linux-musleabi/7.3.0/../../../../arm-linux-musleabi/lib/libc_kernel.a(rtt_syscall.o)
 .text.syscall_setregid32
                0x00000000c0028bec        0x8 /opt/arm-linux-musleabi/bin/../lib/gcc/arm-linux-musleabi/7.3.0/../../../../arm-linux-musleabi/lib/libc_kernel.a(rtt_syscall.o)
 .text.syscall_getgroups32
                0x00000000c0028bf4        0x8 /opt/arm-linux-musleabi/bin/../lib/gcc/arm-linux-musleabi/7.3.0/../../../../arm-linux-musleabi/lib/libc_kernel.a(rtt_syscall.o)
 .text.syscall_setgroups32
                0x00000000c0028bfc        0x8 /opt/arm-linux-musleabi/bin/../lib/gcc/arm-linux-musleabi/7.3.0/../../../../arm-linux-musleabi/lib/libc_kernel.a(rtt_syscall.o)
 .text.syscall_fchown32
                0x00000000c0028c04        0x8 /opt/arm-linux-musleabi/bin/../lib/gcc/arm-linux-musleabi/7.3.0/../../../../arm-linux-musleabi/lib/libc_kernel.a(rtt_syscall.o)
 .text.syscall_setresuid32
                0x00000000c0028c0c        0x8 /opt/arm-linux-musleabi/bin/../lib/gcc/arm-linux-musleabi/7.3.0/../../../../arm-linux-musleabi/lib/libc_kernel.a(rtt_syscall.o)
 .text.syscall_getresuid32
                0x00000000c0028c14        0x8 /opt/arm-linux-musleabi/bin/../lib/gcc/arm-linux-musleabi/7.3.0/../../../../arm-linux-musleabi/lib/libc_kernel.a(rtt_syscall.o)
 .text.syscall_setresgid32
                0x00000000c0028c1c        0x8 /opt/arm-linux-musleabi/bin/../lib/gcc/arm-linux-musleabi/7.3.0/../../../../arm-linux-musleabi/lib/libc_kernel.a(rtt_syscall.o)
 .text.syscall_getresgid32
                0x00000000c0028c24        0x8 /opt/arm-linux-musleabi/bin/../lib/gcc/arm-linux-musleabi/7.3.0/../../../../arm-linux-musleabi/lib/libc_kernel.a(rtt_syscall.o)
 .text.syscall_chown32
                0x00000000c0028c2c        0x8 /opt/arm-linux-musleabi/bin/../lib/gcc/arm-linux-musleabi/7.3.0/../../../../arm-linux-musleabi/lib/libc_kernel.a(rtt_syscall.o)
 .text.syscall_setuid32
                0x00000000c0028c34        0x8 /opt/arm-linux-musleabi/bin/../lib/gcc/arm-linux-musleabi/7.3.0/../../../../arm-linux-musleabi/lib/libc_kernel.a(rtt_syscall.o)
 .text.syscall_setgid32
                0x00000000c0028c3c        0x8 /opt/arm-linux-musleabi/bin/../lib/gcc/arm-linux-musleabi/7.3.0/../../../../arm-linux-musleabi/lib/libc_kernel.a(rtt_syscall.o)
 .text.syscall_setfsuid32
                0x00000000c0028c44        0x8 /opt/arm-linux-musleabi/bin/../lib/gcc/arm-linux-musleabi/7.3.0/../../../../arm-linux-musleabi/lib/libc_kernel.a(rtt_syscall.o)
 .text.syscall_setfsgid32
                0x00000000c0028c4c        0x8 /opt/arm-linux-musleabi/bin/../lib/gcc/arm-linux-musleabi/7.3.0/../../../../arm-linux-musleabi/lib/libc_kernel.a(rtt_syscall.o)
 .text.syscall_fdatasync
                0x00000000c0028c54        0x8 /opt/arm-linux-musleabi/bin/../lib/gcc/arm-linux-musleabi/7.3.0/../../../../arm-linux-musleabi/lib/libc_kernel.a(rtt_syscall.o)
 .text.syscall__sysctl
                0x00000000c0028c5c        0x8 /opt/arm-linux-musleabi/bin/../lib/gcc/arm-linux-musleabi/7.3.0/../../../../arm-linux-musleabi/lib/libc_kernel.a(rtt_syscall.o)
 .text.syscall_mlock
                0x00000000c0028c64        0x8 /opt/arm-linux-musleabi/bin/../lib/gcc/arm-linux-musleabi/7.3.0/../../../../arm-linux-musleabi/lib/libc_kernel.a(rtt_syscall.o)
 .text.syscall_munlock
                0x00000000c0028c6c        0x8 /opt/arm-linux-musleabi/bin/../lib/gcc/arm-linux-musleabi/7.3.0/../../../../arm-linux-musleabi/lib/libc_kernel.a(rtt_syscall.o)
 .text.syscall_mlockall
                0x00000000c0028c74        0x8 /opt/arm-linux-musleabi/bin/../lib/gcc/arm-linux-musleabi/7.3.0/../../../../arm-linux-musleabi/lib/libc_kernel.a(rtt_syscall.o)
 .text.syscall_munlockall
                0x00000000c0028c7c        0x8 /opt/arm-linux-musleabi/bin/../lib/gcc/arm-linux-musleabi/7.3.0/../../../../arm-linux-musleabi/lib/libc_kernel.a(rtt_syscall.o)
 .text.syscall_sched_setparam
                0x00000000c0028c84        0x8 /opt/arm-linux-musleabi/bin/../lib/gcc/arm-linux-musleabi/7.3.0/../../../../arm-linux-musleabi/lib/libc_kernel.a(rtt_syscall.o)
 .text.syscall_sched_getparam
                0x00000000c0028c8c        0x8 /opt/arm-linux-musleabi/bin/../lib/gcc/arm-linux-musleabi/7.3.0/../../../../arm-linux-musleabi/lib/libc_kernel.a(rtt_syscall.o)
 .text.syscall_sched_setscheduler
                0x00000000c0028c94        0x8 /opt/arm-linux-musleabi/bin/../lib/gcc/arm-linux-musleabi/7.3.0/../../../../arm-linux-musleabi/lib/libc_kernel.a(rtt_syscall.o)
 .text.syscall_sched_getscheduler
                0x00000000c0028c9c        0x8 /opt/arm-linux-musleabi/bin/../lib/gcc/arm-linux-musleabi/7.3.0/../../../../arm-linux-musleabi/lib/libc_kernel.a(rtt_syscall.o)
 .text.syscall_sched_yield
                0x00000000c0028ca4        0x8 /opt/arm-linux-musleabi/bin/../lib/gcc/arm-linux-musleabi/7.3.0/../../../../arm-linux-musleabi/lib/libc_kernel.a(rtt_syscall.o)
 .text.syscall_sched_get_priority_max
                0x00000000c0028cac        0x8 /opt/arm-linux-musleabi/bin/../lib/gcc/arm-linux-musleabi/7.3.0/../../../../arm-linux-musleabi/lib/libc_kernel.a(rtt_syscall.o)
 .text.syscall_sched_get_priority_min
                0x00000000c0028cb4        0x8 /opt/arm-linux-musleabi/bin/../lib/gcc/arm-linux-musleabi/7.3.0/../../../../arm-linux-musleabi/lib/libc_kernel.a(rtt_syscall.o)
 .text.syscall_sched_rr_get_interval
                0x00000000c0028cbc        0x8 /opt/arm-linux-musleabi/bin/../lib/gcc/arm-linux-musleabi/7.3.0/../../../../arm-linux-musleabi/lib/libc_kernel.a(rtt_syscall.o)
 .text.syscall_nanosleep
                0x00000000c0028cc4        0x8 /opt/arm-linux-musleabi/bin/../lib/gcc/arm-linux-musleabi/7.3.0/../../../../arm-linux-musleabi/lib/libc_kernel.a(rtt_syscall.o)
 .text.syscall_mremap
                0x00000000c0028ccc        0x8 /opt/arm-linux-musleabi/bin/../lib/gcc/arm-linux-musleabi/7.3.0/../../../../arm-linux-musleabi/lib/libc_kernel.a(rtt_syscall.o)
 .text.syscall_setresuid
                0x00000000c0028cd4        0x8 /opt/arm-linux-musleabi/bin/../lib/gcc/arm-linux-musleabi/7.3.0/../../../../arm-linux-musleabi/lib/libc_kernel.a(rtt_syscall.o)
 .text.syscall_getresuid
                0x00000000c0028cdc        0x8 /opt/arm-linux-musleabi/bin/../lib/gcc/arm-linux-musleabi/7.3.0/../../../../arm-linux-musleabi/lib/libc_kernel.a(rtt_syscall.o)
 .text.syscall_nfsservctl
                0x00000000c0028ce4        0x8 /opt/arm-linux-musleabi/bin/../lib/gcc/arm-linux-musleabi/7.3.0/../../../../arm-linux-musleabi/lib/libc_kernel.a(rtt_syscall.o)
 .text.syscall_setresgid
                0x00000000c0028cec        0x8 /opt/arm-linux-musleabi/bin/../lib/gcc/arm-linux-musleabi/7.3.0/../../../../arm-linux-musleabi/lib/libc_kernel.a(rtt_syscall.o)
 .text.syscall_getresgid
                0x00000000c0028cf4        0x8 /opt/arm-linux-musleabi/bin/../lib/gcc/arm-linux-musleabi/7.3.0/../../../../arm-linux-musleabi/lib/libc_kernel.a(rtt_syscall.o)
 .text.syscall_prctl
                0x00000000c0028cfc        0x8 /opt/arm-linux-musleabi/bin/../lib/gcc/arm-linux-musleabi/7.3.0/../../../../arm-linux-musleabi/lib/libc_kernel.a(rtt_syscall.o)
 .text.syscall_rt_sigreturn
                0x00000000c0028d04        0x8 /opt/arm-linux-musleabi/bin/../lib/gcc/arm-linux-musleabi/7.3.0/../../../../arm-linux-musleabi/lib/libc_kernel.a(rtt_syscall.o)
 .text.syscall_rt_sigaction
                0x00000000c0028d0c        0x8 /opt/arm-linux-musleabi/bin/../lib/gcc/arm-linux-musleabi/7.3.0/../../../../arm-linux-musleabi/lib/libc_kernel.a(rtt_syscall.o)
 .text.syscall_rt_sigprocmask
                0x00000000c0028d14        0x8 /opt/arm-linux-musleabi/bin/../lib/gcc/arm-linux-musleabi/7.3.0/../../../../arm-linux-musleabi/lib/libc_kernel.a(rtt_syscall.o)
 .text.syscall_rt_sigpending
                0x00000000c0028d1c        0x8 /opt/arm-linux-musleabi/bin/../lib/gcc/arm-linux-musleabi/7.3.0/../../../../arm-linux-musleabi/lib/libc_kernel.a(rtt_syscall.o)
 .text.syscall_rt_sigtimedwait
                0x00000000c0028d24        0x8 /opt/arm-linux-musleabi/bin/../lib/gcc/arm-linux-musleabi/7.3.0/../../../../arm-linux-musleabi/lib/libc_kernel.a(rtt_syscall.o)
 .text.syscall_rt_sigqueueinfo
                0x00000000c0028d2c        0x8 /opt/arm-linux-musleabi/bin/../lib/gcc/arm-linux-musleabi/7.3.0/../../../../arm-linux-musleabi/lib/libc_kernel.a(rtt_syscall.o)
 .text.syscall_rt_sigsuspend
                0x00000000c0028d34        0x8 /opt/arm-linux-musleabi/bin/../lib/gcc/arm-linux-musleabi/7.3.0/../../../../arm-linux-musleabi/lib/libc_kernel.a(rtt_syscall.o)
 .text.syscall_pread64
                0x00000000c0028d3c        0x8 /opt/arm-linux-musleabi/bin/../lib/gcc/arm-linux-musleabi/7.3.0/../../../../arm-linux-musleabi/lib/libc_kernel.a(rtt_syscall.o)
 .text.syscall_pwrite64
                0x00000000c0028d44        0x8 /opt/arm-linux-musleabi/bin/../lib/gcc/arm-linux-musleabi/7.3.0/../../../../arm-linux-musleabi/lib/libc_kernel.a(rtt_syscall.o)
 .text.syscall_chown
                0x00000000c0028d4c        0x8 /opt/arm-linux-musleabi/bin/../lib/gcc/arm-linux-musleabi/7.3.0/../../../../arm-linux-musleabi/lib/libc_kernel.a(rtt_syscall.o)
 .text.syscall_getsockopt
                0x00000000c0028d54        0x8 /opt/arm-linux-musleabi/bin/../lib/gcc/arm-linux-musleabi/7.3.0/../../../../arm-linux-musleabi/lib/libc_kernel.a(rtt_syscall.o)
 .text.syscall_sendmsg
                0x00000000c0028d5c        0x8 /opt/arm-linux-musleabi/bin/../lib/gcc/arm-linux-musleabi/7.3.0/../../../../arm-linux-musleabi/lib/libc_kernel.a(rtt_syscall.o)
 .text.syscall_recvmsg
                0x00000000c0028d64        0x8 /opt/arm-linux-musleabi/bin/../lib/gcc/arm-linux-musleabi/7.3.0/../../../../arm-linux-musleabi/lib/libc_kernel.a(rtt_syscall.o)
 .text.syscall_semop
                0x00000000c0028d6c        0x8 /opt/arm-linux-musleabi/bin/../lib/gcc/arm-linux-musleabi/7.3.0/../../../../arm-linux-musleabi/lib/libc_kernel.a(rtt_syscall.o)
 .text.syscall_timer_delete
                0x00000000c0028d74        0x8 /opt/arm-linux-musleabi/bin/../lib/gcc/arm-linux-musleabi/7.3.0/../../../../arm-linux-musleabi/lib/libc_kernel.a(rtt_syscall.o)
 .text.syscall_clock_settime
                0x00000000c0028d7c        0x8 /opt/arm-linux-musleabi/bin/../lib/gcc/arm-linux-musleabi/7.3.0/../../../../arm-linux-musleabi/lib/libc_kernel.a(rtt_syscall.o)
 .text.syscall_clock_gettime
                0x00000000c0028d84        0x8 /opt/arm-linux-musleabi/bin/../lib/gcc/arm-linux-musleabi/7.3.0/../../../../arm-linux-musleabi/lib/libc_kernel.a(rtt_syscall.o)
 .text.syscall_clock_getres
                0x00000000c0028d8c        0x8 /opt/arm-linux-musleabi/bin/../lib/gcc/arm-linux-musleabi/7.3.0/../../../../arm-linux-musleabi/lib/libc_kernel.a(rtt_syscall.o)
 .text.syscall_epoll_ctl
                0x00000000c0028d94        0x8 /opt/arm-linux-musleabi/bin/../lib/gcc/arm-linux-musleabi/7.3.0/../../../../arm-linux-musleabi/lib/libc_kernel.a(rtt_syscall.o)
 .text.syscall_epoll_wait
                0x00000000c0028d9c        0x8 /opt/arm-linux-musleabi/bin/../lib/gcc/arm-linux-musleabi/7.3.0/../../../../arm-linux-musleabi/lib/libc_kernel.a(rtt_syscall.o)
 .text.syscall_remap_file_pages
                0x00000000c0028da4        0x8 /opt/arm-linux-musleabi/bin/../lib/gcc/arm-linux-musleabi/7.3.0/../../../../arm-linux-musleabi/lib/libc_kernel.a(rtt_syscall.o)
 .text.syscall_set_tid_address
                0x00000000c0028dac        0x8 /opt/arm-linux-musleabi/bin/../lib/gcc/arm-linux-musleabi/7.3.0/../../../../arm-linux-musleabi/lib/libc_kernel.a(rtt_syscall.o)
 .text.syscall_timer_create
                0x00000000c0028db4        0x8 /opt/arm-linux-musleabi/bin/../lib/gcc/arm-linux-musleabi/7.3.0/../../../../arm-linux-musleabi/lib/libc_kernel.a(rtt_syscall.o)
 .text.syscall_timer_settime
                0x00000000c0028dbc        0x8 /opt/arm-linux-musleabi/bin/../lib/gcc/arm-linux-musleabi/7.3.0/../../../../arm-linux-musleabi/lib/libc_kernel.a(rtt_syscall.o)
 .text.syscall_timer_gettime
                0x00000000c0028dc4        0x8 /opt/arm-linux-musleabi/bin/../lib/gcc/arm-linux-musleabi/7.3.0/../../../../arm-linux-musleabi/lib/libc_kernel.a(rtt_syscall.o)
 .text.syscall_timer_getoverrun
                0x00000000c0028dcc        0x8 /opt/arm-linux-musleabi/bin/../lib/gcc/arm-linux-musleabi/7.3.0/../../../../arm-linux-musleabi/lib/libc_kernel.a(rtt_syscall.o)
 .text.syscall_shutdown
                0x00000000c0028dd4        0x8 /opt/arm-linux-musleabi/bin/../lib/gcc/arm-linux-musleabi/7.3.0/../../../../arm-linux-musleabi/lib/libc_kernel.a(rtt_syscall.o)
 .text.syscall_setsockopt
                0x00000000c0028ddc        0x8 /opt/arm-linux-musleabi/bin/../lib/gcc/arm-linux-musleabi/7.3.0/../../../../arm-linux-musleabi/lib/libc_kernel.a(rtt_syscall.o)
 .text.syscall_getpeername
                0x00000000c0028de4        0x8 /opt/arm-linux-musleabi/bin/../lib/gcc/arm-linux-musleabi/7.3.0/../../../../arm-linux-musleabi/lib/libc_kernel.a(rtt_syscall.o)
 .text.syscall_socketpair
                0x00000000c0028dec        0x8 /opt/arm-linux-musleabi/bin/../lib/gcc/arm-linux-musleabi/7.3.0/../../../../arm-linux-musleabi/lib/libc_kernel.a(rtt_syscall.o)
 .text.syscall_mq_timedreceive
                0x00000000c0028df4        0x8 /opt/arm-linux-musleabi/bin/../lib/gcc/arm-linux-musleabi/7.3.0/../../../../arm-linux-musleabi/lib/libc_kernel.a(rtt_syscall.o)
 .text.syscall_mq_notify
                0x00000000c0028dfc        0x8 /opt/arm-linux-musleabi/bin/../lib/gcc/arm-linux-musleabi/7.3.0/../../../../arm-linux-musleabi/lib/libc_kernel.a(rtt_syscall.o)
 .text.syscall_mq_getsetattr
                0x00000000c0028e04        0x8 /opt/arm-linux-musleabi/bin/../lib/gcc/arm-linux-musleabi/7.3.0/../../../../arm-linux-musleabi/lib/libc_kernel.a(rtt_syscall.o)
 .text.syscall_waitid
                0x00000000c0028e0c        0x8 /opt/arm-linux-musleabi/bin/../lib/gcc/arm-linux-musleabi/7.3.0/../../../../arm-linux-musleabi/lib/libc_kernel.a(rtt_syscall.o)
 .text.syscall_utimes
                0x00000000c0028e14        0x8 /opt/arm-linux-musleabi/bin/../lib/gcc/arm-linux-musleabi/7.3.0/../../../../arm-linux-musleabi/lib/libc_kernel.a(rtt_syscall.o)
 .text.syscall_arm_fadvise64_64
                0x00000000c0028e1c        0x8 /opt/arm-linux-musleabi/bin/../lib/gcc/arm-linux-musleabi/7.3.0/../../../../arm-linux-musleabi/lib/libc_kernel.a(rtt_syscall.o)
 .text.syscall_pciconfig_iobase
                0x00000000c0028e24        0x8 /opt/arm-linux-musleabi/bin/../lib/gcc/arm-linux-musleabi/7.3.0/../../../../arm-linux-musleabi/lib/libc_kernel.a(rtt_syscall.o)
 .text.syscall_pciconfig_read
                0x00000000c0028e2c        0x8 /opt/arm-linux-musleabi/bin/../lib/gcc/arm-linux-musleabi/7.3.0/../../../../arm-linux-musleabi/lib/libc_kernel.a(rtt_syscall.o)
 .text.syscall_pciconfig_write
                0x00000000c0028e34        0x8 /opt/arm-linux-musleabi/bin/../lib/gcc/arm-linux-musleabi/7.3.0/../../../../arm-linux-musleabi/lib/libc_kernel.a(rtt_syscall.o)
 .text.syscall_mq_open
                0x00000000c0028e3c        0x8 /opt/arm-linux-musleabi/bin/../lib/gcc/arm-linux-musleabi/7.3.0/../../../../arm-linux-musleabi/lib/libc_kernel.a(rtt_syscall.o)
 .text.syscall_mq_unlink
                0x00000000c0028e44        0x8 /opt/arm-linux-musleabi/bin/../lib/gcc/arm-linux-musleabi/7.3.0/../../../../arm-linux-musleabi/lib/libc_kernel.a(rtt_syscall.o)
 .text.syscall_mq_timedsend
                0x00000000c0028e4c        0x8 /opt/arm-linux-musleabi/bin/../lib/gcc/arm-linux-musleabi/7.3.0/../../../../arm-linux-musleabi/lib/libc_kernel.a(rtt_syscall.o)
 .text.syscall_getdents64
                0x00000000c0028e54        0x8 /opt/arm-linux-musleabi/bin/../lib/gcc/arm-linux-musleabi/7.3.0/../../../../arm-linux-musleabi/lib/libc_kernel.a(rtt_syscall.o)
 .text.syscall_pivot_root
                0x00000000c0028e5c        0x8 /opt/arm-linux-musleabi/bin/../lib/gcc/arm-linux-musleabi/7.3.0/../../../../arm-linux-musleabi/lib/libc_kernel.a(rtt_syscall.o)
 .text.syscall_mincore
                0x00000000c0028e64        0x8 /opt/arm-linux-musleabi/bin/../lib/gcc/arm-linux-musleabi/7.3.0/../../../../arm-linux-musleabi/lib/libc_kernel.a(rtt_syscall.o)
 .text.syscall_madvise
                0x00000000c0028e6c        0x8 /opt/arm-linux-musleabi/bin/../lib/gcc/arm-linux-musleabi/7.3.0/../../../../arm-linux-musleabi/lib/libc_kernel.a(rtt_syscall.o)
 .text.syscall_fcntl64
                0x00000000c0028e74        0x8 /opt/arm-linux-musleabi/bin/../lib/gcc/arm-linux-musleabi/7.3.0/../../../../arm-linux-musleabi/lib/libc_kernel.a(rtt_syscall.o)
 .text.syscall_gettid
                0x00000000c0028e7c        0x8 /opt/arm-linux-musleabi/bin/../lib/gcc/arm-linux-musleabi/7.3.0/../../../../arm-linux-musleabi/lib/libc_kernel.a(rtt_syscall.o)
 .text.syscall_readahead
                0x00000000c0028e84        0x8 /opt/arm-linux-musleabi/bin/../lib/gcc/arm-linux-musleabi/7.3.0/../../../../arm-linux-musleabi/lib/libc_kernel.a(rtt_syscall.o)
 .text.syscall_setxattr
                0x00000000c0028e8c        0x8 /opt/arm-linux-musleabi/bin/../lib/gcc/arm-linux-musleabi/7.3.0/../../../../arm-linux-musleabi/lib/libc_kernel.a(rtt_syscall.o)
 .text.syscall_lsetxattr
                0x00000000c0028e94        0x8 /opt/arm-linux-musleabi/bin/../lib/gcc/arm-linux-musleabi/7.3.0/../../../../arm-linux-musleabi/lib/libc_kernel.a(rtt_syscall.o)
 .text.syscall_fsetxattr
                0x00000000c0028e9c        0x8 /opt/arm-linux-musleabi/bin/../lib/gcc/arm-linux-musleabi/7.3.0/../../../../arm-linux-musleabi/lib/libc_kernel.a(rtt_syscall.o)
 .text.syscall_getxattr
                0x00000000c0028ea4        0x8 /opt/arm-linux-musleabi/bin/../lib/gcc/arm-linux-musleabi/7.3.0/../../../../arm-linux-musleabi/lib/libc_kernel.a(rtt_syscall.o)
 .text.syscall_lgetxattr
                0x00000000c0028eac        0x8 /opt/arm-linux-musleabi/bin/../lib/gcc/arm-linux-musleabi/7.3.0/../../../../arm-linux-musleabi/lib/libc_kernel.a(rtt_syscall.o)
 .text.syscall_fgetxattr
                0x00000000c0028eb4        0x8 /opt/arm-linux-musleabi/bin/../lib/gcc/arm-linux-musleabi/7.3.0/../../../../arm-linux-musleabi/lib/libc_kernel.a(rtt_syscall.o)
 .text.syscall_listxattr
                0x00000000c0028ebc        0x8 /opt/arm-linux-musleabi/bin/../lib/gcc/arm-linux-musleabi/7.3.0/../../../../arm-linux-musleabi/lib/libc_kernel.a(rtt_syscall.o)
 .text.syscall_llistxattr
                0x00000000c0028ec4        0x8 /opt/arm-linux-musleabi/bin/../lib/gcc/arm-linux-musleabi/7.3.0/../../../../arm-linux-musleabi/lib/libc_kernel.a(rtt_syscall.o)
 .text.syscall_flistxattr
                0x00000000c0028ecc        0x8 /opt/arm-linux-musleabi/bin/../lib/gcc/arm-linux-musleabi/7.3.0/../../../../arm-linux-musleabi/lib/libc_kernel.a(rtt_syscall.o)
 .text.syscall_removexattr
                0x00000000c0028ed4        0x8 /opt/arm-linux-musleabi/bin/../lib/gcc/arm-linux-musleabi/7.3.0/../../../../arm-linux-musleabi/lib/libc_kernel.a(rtt_syscall.o)
 .text.syscall_lremovexattr
                0x00000000c0028edc        0x8 /opt/arm-linux-musleabi/bin/../lib/gcc/arm-linux-musleabi/7.3.0/../../../../arm-linux-musleabi/lib/libc_kernel.a(rtt_syscall.o)
 .text.syscall_fremovexattr
                0x00000000c0028ee4        0x8 /opt/arm-linux-musleabi/bin/../lib/gcc/arm-linux-musleabi/7.3.0/../../../../arm-linux-musleabi/lib/libc_kernel.a(rtt_syscall.o)
 .text.syscall_tkill
                0x00000000c0028eec        0x8 /opt/arm-linux-musleabi/bin/../lib/gcc/arm-linux-musleabi/7.3.0/../../../../arm-linux-musleabi/lib/libc_kernel.a(rtt_syscall.o)
 .text.syscall_sendfile64
                0x00000000c0028ef4        0x8 /opt/arm-linux-musleabi/bin/../lib/gcc/arm-linux-musleabi/7.3.0/../../../../arm-linux-musleabi/lib/libc_kernel.a(rtt_syscall.o)
 .text.syscall_futex
                0x00000000c0028efc        0x8 /opt/arm-linux-musleabi/bin/../lib/gcc/arm-linux-musleabi/7.3.0/../../../../arm-linux-musleabi/lib/libc_kernel.a(rtt_syscall.o)
 .text.syscall_sched_setaffinity
                0x00000000c0028f04        0x8 /opt/arm-linux-musleabi/bin/../lib/gcc/arm-linux-musleabi/7.3.0/../../../../arm-linux-musleabi/lib/libc_kernel.a(rtt_syscall.o)
 .text.syscall_sched_getaffinity
                0x00000000c0028f0c        0x8 /opt/arm-linux-musleabi/bin/../lib/gcc/arm-linux-musleabi/7.3.0/../../../../arm-linux-musleabi/lib/libc_kernel.a(rtt_syscall.o)
 .text.syscall_io_setup
                0x00000000c0028f14        0x8 /opt/arm-linux-musleabi/bin/../lib/gcc/arm-linux-musleabi/7.3.0/../../../../arm-linux-musleabi/lib/libc_kernel.a(rtt_syscall.o)
 .text.syscall_io_destroy
                0x00000000c0028f1c        0x8 /opt/arm-linux-musleabi/bin/../lib/gcc/arm-linux-musleabi/7.3.0/../../../../arm-linux-musleabi/lib/libc_kernel.a(rtt_syscall.o)
 .text.syscall_io_getevents
                0x00000000c0028f24        0x8 /opt/arm-linux-musleabi/bin/../lib/gcc/arm-linux-musleabi/7.3.0/../../../../arm-linux-musleabi/lib/libc_kernel.a(rtt_syscall.o)
 .text.syscall_io_submit
                0x00000000c0028f2c        0x8 /opt/arm-linux-musleabi/bin/../lib/gcc/arm-linux-musleabi/7.3.0/../../../../arm-linux-musleabi/lib/libc_kernel.a(rtt_syscall.o)
 .text.syscall_io_cancel
                0x00000000c0028f34        0x8 /opt/arm-linux-musleabi/bin/../lib/gcc/arm-linux-musleabi/7.3.0/../../../../arm-linux-musleabi/lib/libc_kernel.a(rtt_syscall.o)
 .text.syscall_exit_group
                0x00000000c0028f3c        0x8 /opt/arm-linux-musleabi/bin/../lib/gcc/arm-linux-musleabi/7.3.0/../../../../arm-linux-musleabi/lib/libc_kernel.a(rtt_syscall.o)
 .text.syscall_lookup_dcookie
                0x00000000c0028f44        0x8 /opt/arm-linux-musleabi/bin/../lib/gcc/arm-linux-musleabi/7.3.0/../../../../arm-linux-musleabi/lib/libc_kernel.a(rtt_syscall.o)
 .text.syscall_epoll_create
                0x00000000c0028f4c        0x8 /opt/arm-linux-musleabi/bin/../lib/gcc/arm-linux-musleabi/7.3.0/../../../../arm-linux-musleabi/lib/libc_kernel.a(rtt_syscall.o)
 .text.get_rtt_syscall
                0x00000000c0028f54       0x38 /opt/arm-linux-musleabi/bin/../lib/gcc/arm-linux-musleabi/7.3.0/../../../../arm-linux-musleabi/lib/libc_kernel.a(rtt_syscall.o)
                0x00000000c0028f54                get_rtt_syscall
 .text.___syscall
                0x00000000c0028f8c       0x70 /opt/arm-linux-musleabi/bin/../lib/gcc/arm-linux-musleabi/7.3.0/../../../../arm-linux-musleabi/lib/libc_kernel.a(rtt_syscall.o)
                0x00000000c0028f8c                ___syscall
 .text.__syscall_ret
                0x00000000c0028ffc        0xc /opt/arm-linux-musleabi/bin/../lib/gcc/arm-linux-musleabi/7.3.0/../../../../arm-linux-musleabi/lib/libc_kernel.a(syscall_ret.o)
                0x00000000c0028ffc                __syscall_ret
 .text.dummy    0x00000000c0029008        0x4 /opt/arm-linux-musleabi/bin/../lib/gcc/arm-linux-musleabi/7.3.0/../../../../arm-linux-musleabi/lib/libc_kernel.a(__lctrans.o)
                0x00000000c0029008                __lctrans_impl
 .text.__lctrans
                0x00000000c002900c        0x4 /opt/arm-linux-musleabi/bin/../lib/gcc/arm-linux-musleabi/7.3.0/../../../../arm-linux-musleabi/lib/libc_kernel.a(__lctrans.o)
                0x00000000c002900c                __lctrans
 .text.frexpl   0x00000000c0029010        0x4 /opt/arm-linux-musleabi/bin/../lib/gcc/arm-linux-musleabi/7.3.0/../../../../arm-linux-musleabi/lib/libc_kernel.a(frexpl.o)
                0x00000000c0029010                frexpl
 .text.wctomb   0x00000000c0029014       0x10 /opt/arm-linux-musleabi/bin/../lib/gcc/arm-linux-musleabi/7.3.0/../../../../arm-linux-musleabi/lib/libc_kernel.a(wctomb.o)
                0x00000000c0029014                wctomb
 .text.__fdopen
                0x00000000c0029024      0x1e4 /opt/arm-linux-musleabi/bin/../lib/gcc/arm-linux-musleabi/7.3.0/../../../../arm-linux-musleabi/lib/libc_kernel.a(__fdopen.o)
                0x00000000c0029024                fdopen
                0x00000000c0029024                __fdopen
 .text.__fmodeflags
                0x00000000c0029208       0x88 /opt/arm-linux-musleabi/bin/../lib/gcc/arm-linux-musleabi/7.3.0/../../../../arm-linux-musleabi/lib/libc_kernel.a(__fmodeflags.o)
                0x00000000c0029208                __fmodeflags
 .text.__lockfile
                0x00000000c0029290      0x134 /opt/arm-linux-musleabi/bin/../lib/gcc/arm-linux-musleabi/7.3.0/../../../../arm-linux-musleabi/lib/libc_kernel.a(__lockfile.o)
                0x00000000c0029290                __lockfile
 .text.__unlockfile
                0x00000000c00293c4       0x98 /opt/arm-linux-musleabi/bin/../lib/gcc/arm-linux-musleabi/7.3.0/../../../../arm-linux-musleabi/lib/libc_kernel.a(__lockfile.o)
                0x00000000c00293c4                __unlockfile
 .text.dummy    0x00000000c002945c        0x4 /opt/arm-linux-musleabi/bin/../lib/gcc/arm-linux-musleabi/7.3.0/../../../../arm-linux-musleabi/lib/libc_kernel.a(__stdio_close.o)
                0x00000000c002945c                __aio_close
 .text.__stdio_close
                0x00000000c0029460       0x38 /opt/arm-linux-musleabi/bin/../lib/gcc/arm-linux-musleabi/7.3.0/../../../../arm-linux-musleabi/lib/libc_kernel.a(__stdio_close.o)
                0x00000000c0029460                __stdio_close
 .text.__stdio_read
                0x00000000c0029498      0x114 /opt/arm-linux-musleabi/bin/../lib/gcc/arm-linux-musleabi/7.3.0/../../../../arm-linux-musleabi/lib/libc_kernel.a(__stdio_read.o)
                0x00000000c0029498                __stdio_read
 .text.__stdio_seek
                0x00000000c00295ac       0x68 /opt/arm-linux-musleabi/bin/../lib/gcc/arm-linux-musleabi/7.3.0/../../../../arm-linux-musleabi/lib/libc_kernel.a(__stdio_seek.o)
                0x00000000c00295ac                __stdio_seek
 .text.__stdio_write
                0x00000000c0029614      0x100 /opt/arm-linux-musleabi/bin/../lib/gcc/arm-linux-musleabi/7.3.0/../../../../arm-linux-musleabi/lib/libc_kernel.a(__stdio_write.o)
                0x00000000c0029614                __stdio_write
 .text.__stdout_write
                0x00000000c0029714       0x7c /opt/arm-linux-musleabi/bin/../lib/gcc/arm-linux-musleabi/7.3.0/../../../../arm-linux-musleabi/lib/libc_kernel.a(__stdout_write.o)
                0x00000000c0029714                __stdout_write
 .text.__towrite
                0x00000000c0029790       0x58 /opt/arm-linux-musleabi/bin/../lib/gcc/arm-linux-musleabi/7.3.0/../../../../arm-linux-musleabi/lib/libc_kernel.a(__towrite.o)
                0x00000000c0029790                __towrite
 .text.__uflow  0x00000000c00297e8       0x48 /opt/arm-linux-musleabi/bin/../lib/gcc/arm-linux-musleabi/7.3.0/../../../../arm-linux-musleabi/lib/libc_kernel.a(__uflow.o)
                0x00000000c00297e8                __uflow
 .text.__fwritex
                0x00000000c0029830       0xfc /opt/arm-linux-musleabi/bin/../lib/gcc/arm-linux-musleabi/7.3.0/../../../../arm-linux-musleabi/lib/libc_kernel.a(fwrite.o)
                0x00000000c0029830                __fwritex
 .text.__ofl_add
                0x00000000c002992c       0x30 /opt/arm-linux-musleabi/bin/../lib/gcc/arm-linux-musleabi/7.3.0/../../../../arm-linux-musleabi/lib/libc_kernel.a(ofl_add.o)
                0x00000000c002992c                __ofl_add
 .text.memchr   0x00000000c002995c      0x158 /opt/arm-linux-musleabi/bin/../lib/gcc/arm-linux-musleabi/7.3.0/../../../../arm-linux-musleabi/lib/libc_kernel.a(memchr.o)
                0x00000000c002995c                memchr
 .text.__memrchr
                0x00000000c0029ab4       0x38 /opt/arm-linux-musleabi/bin/../lib/gcc/arm-linux-musleabi/7.3.0/../../../../arm-linux-musleabi/lib/libc_kernel.a(memrchr.o)
                0x00000000c0029ab4                memrchr
                0x00000000c0029ab4                __memrchr
 .text.__stpncpy
                0x00000000c0029aec      0x148 /opt/arm-linux-musleabi/bin/../lib/gcc/arm-linux-musleabi/7.3.0/../../../../arm-linux-musleabi/lib/libc_kernel.a(stpncpy.o)
                0x00000000c0029aec                stpncpy
                0x00000000c0029aec                __stpncpy
 .text.frexp    0x00000000c0029c34       0xb4 /opt/arm-linux-musleabi/bin/../lib/gcc/arm-linux-musleabi/7.3.0/../../../../arm-linux-musleabi/lib/libc_kernel.a(frexp.o)
                0x00000000c0029c34                frexp
 .text.wcrtomb  0x00000000c0029ce8      0x130 /opt/arm-linux-musleabi/bin/../lib/gcc/arm-linux-musleabi/7.3.0/../../../../arm-linux-musleabi/lib/libc_kernel.a(wcrtomb.o)
                0x00000000c0029ce8                wcrtomb
 .text.__toread
                0x00000000c0029e18       0x84 /opt/arm-linux-musleabi/bin/../lib/gcc/arm-linux-musleabi/7.3.0/../../../../arm-linux-musleabi/lib/libc_kernel.a(__toread.o)
                0x00000000c0029e18                __toread
 .text.raise    0x00000000c0029e9c       0x68 /opt/arm-linux-musleabi/bin/../lib/gcc/arm-linux-musleabi/7.3.0/../../../../arm-linux-musleabi/lib/libc_kernel.a(raise.o)
                0x00000000c0029e9c                raise
 .text.__block_app_sigs
                0x00000000c0029f04       0x38 /opt/arm-linux-musleabi/bin/../lib/gcc/arm-linux-musleabi/7.3.0/../../../../arm-linux-musleabi/lib/libc_kernel.a(block.o)
                0x00000000c0029f04                __block_app_sigs
 .text.__restore_sigs
                0x00000000c0029f3c       0x34 /opt/arm-linux-musleabi/bin/../lib/gcc/arm-linux-musleabi/7.3.0/../../../../arm-linux-musleabi/lib/libc_kernel.a(block.o)
                0x00000000c0029f3c                __restore_sigs
 *(.rodata)
 .rodata        0x00000000c0029f70        0x8 build/drivers/drv_uart.o
 .rodata        0x00000000c0029f78        0xc build/kernel/components/lwp/lwp_ipc.o
 .rodata        0x00000000c0029f84        0xc build/kernel/components/dfs/src/dfs_fs.o
 *(.rodata*)
 .rodata.rt_unwind.str1.4
                0x00000000c0029f90        0xc build/libcpu/backtrace.o
 .rodata.unwind_frame.str1.4
                0x00000000c0029f9c      0x174 build/libcpu/backtrace.o
                                        0x178 (size before relaxing)
 .rodata.CACHE_LINE_SIZE_LUT
                0x00000000c002a110       0x24 build/libcpu/cache.o
 .rodata.machine_reset.str1.4
                0x00000000c002a134       0x12 build/libcpu/cpu.o
 *fill*         0x00000000c002a146        0x2 00000000
 .rodata.machine_shutdown.str1.4
                0x00000000c002a148        0xd build/libcpu/cpu.o
 *fill*         0x00000000c002a155        0x3 00000000
 .rodata.name   0x00000000c002a158       0x1d build/libcpu/cpu.o
                0x00000000c002a158                __fsym___cmd_reboot_desc
                0x00000000c002a168                __fsym___cmd_reboot_name
 *fill*         0x00000000c002a175        0x3 00000000
 .rodata.__FUNCTION__.5849
                0x00000000c002a178       0x13 build/libcpu/cpuport.o
 .rodata.rt_hw_cpu_shutdown.str1.4
                0x00000000c002a18b        0xd build/libcpu/cpuport.o
                                         0x12 (size before relaxing)
 *fill*         0x00000000c002a18b        0x1 00000000
 .rodata.rt_hw_interrupt_handler.str1.4
                0x00000000c002a18c       0x23 build/libcpu/interrupt.o
 *fill*         0x00000000c002a1af        0x1 00000000
 .rodata.__FUNCTION__.5961
                0x00000000c002a1b0        0xc build/libcpu/page.o
 .rodata.__FUNCTION__.6032
                0x00000000c002a1bc        0xd build/libcpu/page.o
 *fill*         0x00000000c002a1c9        0x3 00000000
 .rodata.list_page.str1.4
                0x00000000c002a1cc       0x4d build/libcpu/page.o
                                         0x51 (size before relaxing)
 *fill*         0x00000000c002a219        0x3 00000000
 .rodata.name   0x00000000c002a21c       0x20 build/libcpu/page.o
                0x00000000c002a21c                __fsym___cmd_list_page_desc
                0x00000000c002a22c                __fsym___cmd_list_page_name
 .rodata.rt_page_init.str1.4
                0x00000000c002a23c        0xc build/libcpu/page.o
 .rodata.rt_pages_free.str1.4
                0x00000000c002a248       0x38 build/libcpu/page.o
 .rodata.check_user_fault.str1.4
                0x00000000c002a280       0x11 build/libcpu/trap.o
 *fill*         0x00000000c002a291        0x3 00000000
 .rodata.rt_hw_show_register.str1.4
                0x00000000c002a294      0x109 build/libcpu/trap.o
 *fill*         0x00000000c002a39d        0x3 00000000
 .rodata.rt_hw_trap_dabt.str1.4
                0x00000000c002a3a0       0x1c build/libcpu/trap.o
 .rodata.rt_hw_trap_pabt.str1.4
                0x00000000c002a3bc       0x25 build/libcpu/trap.o
 *fill*         0x00000000c002a3e1        0x3 00000000
 .rodata.rt_hw_trap_resv.str1.4
                0x00000000c002a3e4       0x10 build/libcpu/trap.o
 .rodata.rt_hw_trap_swi.str1.4
                0x00000000c002a3f4       0x15 build/libcpu/trap.o
 *fill*         0x00000000c002a409        0x3 00000000
 .rodata.rt_hw_trap_undef.str1.4
                0x00000000c002a40c       0x34 build/libcpu/trap.o
 .rodata.os_clock_init.str1.4
                0x00000000c002a440        0x6 build/drivers/board.o
 *fill*         0x00000000c002a446        0x2 00000000
 .rodata.platform_mem_desc_size
                0x00000000c002a448        0x4 build/drivers/board.o
                0x00000000c002a448                platform_mem_desc_size
 .rodata.rt_hw_board_init.str1.4
                0x00000000c002a44c        0x6 build/drivers/board.o
 *fill*         0x00000000c002a452        0x2 00000000
 .rodata.__FUNCTION__.8153
                0x00000000c002a454        0xe build/drivers/drv_gpio.o
 *fill*         0x00000000c002a462        0x2 00000000
 .rodata.gpio_set_func.str1.4
                0x00000000c002a464       0x9a build/drivers/drv_gpio.o
                                         0x9e (size before relaxing)
 *fill*         0x00000000c002a4fe        0x2 00000000
 .rodata.rt_hw_gpio_init.str1.4
                0x00000000c002a500       0x22 build/drivers/drv_gpio.o
 *fill*         0x00000000c002a522        0x2 00000000
 .rodata.__FUNCTION__.8366
                0x00000000c002a524        0xf build/drivers/drv_uart.o
 *fill*         0x00000000c002a533        0x1 00000000
 .rodata.__FUNCTION__.8373
                0x00000000c002a534        0xd build/drivers/drv_uart.o
 *fill*         0x00000000c002a541        0x3 00000000
 .rodata._uart_ops
                0x00000000c002a544       0x14 build/drivers/drv_uart.o
                0x00000000c002a544                _uart_ops
 .rodata.rt_hw_uart_init.str1.4
                0x00000000c002a558        0x6 build/drivers/drv_uart.o
 .rodata.uart_configure.str1.4
                0x00000000c002a558       0x12 build/drivers/drv_uart.o
                                         0x16 (size before relaxing)
 *fill*         0x00000000c002a56a        0x2 00000000
 .rodata.uart_control.str1.4
                0x00000000c002a56c       0x10 build/drivers/drv_uart.o
 .rodata.rt_hw_wdt_init.str1.4
                0x00000000c002a57c       0x24 build/drivers/drv_wdg.o
 .rodata.main.str1.4
                0x00000000c002a5a0        0xd build/applications/main.o
 *fill*         0x00000000c002a5ad        0x3 00000000
 .rodata.__FUNCTION__.5989
                0x00000000c002a5b0       0x14 build/kernel/src/components.o
 .rodata.entry.str1.4
                0x00000000c002a5c4       0x17 build/kernel/src/components.o
 *fill*         0x00000000c002a5db        0x1 00000000
 .rodata.__FUNCTION__.6127
                0x00000000c002a5dc       0x15 build/kernel/src/device.o
 *fill*         0x00000000c002a5f1        0x3 00000000
 .rodata.__FUNCTION__.6137
                0x00000000c002a5f4        0xf build/kernel/src/device.o
 *fill*         0x00000000c002a603        0x1 00000000
 .rodata.__FUNCTION__.6155
                0x00000000c002a604        0xf build/kernel/src/device.o
 *fill*         0x00000000c002a613        0x1 00000000
 .rodata.__FUNCTION__.6161
                0x00000000c002a614        0xf build/kernel/src/device.o
 *fill*         0x00000000c002a623        0x1 00000000
 .rodata.__FUNCTION__.6166
                0x00000000c002a624       0x10 build/kernel/src/device.o
 .rodata.__FUNCTION__.6173
                0x00000000c002a634        0xf build/kernel/src/device.o
 *fill*         0x00000000c002a643        0x1 00000000
 .rodata.__FUNCTION__.6180
                0x00000000c002a644       0x10 build/kernel/src/device.o
 .rodata.__FUNCTION__.6186
                0x00000000c002a654       0x12 build/kernel/src/device.o
 *fill*         0x00000000c002a666        0x2 00000000
 .rodata.__FUNCTION__.6193
                0x00000000c002a668       0x1a build/kernel/src/device.o
 *fill*         0x00000000c002a682        0x2 00000000
 .rodata.rt_device_init.str1.4
                0x00000000c002a684       0x36 build/kernel/src/device.o
 *fill*         0x00000000c002a6ba        0x2 00000000
 .rodata.rt_device_open.str1.4
                0x00000000c002a6bc       0x14 build/kernel/src/device.o
 .rodata.rt_device_register.str1.4
                0x00000000c002a6d0       0x17 build/kernel/src/device.o
 *fill*         0x00000000c002a6e7        0x1 00000000
 .rodata.rt_device_unregister.str1.4
                0x00000000c002a6e8       0x74 build/kernel/src/device.o
 .rodata.__FUNCTION__.5877
                0x00000000c002a75c       0x13 build/kernel/src/idle.o
 *fill*         0x00000000c002a76f        0x1 00000000
 .rodata.rt_thread_idle_entry.str1.4
                0x00000000c002a770       0x27 build/kernel/src/idle.o
                                         0x2a (size before relaxing)
 *fill*         0x00000000c002a797        0x1 00000000
 .rodata.rt_thread_idle_init.str1.4
                0x00000000c002a798        0x8 build/kernel/src/idle.o
 .rodata.__FUNCTION__.5879
                0x00000000c002a7a0        0xc build/kernel/src/ipc.o
 .rodata.__FUNCTION__.5891
                0x00000000c002a7ac        0xe build/kernel/src/ipc.o
 *fill*         0x00000000c002a7ba        0x2 00000000
 .rodata.__FUNCTION__.5896
                0x00000000c002a7bc        0xe build/kernel/src/ipc.o
 *fill*         0x00000000c002a7ca        0x2 00000000
 .rodata.__FUNCTION__.5905
                0x00000000c002a7cc        0xd build/kernel/src/ipc.o
 *fill*         0x00000000c002a7d9        0x3 00000000
 .rodata.__FUNCTION__.5928
                0x00000000c002a7dc        0xf build/kernel/src/ipc.o
 *fill*         0x00000000c002a7eb        0x1 00000000
 .rodata.__FUNCTION__.5942
                0x00000000c002a7ec        0xe build/kernel/src/ipc.o
 *fill*         0x00000000c002a7fa        0x2 00000000
 .rodata.__FUNCTION__.5946
                0x00000000c002a7fc       0x10 build/kernel/src/ipc.o
 .rodata.__FUNCTION__.5953
                0x00000000c002a80c       0x10 build/kernel/src/ipc.o
 .rodata.__FUNCTION__.5958
                0x00000000c002a81c       0x10 build/kernel/src/ipc.o
 .rodata.__FUNCTION__.5968
                0x00000000c002a82c        0xf build/kernel/src/ipc.o
 *fill*         0x00000000c002a83b        0x1 00000000
 .rodata.__FUNCTION__.5988
                0x00000000c002a83c       0x11 build/kernel/src/ipc.o
 *fill*         0x00000000c002a84d        0x3 00000000
 .rodata.__FUNCTION__.6013
                0x00000000c002a850       0x10 build/kernel/src/ipc.o
 .rodata.__FUNCTION__.6017
                0x00000000c002a860       0x10 build/kernel/src/ipc.o
 .rodata.__FUNCTION__.6028
                0x00000000c002a870        0xe build/kernel/src/ipc.o
 *fill*         0x00000000c002a87e        0x2 00000000
 .rodata.__FUNCTION__.6045
                0x00000000c002a880        0xf build/kernel/src/ipc.o
 *fill*         0x00000000c002a88f        0x1 00000000
 .rodata.__FUNCTION__.6094
                0x00000000c002a890        0xd build/kernel/src/ipc.o
 *fill*         0x00000000c002a89d        0x3 00000000
 .rodata.__FUNCTION__.6099
                0x00000000c002a8a0        0xd build/kernel/src/ipc.o
 *fill*         0x00000000c002a8ad        0x3 00000000
 .rodata.__FUNCTION__.6110
                0x00000000c002a8b0       0x11 build/kernel/src/ipc.o
 *fill*         0x00000000c002a8c1        0x3 00000000
 .rodata.__FUNCTION__.6153
                0x00000000c002a8c4        0xc build/kernel/src/ipc.o
 .rodata.__FUNCTION__.6211
                0x00000000c002a8d0        0xd build/kernel/src/ipc.o
 *fill*         0x00000000c002a8dd        0x3 00000000
 .rodata.__FUNCTION__.6219
                0x00000000c002a8e0        0xd build/kernel/src/ipc.o
 *fill*         0x00000000c002a8ed        0x3 00000000
 .rodata.__FUNCTION__.6232
                0x00000000c002a8f0       0x11 build/kernel/src/ipc.o
 *fill*         0x00000000c002a901        0x3 00000000
 .rodata.__FUNCTION__.6278
                0x00000000c002a904        0xd build/kernel/src/ipc.o
 *fill*         0x00000000c002a911        0x3 00000000
 .rodata.__FUNCTION__.6291
                0x00000000c002a914        0xc build/kernel/src/ipc.o
 .rodata._rt_mb_send_wait.str1.4
                0x00000000c002a920       0x8b build/kernel/src/ipc.o
                                         0xb7 (size before relaxing)
 *fill*         0x00000000c002a9ab        0x1 00000000
 .rodata._rt_mq_recv.str1.4
                0x00000000c002a9ac       0x76 build/kernel/src/ipc.o
 *fill*         0x00000000c002aa22        0x2 00000000
 .rodata.rt_event_delete.str1.4
                0x00000000c002aa24       0x3d build/kernel/src/ipc.o
 *fill*         0x00000000c002aa61        0x3 00000000
 .rodata.rt_event_detach.str1.4
                0x00000000c002aa64       0x75 build/kernel/src/ipc.o
 *fill*         0x00000000c002aad9        0x3 00000000
 .rodata.rt_event_init.str1.4
                0x00000000c002aadc       0x11 build/kernel/src/ipc.o
 *fill*         0x00000000c002aaed        0x3 00000000
 .rodata.rt_mb_delete.str1.4
                0x00000000c002aaf0       0x3a build/kernel/src/ipc.o
 *fill*         0x00000000c002ab2a        0x2 00000000
 .rodata.rt_mq_delete.str1.4
                0x00000000c002ab2c       0x3a build/kernel/src/ipc.o
 *fill*         0x00000000c002ab66        0x2 00000000
 .rodata.rt_mutex_delete.str1.4
                0x00000000c002ab68       0x3d build/kernel/src/ipc.o
 *fill*         0x00000000c002aba5        0x3 00000000
 .rodata.rt_mutex_detach.str1.4
                0x00000000c002aba8       0x75 build/kernel/src/ipc.o
 *fill*         0x00000000c002ac1d        0x3 00000000
 .rodata.rt_mutex_init.str1.4
                0x00000000c002ac20       0x11 build/kernel/src/ipc.o
 *fill*         0x00000000c002ac31        0x3 00000000
 .rodata.rt_sem_delete.str1.4
                0x00000000c002ac34       0x3b build/kernel/src/ipc.o
 *fill*         0x00000000c002ac6f        0x1 00000000
 .rodata.rt_sem_detach.str1.4
                0x00000000c002ac70       0x77 build/kernel/src/ipc.o
 *fill*         0x00000000c002ace7        0x1 00000000
 .rodata.rt_sem_init.str1.4
                0x00000000c002ace8       0x21 build/kernel/src/ipc.o
 *fill*         0x00000000c002ad09        0x3 00000000
 .rodata.__lowest_bit_bitmap
                0x00000000c002ad0c      0x100 build/kernel/src/kservice.o
                0x00000000c002ad0c                __lowest_bit_bitmap
 .rodata.large_digits.8129
                0x00000000c002ae0c       0x11 build/kernel/src/kservice.o
 *fill*         0x00000000c002ae1d        0x3 00000000
 .rodata.rt_assert_handler.str1.4
                0x00000000c002ae20       0x37 build/kernel/src/kservice.o
 *fill*         0x00000000c002ae57        0x1 00000000
 .rodata.rt_console_set_device.str1.4
                0x00000000c002ae58        0x8 build/kernel/src/kservice.o
 .rodata.rt_show_version.str1.4
                0x00000000c002ae60       0x8e build/kernel/src/kservice.o
 *fill*         0x00000000c002aeee        0x2 00000000
 .rodata.rt_vsnprintf.str1.4
                0x00000000c002aef0        0x7 build/kernel/src/kservice.o
 *fill*         0x00000000c002aef7        0x1 00000000
 .rodata.small_digits.8128
                0x00000000c002aef8       0x11 build/kernel/src/kservice.o
 *fill*         0x00000000c002af09        0x3 00000000
 .rodata.__FUNCTION__.5883
                0x00000000c002af0c        0xd build/kernel/src/mempool.o
 *fill*         0x00000000c002af19        0x3 00000000
 .rodata.rt_mp_create.str1.4
                0x00000000c002af1c       0x22 build/kernel/src/mempool.o
                                         0x4e (size before relaxing)
 *fill*         0x00000000c002af3e        0x2 00000000
 .rodata.rt_mp_init.str1.4
                0x00000000c002af40       0x3f build/kernel/src/mempool.o
                                         0x4f (size before relaxing)
 *fill*         0x00000000c002af7f        0x1 00000000
 .rodata.__FUNCTION__.7930
                0x00000000c002af80        0xf build/kernel/src/object.o
 *fill*         0x00000000c002af8f        0x1 00000000
 .rodata.__FUNCTION__.7939
                0x00000000c002af90       0x11 build/kernel/src/object.o
 *fill*         0x00000000c002afa1        0x3 00000000
 .rodata.__FUNCTION__.7948
                0x00000000c002afa4       0x13 build/kernel/src/object.o
 *fill*         0x00000000c002afb7        0x1 00000000
 .rodata.__FUNCTION__.7953
                0x00000000c002afb8       0x11 build/kernel/src/object.o
 *fill*         0x00000000c002afc9        0x3 00000000
 .rodata.__FUNCTION__.7957
                0x00000000c002afcc       0x1a build/kernel/src/object.o
 *fill*         0x00000000c002afe6        0x2 00000000
 .rodata.__FUNCTION__.7961
                0x00000000c002afe8       0x13 build/kernel/src/object.o
 .rodata.rt_object_allocate.str1.4
                0x00000000c002affb       0x2a build/kernel/src/object.o
 *fill*         0x00000000c002affb        0x1 00000000
 .rodata.rt_object_delete.str1.4
                0x00000000c002affc       0x29 build/kernel/src/object.o
 *fill*         0x00000000c002b025        0x3 00000000
 .rodata.rt_object_detach.str1.4
                0x00000000c002b028       0x12 build/kernel/src/object.o
 *fill*         0x00000000c002b03a        0x2 00000000
 .rodata.rt_object_init.str1.4
                0x00000000c002b03c        0xe build/kernel/src/object.o
                                         0x26 (size before relaxing)
 *fill*         0x00000000c002b04a        0x2 00000000
 .rodata.__FUNCTION__.5897
                0x00000000c002b04c       0x1a build/kernel/src/scheduler.o
 *fill*         0x00000000c002b066        0x2 00000000
 .rodata.__FUNCTION__.5903
                0x00000000c002b068       0x1a build/kernel/src/scheduler.o
 *fill*         0x00000000c002b082        0x2 00000000
 .rodata.rt_schedule.str1.4
                0x00000000c002b084       0x51 build/kernel/src/scheduler.o
 *fill*         0x00000000c002b0d5        0x3 00000000
 .rodata.rt_system_scheduler_start.str1.4
                0x00000000c002b0d8       0x12 build/kernel/src/scheduler.o
 *fill*         0x00000000c002b0ea        0x2 00000000
 .rodata.__FUNCTION__.6115
                0x00000000c002b0ec       0x16 build/kernel/src/signal.o
 .rodata.rt_signal_wait.str1.4
                0x00000000c002b102       0x63 build/kernel/src/signal.o
 *fill*         0x00000000c002b102        0x2 00000000
 .rodata.rt_system_signal_init.str1.4
                0x00000000c002b104       0x33 build/kernel/src/signal.o
 *fill*         0x00000000c002b137        0x1 00000000
 .rodata.rt_thread_kill.str1.4
                0x00000000c002b138       0x37 build/kernel/src/signal.o
                                         0x4a (size before relaxing)
 *fill*         0x00000000c002b16f        0x1 00000000
 .rodata.__FUNCTION__.5901
                0x00000000c002b170        0xd build/kernel/src/slab.o
 *fill*         0x00000000c002b17d        0x3 00000000
 .rodata.__FUNCTION__.5910
                0x00000000c002b180        0xd build/kernel/src/slab.o
 *fill*         0x00000000c002b18d        0x3 00000000
 .rodata.__FUNCTION__.5918
                0x00000000c002b190       0x14 build/kernel/src/slab.o
 .rodata.__FUNCTION__.5934
                0x00000000c002b1a4        0xa build/kernel/src/slab.o
 *fill*         0x00000000c002b1ae        0x2 00000000
 .rodata.__FUNCTION__.5948
                0x00000000c002b1b0        0xb build/kernel/src/slab.o
 *fill*         0x00000000c002b1bb        0x1 00000000
 .rodata.__FUNCTION__.5961
                0x00000000c002b1bc        0x8 build/kernel/src/slab.o
 .rodata.list_mem.str1.4
                0x00000000c002b1c4       0x46 build/kernel/src/slab.o
 *fill*         0x00000000c002b20a        0x2 00000000
 .rodata.name   0x00000000c002b20c       0x29 build/kernel/src/slab.o
                0x00000000c002b20c                __fsym_list_mem_desc
                0x00000000c002b22c                __fsym_list_mem_name
 *fill*         0x00000000c002b235        0x3 00000000
 .rodata.rt_free.str1.4
                0x00000000c002b238       0x20 build/kernel/src/slab.o
 .rodata.rt_malloc.str1.4
                0x00000000c002b258       0x2b build/kernel/src/slab.o
 *fill*         0x00000000c002b283        0x1 00000000
 .rodata.rt_page_free.str1.4
                0x00000000c002b284       0x6a build/kernel/src/slab.o
 *fill*         0x00000000c002b2ee        0x2 00000000
 .rodata.rt_system_heap_init.str1.4
                0x00000000c002b2f0       0x39 build/kernel/src/slab.o
                                         0x65 (size before relaxing)
 *fill*         0x00000000c002b329        0x3 00000000
 .rodata.__FUNCTION__.5870
                0x00000000c002b32c       0x10 build/kernel/src/thread.o
 .rodata.__FUNCTION__.5882
                0x00000000c002b33c        0xf build/kernel/src/thread.o
 *fill*         0x00000000c002b34b        0x1 00000000
 .rodata.__FUNCTION__.5891
                0x00000000c002b34c       0x12 build/kernel/src/thread.o
 *fill*         0x00000000c002b35e        0x2 00000000
 .rodata.__FUNCTION__.5896
                0x00000000c002b360       0x11 build/kernel/src/thread.o
 *fill*         0x00000000c002b371        0x3 00000000
 .rodata.__FUNCTION__.5912
                0x00000000c002b374       0x11 build/kernel/src/thread.o
 *fill*         0x00000000c002b385        0x3 00000000
 .rodata.__FUNCTION__.5923
                0x00000000c002b388       0x10 build/kernel/src/thread.o
 .rodata.__FUNCTION__.5944
                0x00000000c002b398       0x12 build/kernel/src/thread.o
 *fill*         0x00000000c002b3aa        0x2 00000000
 .rodata.__FUNCTION__.5958
                0x00000000c002b3ac       0x1c build/kernel/src/thread.o
 .rodata.__FUNCTION__.5970
                0x00000000c002b3c8       0x1c build/kernel/src/thread.o
 .rodata.__FUNCTION__.5978
                0x00000000c002b3e4       0x11 build/kernel/src/thread.o
 *fill*         0x00000000c002b3f5        0x3 00000000
 .rodata.__FUNCTION__.5984
                0x00000000c002b3f8       0x11 build/kernel/src/thread.o
 *fill*         0x00000000c002b409        0x3 00000000
 .rodata.__FUNCTION__.5991
                0x00000000c002b40c       0x15 build/kernel/src/thread.o
 *fill*         0x00000000c002b421        0x3 00000000
 .rodata.__FUNCTION__.5996
                0x00000000c002b424       0x12 build/kernel/src/thread.o
 *fill*         0x00000000c002b436        0x2 00000000
 .rodata.__FUNCTION__.6003
                0x00000000c002b438        0xf build/kernel/src/thread.o
 *fill*         0x00000000c002b447        0x1 00000000
 .rodata.rt_thread_delete.str1.4
                0x00000000c002b448       0x3b build/kernel/src/thread.o
 *fill*         0x00000000c002b483        0x1 00000000
 .rodata.rt_thread_detach.str1.4
                0x00000000c002b484       0x2f build/kernel/src/thread.o
 .rodata.rt_thread_find.str1.4
                0x00000000c002b4b3       0x17 build/kernel/src/thread.o
 *fill*         0x00000000c002b4b3        0x1 00000000
 .rodata.rt_thread_init.str1.4
                0x00000000c002b4b4       0x3a build/kernel/src/thread.o
 *fill*         0x00000000c002b4ee        0x2 00000000
 .rodata.rt_thread_sleep.str1.4
                0x00000000c002b4f0       0x1b build/kernel/src/thread.o
 *fill*         0x00000000c002b50b        0x1 00000000
 .rodata.rt_thread_startup.str1.4
                0x00000000c002b50c       0x37 build/kernel/src/thread.o
 .rodata.rt_thread_suspend_with_flag.str1.4
                0x00000000c002b543        0x2 build/kernel/src/thread.o
 *fill*         0x00000000c002b543        0x1 00000000
 .rodata.rt_thread_timeout.str1.4
                0x00000000c002b544       0x86 build/kernel/src/thread.o
                                         0x9a (size before relaxing)
 *fill*         0x00000000c002b5ca        0x2 00000000
 .rodata.__FUNCTION__.5891
                0x00000000c002b5cc        0xe build/kernel/src/timer.o
 *fill*         0x00000000c002b5da        0x2 00000000
 .rodata.__FUNCTION__.5896
                0x00000000c002b5dc       0x10 build/kernel/src/timer.o
 .rodata.__FUNCTION__.5910
                0x00000000c002b5ec       0x10 build/kernel/src/timer.o
 .rodata.__FUNCTION__.5920
                0x00000000c002b5fc        0xf build/kernel/src/timer.o
 *fill*         0x00000000c002b60b        0x1 00000000
 .rodata.__FUNCTION__.5937
                0x00000000c002b60c        0xe build/kernel/src/timer.o
 *fill*         0x00000000c002b61a        0x2 00000000
 .rodata.__FUNCTION__.5944
                0x00000000c002b61c       0x11 build/kernel/src/timer.o
 .rodata.rt_system_timer_thread_init.str1.4
                0x00000000c002b62d        0x6 build/kernel/src/timer.o
 *fill*         0x00000000c002b62d        0x3 00000000
 .rodata.rt_timer_delete.str1.4
                0x00000000c002b630       0x36 build/kernel/src/timer.o
 *fill*         0x00000000c002b666        0x2 00000000
 .rodata.rt_timer_detach.str1.4
                0x00000000c002b668       0x66 build/kernel/src/timer.o
 *fill*         0x00000000c002b6ce        0x2 00000000
 .rodata.rt_timer_init.str1.4
                0x00000000c002b6d0       0x11 build/kernel/src/timer.o
 *fill*         0x00000000c002b6e1        0x3 00000000
 .rodata.rt_timer_start.str1.4
                0x00000000c002b6e4       0x23 build/kernel/src/timer.o
 *fill*         0x00000000c002b707        0x1 00000000
 .rodata.__FUNCTION__.8454
                0x00000000c002b708        0x9 build/kernel/components/lwp/lwp.o
 *fill*         0x00000000c002b711        0x3 00000000
 .rodata.elf_magic
                0x00000000c002b714        0x4 build/kernel/components/lwp/lwp.o
 .rodata.load_fread.constprop.2.str1.4
                0x00000000c002b718       0x24 build/kernel/components/lwp/lwp.o
                                         0x26 (size before relaxing)
 .rodata.lwp_execve.str1.4
                0x00000000c002b73c       0x1b build/kernel/components/lwp/lwp.o
 *fill*         0x00000000c002b757        0x1 00000000
 .rodata.lwp_load.str1.4
                0x00000000c002b758       0xca build/kernel/components/lwp/lwp.o
 *fill*         0x00000000c002b822        0x2 00000000
 .rodata.__FUNCTION__.7880
                0x00000000c002b824       0x12 build/kernel/components/lwp/lwp_console.o
 *fill*         0x00000000c002b836        0x2 00000000
 .rodata.__FUNCTION__.7915
                0x00000000c002b838       0x15 build/kernel/components/lwp/lwp_console.o
 *fill*         0x00000000c002b84d        0x3 00000000
 .rodata.__FUNCTION__.7923
                0x00000000c002b850       0x12 build/kernel/components/lwp/lwp_console.o
 *fill*         0x00000000c002b862        0x2 00000000
 .rodata.__FUNCTION__.7929
                0x00000000c002b864       0x13 build/kernel/components/lwp/lwp_console.o
 *fill*         0x00000000c002b877        0x1 00000000
 .rodata.__FUNCTION__.7941
                0x00000000c002b878       0x12 build/kernel/components/lwp/lwp_console.o
 *fill*         0x00000000c002b88a        0x2 00000000
 .rodata.__FUNCTION__.7952
                0x00000000c002b88c       0x13 build/kernel/components/lwp/lwp_console.o
 *fill*         0x00000000c002b89f        0x1 00000000
 .rodata.__FUNCTION__.7963
                0x00000000c002b8a0       0x12 build/kernel/components/lwp/lwp_console.o
 *fill*         0x00000000c002b8b2        0x2 00000000
 .rodata.__FUNCTION__.7972
                0x00000000c002b8b4       0x10 build/kernel/components/lwp/lwp_console.o
 .rodata.__FUNCTION__.7980
                0x00000000c002b8c4       0x10 build/kernel/components/lwp/lwp_console.o
 .rodata.__FUNCTION__.7986
                0x00000000c002b8d4       0x11 build/kernel/components/lwp/lwp_console.o
 *fill*         0x00000000c002b8e5        0x3 00000000
 .rodata.__FUNCTION__.7997
                0x00000000c002b8e8       0x10 build/kernel/components/lwp/lwp_console.o
 .rodata.__FUNCTION__.8007
                0x00000000c002b8f8       0x11 build/kernel/components/lwp/lwp_console.o
 *fill*         0x00000000c002b909        0x3 00000000
 .rodata.__FUNCTION__.8017
                0x00000000c002b90c       0x14 build/kernel/components/lwp/lwp_console.o
 .rodata._console_fops
                0x00000000c002b920       0x24 build/kernel/components/lwp/lwp_console.o
 .rodata.console_fops_close.str1.4
                0x00000000c002b944       0x12 build/kernel/components/lwp/lwp_console.o
 *fill*         0x00000000c002b956        0x2 00000000
 .rodata.console_fops_poll.str1.4
                0x00000000c002b958       0x2f build/kernel/components/lwp/lwp_console.o
 *fill*         0x00000000c002b987        0x1 00000000
 .rodata.console_ops
                0x00000000c002b988       0x18 build/kernel/components/lwp/lwp_console.o
 .rodata.rt_console_init.str1.4
                0x00000000c002b9a0       0x2e build/kernel/components/lwp/lwp_console.o
 .rodata.rt_console_open.str1.4
                0x00000000c002b9ce        0xf build/kernel/components/lwp/lwp_console.o
 *fill*         0x00000000c002b9ce        0x2 00000000
 .rodata.rt_console_register.str1.4
                0x00000000c002b9d0       0x2d build/kernel/components/lwp/lwp_console.o
 *fill*         0x00000000c002b9fd        0x3 00000000
 .rodata.rt_console_set_iodev.str1.4
                0x00000000c002ba00       0x52 build/kernel/components/lwp/lwp_console.o
 *fill*         0x00000000c002ba52        0x2 00000000
 .rodata.rt_console_write.str1.4
                0x00000000c002ba54       0x13 build/kernel/components/lwp/lwp_console.o
 *fill*         0x00000000c002ba67        0x1 00000000
 .rodata.futex_create.str1.4
                0x00000000c002ba68        0x6 build/kernel/components/lwp/lwp_futex.o
 *fill*         0x00000000c002ba6e        0x2 00000000
 .rodata.futex_system_init.str1.4
                0x00000000c002ba70        0xa build/kernel/components/lwp/lwp_futex.o
 *fill*         0x00000000c002ba7a        0x2 00000000
 .rodata.__FUNCTION__.7926
                0x00000000c002ba7c       0x14 build/kernel/components/lwp/lwp_ipc.o
 .rodata.__FUNCTION__.7937
                0x00000000c002ba90       0x15 build/kernel/components/lwp/lwp_ipc.o
 *fill*         0x00000000c002baa5        0x3 00000000
 .rodata.__FUNCTION__.7953
                0x00000000c002baa8       0x19 build/kernel/components/lwp/lwp_ipc.o
 *fill*         0x00000000c002bac1        0x3 00000000
 .rodata.__FUNCTION__.7979
                0x00000000c002bac4       0x22 build/kernel/components/lwp/lwp_ipc.o
 *fill*         0x00000000c002bae6        0x2 00000000
 .rodata.__FUNCTION__.8030
                0x00000000c002bae8       0x1d build/kernel/components/lwp/lwp_ipc.o
 *fill*         0x00000000c002bb05        0x3 00000000
 .rodata.__FUNCTION__.8177
                0x00000000c002bb08        0xd build/kernel/components/lwp/lwp_ipc.o
 *fill*         0x00000000c002bb15        0x3 00000000
 .rodata.channel_fops
                0x00000000c002bb18       0x24 build/kernel/components/lwp/lwp_ipc.o
 .rodata.list_channel.str1.4
                0x00000000c002bb3c       0x2a build/kernel/components/lwp/lwp_ipc.o
                                         0x49 (size before relaxing)
 *fill*         0x00000000c002bb66        0x2 00000000
 .rodata.name   0x00000000c002bb68       0x33 build/kernel/components/lwp/lwp_ipc.o
                0x00000000c002bb68                __fsym___cmd_list_channel_desc
                0x00000000c002bb88                __fsym___cmd_list_channel_name
 .rodata.rt_raw_channel_open.str1.4
                0x00000000c002bb9b       0x2a build/kernel/components/lwp/lwp_ipc.o
 *fill*         0x00000000c002bb9b        0x1 00000000
 .rodata.rt_raw_channel_recv.str1.4
                0x00000000c002bb9c       0x29 build/kernel/components/lwp/lwp_ipc.o
 *fill*         0x00000000c002bbc5        0x3 00000000
 .rodata.rt_raw_channel_send.str1.4
                0x00000000c002bbc8       0x3d build/kernel/components/lwp/lwp_ipc.o
 *fill*         0x00000000c002bc05        0x3 00000000
 .rodata.rt_raw_channel_send_recv.str1.4
                0x00000000c002bc08       0x14 build/kernel/components/lwp/lwp_ipc.o
 .rodata.str1.4
                0x00000000c002bc1c       0x17 build/kernel/components/lwp/lwp_ipc.o
 *fill*         0x00000000c002bc33        0x1 00000000
 .rodata.wakeup_sender_wait_reply.str1.4
                0x00000000c002bc34       0x36 build/kernel/components/lwp/lwp_ipc.o
 *fill*         0x00000000c002bc6a        0x2 00000000
 .rodata.__FUNCTION__.7970
                0x00000000c002bc6c        0xc build/kernel/components/lwp/lwp_pid.o
 .rodata.__FUNCTION__.8007
                0x00000000c002bc78       0x15 build/kernel/components/lwp/lwp_pid.o
 *fill*         0x00000000c002bc8d        0x3 00000000
 .rodata.__FUNCTION__.8128
                0x00000000c002bc90        0x8 build/kernel/components/lwp/lwp_pid.o
 .rodata.cmd_kill.str1.4
                0x00000000c002bc98       0x20 build/kernel/components/lwp/lwp_pid.o
 .rodata.cmd_killall.str1.4
                0x00000000c002bcb8       0x18 build/kernel/components/lwp/lwp_pid.o
 .rodata.list_process.str1.4
                0x00000000c002bcd0      0x134 build/kernel/components/lwp/lwp_pid.o
                                        0x138 (size before relaxing)
 .rodata.lwp_free.part.3.str1.4
                0x00000000c002be04       0x2c build/kernel/components/lwp/lwp_pid.o
                                         0x2e (size before relaxing)
 .rodata.lwp_new.str1.4
                0x00000000c002be30       0x43 build/kernel/components/lwp/lwp_pid.o
 .rodata.lwp_user_object_lock.str1.4
                0x00000000c002be73        0x2 build/kernel/components/lwp/lwp_pid.o
 *fill*         0x00000000c002be73        0x1 00000000
 .rodata.lwp_user_object_lock_init.str1.4
                0x00000000c002be74        0x8 build/kernel/components/lwp/lwp_pid.o
 .rodata.name   0x00000000c002be7c       0x73 build/kernel/components/lwp/lwp_pid.o
                0x00000000c002be7c                __fsym___cmd_killall_desc
                0x00000000c002be94                __fsym___cmd_killall_name
                0x00000000c002bea4                __fsym___cmd_kill_desc
                0x00000000c002bec0                __fsym___cmd_kill_name
                0x00000000c002becc                __fsym___cmd_list_process_desc
                0x00000000c002bedc                __fsym___cmd_list_process_name
 *fill*         0x00000000c002beef        0x1 00000000
 .rodata.waitpid.str1.4
                0x00000000c002bef0       0x15 build/kernel/components/lwp/lwp_pid.o
 *fill*         0x00000000c002bf05        0x3 00000000
 .rodata.pmutex_system_init.str1.4
                0x00000000c002bf08        0x9 build/kernel/components/lwp/lwp_pmutex.o
 *fill*         0x00000000c002bf11        0x3 00000000
 .rodata.sys_pmutex.str1.4
                0x00000000c002bf14        0x7 build/kernel/components/lwp/lwp_pmutex.o
 *fill*         0x00000000c002bf1b        0x1 00000000
 .rodata._shm_info.str1.4
                0x00000000c002bf1c       0x1a build/kernel/components/lwp/lwp_shm.o
 *fill*         0x00000000c002bf36        0x2 00000000
 .rodata.list_shm.str1.4
                0x00000000c002bf38       0x53 build/kernel/components/lwp/lwp_shm.o
 *fill*         0x00000000c002bf8b        0x1 00000000
 .rodata.name   0x00000000c002bf8c       0x27 build/kernel/components/lwp/lwp_shm.o
                0x00000000c002bf8c                __fsym___cmd_list_shm_desc
                0x00000000c002bfa4                __fsym___cmd_list_shm_name
 *fill*         0x00000000c002bfb3        0x1 00000000
 .rodata.__FUNCTION__.7903
                0x00000000c002bfb4       0x15 build/kernel/components/lwp/lwp_signal.o
 *fill*         0x00000000c002bfc9        0x3 00000000
 .rodata.__FUNCTION__.7921
                0x00000000c002bfcc       0x12 build/kernel/components/lwp/lwp_signal.o
 *fill*         0x00000000c002bfde        0x2 00000000
 .rodata.__FUNCTION__.7929
                0x00000000c002bfe0       0x13 build/kernel/components/lwp/lwp_signal.o
 *fill*         0x00000000c002bff3        0x1 00000000
 .rodata.lwp_signal_backup.str1.4
                0x00000000c002bff4        0xc build/kernel/components/lwp/lwp_signal.o
 .rodata.lwp_signal_restore.str1.4
                0x00000000c002c000       0x1c build/kernel/components/lwp/lwp_signal.o
 .rodata.lwp_suspend_sigcheck.str1.4
                0x00000000c002c01c        0x2 build/kernel/components/lwp/lwp_signal.o
 .rodata.critical_init.str1.4
                0x00000000c002c01c        0x8 build/kernel/components/lwp/lwp_syscall.o
 .rodata.func_table
                0x00000000c002c024      0x238 build/kernel/components/lwp/lwp_syscall.o
 .rodata.load_ldso.str1.4
                0x00000000c002c25c       0x17 build/kernel/components/lwp/lwp_syscall.o
 *fill*         0x00000000c002c273        0x1 00000000
 .rodata.name   0x00000000c002c274       0x2e build/kernel/components/lwp/lwp_syscall.o
                0x00000000c002c274                __fsym___cmd_sys_log_desc
                0x00000000c002c294                __fsym___cmd_sys_log_name
 *fill*         0x00000000c002c2a2        0x2 00000000
 .rodata.sys_clock_settime.str1.4
                0x00000000c002c2a4        0x4 build/kernel/components/lwp/lwp_syscall.o
 .rodata.sys_log_enable.str1.4
                0x00000000c002c2a8        0xe build/kernel/components/lwp/lwp_syscall.o
 *fill*         0x00000000c002c2b6        0x2 00000000
 .rodata.__FUNCTION__.7948
                0x00000000c002c2b8        0xc build/kernel/components/lwp/lwp_tid.o
 .rodata.lwp_tid_get.str1.4
                0x00000000c002c2c4       0x13 build/kernel/components/lwp/lwp_tid.o
 .rodata.__FUNCTION__.7973
                0x00000000c002c2c4       0x15 build/kernel/components/lwp/lwp_user_mm.o
 *fill*         0x00000000c002c2d9        0x3 00000000
 .rodata.__FUNCTION__.7999
                0x00000000c002c2dc        0xf build/kernel/components/lwp/lwp_user_mm.o
 *fill*         0x00000000c002c2eb        0x1 00000000
 .rodata.__FUNCTION__.8021
                0x00000000c002c2ec        0xd build/kernel/components/lwp/lwp_user_mm.o
 .rodata.lwp_dup_user.str1.4
                0x00000000c002c2f9        0x2 build/kernel/components/lwp/lwp_user_mm.o
 *fill*         0x00000000c002c2f9        0x3 00000000
 .rodata.lwp_unmap_user_space.str1.4
                0x00000000c002c2fc       0x1f build/kernel/components/lwp/lwp_user_mm.o
 *fill*         0x00000000c002c31b        0x1 00000000
 .rodata.__FUNCTION__.7316
                0x00000000c002c31c       0x16 build/kernel/components/finsh/shell.o
 *fill*         0x00000000c002c332        0x2 00000000
 .rodata.finsh_get_prompt.str1.4
                0x00000000c002c334        0x5 build/kernel/components/finsh/shell.o
                                          0xa (size before relaxing)
 *fill*         0x00000000c002c339        0x3 00000000
 .rodata.finsh_system_init.str1.4
                0x00000000c002c33c       0x39 build/kernel/components/finsh/shell.o
 *fill*         0x00000000c002c375        0x3 00000000
 .rodata.finsh_thread_entry.str1.4
                0x00000000c002c378       0x27 build/kernel/components/finsh/shell.o
                                         0x2b (size before relaxing)
 *fill*         0x00000000c002c39f        0x1 00000000
 .rodata.clear.str1.4
                0x00000000c002c3a0        0x8 build/kernel/components/finsh/cmd.o
 .rodata.device_type_str
                0x00000000c002c3a8       0x5c build/kernel/components/finsh/cmd.o
 .rodata.hello.str1.4
                0x00000000c002c404       0x12 build/kernel/components/finsh/cmd.o
 *fill*         0x00000000c002c416        0x2 00000000
 .rodata.list.str1.4
                0x00000000c002c418       0x25 build/kernel/components/finsh/cmd.o
 *fill*         0x00000000c002c43d        0x3 00000000
 .rodata.list_device.str1.4
                0x00000000c002c440       0x6f build/kernel/components/finsh/cmd.o
 *fill*         0x00000000c002c4af        0x1 00000000
 .rodata.list_event.str1.4
                0x00000000c002c4b0       0x82 build/kernel/components/finsh/cmd.o
                                         0x86 (size before relaxing)
 *fill*         0x00000000c002c532        0x2 00000000
 .rodata.list_mailbox.str1.4
                0x00000000c002c534       0x76 build/kernel/components/finsh/cmd.o
 *fill*         0x00000000c002c5aa        0x2 00000000
 .rodata.list_memheap.str1.4
                0x00000000c002c5ac       0x80 build/kernel/components/finsh/cmd.o
 .rodata.list_mempool.str1.4
                0x00000000c002c62c       0x8c build/kernel/components/finsh/cmd.o
 .rodata.list_msgqueue.str1.4
                0x00000000c002c6b8       0x65 build/kernel/components/finsh/cmd.o
 *fill*         0x00000000c002c71d        0x3 00000000
 .rodata.list_mutex.str1.4
                0x00000000c002c720       0x63 build/kernel/components/finsh/cmd.o
 *fill*         0x00000000c002c783        0x1 00000000
 .rodata.list_sem.str1.4
                0x00000000c002c784       0x60 build/kernel/components/finsh/cmd.o
 .rodata.list_thread.str1.4
                0x00000000c002c7e4       0x3d build/kernel/components/finsh/cmd.o
                                         0xfc (size before relaxing)
 *fill*         0x00000000c002c821        0x3 00000000
 .rodata.list_timer.str1.4
                0x00000000c002c824       0x95 build/kernel/components/finsh/cmd.o
                                         0x9d (size before relaxing)
 *fill*         0x00000000c002c8b9        0x3 00000000
 .rodata.name   0x00000000c002c8bc      0x280 build/kernel/components/finsh/cmd.o
                0x00000000c002c8bc                __fsym___cmd_top_desc
                0x00000000c002c8d4                __fsym___cmd_top_name
                0x00000000c002c8e0                __fsym___cmd_list_desc
                0x00000000c002c8fc                __fsym___cmd_list_name
                0x00000000c002c908                __fsym___cmd_list_device_desc
                0x00000000c002c920                __fsym___cmd_list_device_name
                0x00000000c002c934                __fsym___cmd_list_timer_desc
                0x00000000c002c94c                __fsym___cmd_list_timer_name
                0x00000000c002c960                __fsym___cmd_list_mempool_desc
                0x00000000c002c97c                __fsym___cmd_list_mempool_name
                0x00000000c002c990                __fsym___cmd_list_memheap_desc
                0x00000000c002c9ac                __fsym___cmd_list_memheap_name
                0x00000000c002c9c0                __fsym___cmd_list_msgqueue_desc
                0x00000000c002c9e0                __fsym___cmd_list_msgqueue_name
                0x00000000c002c9f4                __fsym___cmd_list_mailbox_desc
                0x00000000c002ca0c                __fsym___cmd_list_mailbox_name
                0x00000000c002ca20                __fsym___cmd_list_mutex_desc
                0x00000000c002ca38                __fsym___cmd_list_mutex_name
                0x00000000c002ca4c                __fsym___cmd_list_event_desc
                0x00000000c002ca64                __fsym___cmd_list_event_name
                0x00000000c002ca78                __fsym___cmd_list_sem_desc
                0x00000000c002ca94                __fsym___cmd_list_sem_name
                0x00000000c002caa4                __fsym___cmd_list_thread_desc
                0x00000000c002cab0                __fsym___cmd_list_thread_name
                0x00000000c002cac4                __fsym___cmd_version_desc
                0x00000000c002cae8                __fsym___cmd_version_name
                0x00000000c002caf8                __fsym___cmd_clear_desc
                0x00000000c002cb14                __fsym___cmd_clear_name
                0x00000000c002cb20                __fsym___cmd_hello_desc
                0x00000000c002cb30                __fsym___cmd_hello_name
 .rodata.str1.4
                0x00000000c002cb3c      0x13f build/kernel/components/finsh/cmd.o
 *fill*         0x00000000c002cc7b        0x1 00000000
 .rodata.top.str1.4
                0x00000000c002cc7c       0xb4 build/kernel/components/finsh/cmd.o
                                         0xb8 (size before relaxing)
 .rodata.msh_auto_complete_path.part.1.str1.4
                0x00000000c002cd30       0xb4 build/kernel/components/finsh/msh.o
                                          0x8 (size before relaxing)
 .rodata.msh_exec.str1.4
                0x00000000c002cd30       0x34 build/kernel/components/finsh/msh.o
                                         0x38 (size before relaxing)
 .rodata.msh_exec_script.str1.4
                0x00000000c002cd64       0x12 build/kernel/components/finsh/msh.o
 *fill*         0x00000000c002cd76        0x2 00000000
 .rodata.msh_help.str1.4
                0x00000000c002cd78       0x30 build/kernel/components/finsh/msh.o
 .rodata.msh_split.str1.4
                0x00000000c002cda8       0x24 build/kernel/components/finsh/msh.o
                                         0x26 (size before relaxing)
 .rodata.name   0x00000000c002cdcc       0x7f build/kernel/components/finsh/msh.o
                0x00000000c002cdcc                __fsym___cmd_free_desc
                0x00000000c002cdf4                __fsym___cmd_free_name
                0x00000000c002ce00                __fsym___cmd_ps_desc
                0x00000000c002ce1c                __fsym___cmd_ps_name
                0x00000000c002ce28                __fsym___cmd_help_desc
                0x00000000c002ce40                __fsym___cmd_help_name
 *fill*         0x00000000c002ce4b        0x1 00000000
 .rodata.cmd_cat.str1.4
                0x00000000c002ce4c       0x2d build/kernel/components/finsh/msh_file.o
 *fill*         0x00000000c002ce79        0x3 00000000
 .rodata.cmd_cd.str1.4
                0x00000000c002ce7c       0x17 build/kernel/components/finsh/msh_file.o
 *fill*         0x00000000c002ce93        0x1 00000000
 .rodata.cmd_cp.str1.4
                0x00000000c002ce94       0x2e build/kernel/components/finsh/msh_file.o
 *fill*         0x00000000c002cec2        0x2 00000000
 .rodata.cmd_df.str1.4
                0x00000000c002cec4       0x17 build/kernel/components/finsh/msh_file.o
                                         0x1b (size before relaxing)
 *fill*         0x00000000c002cedb        0x1 00000000
 .rodata.cmd_echo.str1.4
                0x00000000c002cedc       0x39 build/kernel/components/finsh/msh_file.o
 *fill*         0x00000000c002cf15        0x3 00000000
 .rodata.cmd_mkdir.str1.4
                0x00000000c002cf18       0x59 build/kernel/components/finsh/msh_file.o
 *fill*         0x00000000c002cf71        0x3 00000000
 .rodata.cmd_mkfs.str1.4
                0x00000000c002cf74       0x40 build/kernel/components/finsh/msh_file.o
 .rodata.cmd_mv.str1.4
                0x00000000c002cfb4       0x6b build/kernel/components/finsh/msh_file.o
 .rodata.cmd_pwd.str1.4
                0x00000000c002d01f        0x4 build/kernel/components/finsh/msh_file.o
 *fill*         0x00000000c002d01f        0x1 00000000
 .rodata.cmd_rm.str1.4
                0x00000000c002d020       0xab build/kernel/components/finsh/msh_file.o
 *fill*         0x00000000c002d0cb        0x1 00000000
 .rodata.msh_deltree.str1.4
                0x00000000c002d0cc       0x48 build/kernel/components/finsh/msh_file.o
                                         0x4c (size before relaxing)
 .rodata.name   0x00000000c002d114      0x1b5 build/kernel/components/finsh/msh_file.o
                0x00000000c002d114                __fsym___cmd_echo_desc
                0x00000000c002d128                __fsym___cmd_echo_name
                0x00000000c002d134                __fsym___cmd_df_desc
                0x00000000c002d140                __fsym___cmd_df_name
                0x00000000c002d14c                __fsym___cmd_mkfs_desc
                0x00000000c002d16c                __fsym___cmd_mkfs_name
                0x00000000c002d178                __fsym___cmd_mkdir_desc
                0x00000000c002d190                __fsym___cmd_mkdir_name
                0x00000000c002d19c                __fsym___cmd_pwd_desc
                0x00000000c002d1d0                __fsym___cmd_pwd_name
                0x00000000c002d1dc                __fsym___cmd_cd_desc
                0x00000000c002d200                __fsym___cmd_cd_name
                0x00000000c002d20c                __fsym___cmd_rm_desc
                0x00000000c002d228                __fsym___cmd_rm_name
                0x00000000c002d234                __fsym___cmd_cat_desc
                0x00000000c002d248                __fsym___cmd_cat_name
                0x00000000c002d254                __fsym___cmd_mv_desc
                0x00000000c002d26c                __fsym___cmd_mv_name
                0x00000000c002d278                __fsym___cmd_cp_desc
                0x00000000c002d290                __fsym___cmd_cp_name
                0x00000000c002d29c                __fsym___cmd_ls_desc
                0x00000000c002d2c0                __fsym___cmd_ls_name
 *fill*         0x00000000c002d2c9        0x3 00000000
 .rodata.__FUNCTION__.6207
                0x00000000c002d2cc       0x13 build/kernel/components/libc/time/clock_time.o
 .rodata.clock_time_system_init.str1.4
                0x00000000c002d2df        0x4 build/kernel/components/libc/time/clock_time.o
 *fill*         0x00000000c002d2df        0x1 00000000
 .rodata.clock_time_to_tick.str1.4
                0x00000000c002d2e0       0x10 build/kernel/components/libc/time/clock_time.o
 .rodata.__FUNCTION__.7351
                0x00000000c002d2f0       0x10 build/kernel/components/libc/aio/posix_aio.o
 .rodata.aio_system_init.str1.4
                0x00000000c002d300       0x16 build/kernel/components/libc/aio/posix_aio.o
 *fill*         0x00000000c002d316        0x2 00000000
 .rodata.env_set.str1.4
                0x00000000c002d318        0xf build/kernel/components/libc/compilers/musl/libc.o
 *fill*         0x00000000c002d327        0x1 00000000
 .rodata.libc_system_init.str1.4
                0x00000000c002d328       0x17 build/kernel/components/libc/compilers/musl/libc.o
 *fill*         0x00000000c002d33f        0x1 00000000
 .rodata.name   0x00000000c002d340       0x2e build/kernel/components/libc/compilers/musl/libc.o
                0x00000000c002d340                __fsym___cmd_set_desc
                0x00000000c002d364                __fsym___cmd_set_name
 *fill*         0x00000000c002d36e        0x2 00000000
 .rodata.libc_stdio_set_console.str1.4
                0x00000000c002d370       0x14 build/kernel/components/libc/compilers/musl/stdio.o
 .rodata.__FUNCTION__.7880
                0x00000000c002d384        0x9 build/kernel/components/dfs/src/dfs.o
 *fill*         0x00000000c002d38d        0x3 00000000
 .rodata.__FUNCTION__.7888
                0x00000000c002d390        0xc build/kernel/components/dfs/src/dfs.o
 .rodata.__FUNCTION__.7941
                0x00000000c002d39c        0xf build/kernel/components/dfs/src/dfs.o
 *fill*         0x00000000c002d3ab        0x1 00000000
 .rodata.__FUNCTION__.7997
                0x00000000c002d3ac       0x13 build/kernel/components/dfs/src/dfs.o
 *fill*         0x00000000c002d3bf        0x1 00000000
 .rodata.dfs_init.str1.4
                0x00000000c002d3c0       0x31 build/kernel/components/dfs/src/dfs.o
 .rodata.dfs_lock.str1.4
                0x00000000c002d3f1        0x2 build/kernel/components/dfs/src/dfs.o
 *fill*         0x00000000c002d3f1        0x3 00000000
 .rodata.dfs_normalize_path.str1.4
                0x00000000c002d3f4       0x11 build/kernel/components/dfs/src/dfs.o
                                         0x1a (size before relaxing)
 *fill*         0x00000000c002d405        0x3 00000000
 .rodata.fdt_fd_new.str1.4
                0x00000000c002d408       0x45 build/kernel/components/dfs/src/dfs.o
 *fill*         0x00000000c002d44d        0x3 00000000
 .rodata.fdt_fd_release.str1.4
                0x00000000c002d450       0x2b build/kernel/components/dfs/src/dfs.o
 *fill*         0x00000000c002d47b        0x1 00000000
 .rodata.list_fd.str1.4
                0x00000000c002d47c       0x87 build/kernel/components/dfs/src/dfs.o
                                         0x96 (size before relaxing)
 *fill*         0x00000000c002d503        0x1 00000000
 .rodata.lsof.str1.4
                0x00000000c002d504       0x45 build/kernel/components/dfs/src/dfs.o
 *fill*         0x00000000c002d549        0x3 00000000
 .rodata.lsofp.str1.4
                0x00000000c002d54c       0x9d build/kernel/components/dfs/src/dfs.o
 *fill*         0x00000000c002d5e9        0x3 00000000
 .rodata.mount.str1.4
                0x00000000c002d5ec       0xa6 build/kernel/components/dfs/src/dfs.o
 *fill*         0x00000000c002d692        0x2 00000000
 .rodata.name   0x00000000c002d694       0x9a build/kernel/components/dfs/src/dfs.o
                0x00000000c002d694                __fsym___cmd_unmount_desc
                0x00000000c002d6ac                __fsym___cmd_unmount_name
                0x00000000c002d6bc                __fsym___cmd_mount_desc
                0x00000000c002d6e0                __fsym___cmd_mount_name
                0x00000000c002d6ec                __fsym___cmd_lsof_desc
                0x00000000c002d6fc                __fsym___cmd_lsof_name
                0x00000000c002d708                __fsym___cmd_list_fd_desc
                0x00000000c002d720                __fsym___cmd_list_fd_name
 *fill*         0x00000000c002d72e        0x2 00000000
 .rodata.unmount.str1.4
                0x00000000c002d730       0x46 build/kernel/components/dfs/src/dfs.o
 *fill*         0x00000000c002d776        0x2 00000000
 .rodata.cat.str1.4
                0x00000000c002d778       0x10 build/kernel/components/dfs/src/dfs_file.o
                                         0x13 (size before relaxing)
 .rodata.copy.str1.4
                0x00000000c002d788       0x44 build/kernel/components/dfs/src/dfs_file.o
 .rodata.copydir.str1.4
                0x00000000c002d7cc       0x36 build/kernel/components/dfs/src/dfs_file.o
                                         0x3e (size before relaxing)
 *fill*         0x00000000c002d802        0x2 00000000
 .rodata.copyfile.str1.4
                0x00000000c002d804       0x46 build/kernel/components/dfs/src/dfs_file.o
                                         0x56 (size before relaxing)
 .rodata.dfs_file_open.str1.4
                0x00000000c002d84a        0x2 build/kernel/components/dfs/src/dfs_file.o
 *fill*         0x00000000c002d84a        0x2 00000000
 .rodata.dfs_file_stat.str1.4
                0x00000000c002d84c       0x5e build/kernel/components/dfs/src/dfs_file.o
                                         0x6e (size before relaxing)
 *fill*         0x00000000c002d8aa        0x2 00000000
 .rodata.dfs_fnode_mgr_init.str1.4
                0x00000000c002d8ac        0x8 build/kernel/components/dfs/src/dfs_file.o
 .rodata.ls.str1.4
                0x00000000c002d8b4       0x53 build/kernel/components/dfs/src/dfs_file.o
 *fill*         0x00000000c002d907        0x1 00000000
 .rodata.name   0x00000000c002d908       0x67 build/kernel/components/dfs/src/dfs_file.o
                0x00000000c002d908                __fsym_copy_desc
                0x00000000c002d91c                __fsym_copy_name
                0x00000000c002d924                __fsym_cat_desc
                0x00000000c002d930                __fsym_cat_name
                0x00000000c002d934                __fsym_rm_desc
                0x00000000c002d950                __fsym_rm_name
                0x00000000c002d954                __fsym_ls_desc
                0x00000000c002d96c                __fsym_ls_name
 *fill*         0x00000000c002d96f        0x1 00000000
 .rodata.rm.str1.4
                0x00000000c002d970       0x12 build/kernel/components/dfs/src/dfs_file.o
 *fill*         0x00000000c002d982        0x2 00000000
 .rodata.__FUNCTION__.7117
                0x00000000c002d984       0x16 build/kernel/components/dfs/src/dfs_fs.o
 *fill*         0x00000000c002d99a        0x2 00000000
 .rodata.df.str1.4
                0x00000000c002d99c       0x7e build/kernel/components/dfs/src/dfs_fs.o
 *fill*         0x00000000c002da1a        0x2 00000000
 .rodata.dfs_mkfs.str1.4
                0x00000000c002da1c       0x71 build/kernel/components/dfs/src/dfs_fs.o
 *fill*         0x00000000c002da8d        0x3 00000000
 .rodata.dfs_mount.str1.4
                0x00000000c002da90       0x32 build/kernel/components/dfs/src/dfs_fs.o
                                         0x3e (size before relaxing)
 *fill*         0x00000000c002dac2        0x2 00000000
 .rodata.dfs_register.str1.4
                0x00000000c002dac4       0x35 build/kernel/components/dfs/src/dfs_fs.o
                                         0x46 (size before relaxing)
 *fill*         0x00000000c002daf9        0x3 00000000
 .rodata.name   0x00000000c002dafc       0x2d build/kernel/components/dfs/src/dfs_fs.o
                0x00000000c002dafc                __fsym_df_desc
                0x00000000c002db0c                __fsym_df_name
                0x00000000c002db10                __fsym_mkfs_desc
                0x00000000c002db24                __fsym_mkfs_name
 *fill*         0x00000000c002db29        0x3 00000000
 .rodata.str1.4
                0x00000000c002db2c        0xb build/kernel/components/dfs/src/dfs_fs.o
 .rodata.chdir.str1.4
                0x00000000c002db37        0x4 build/kernel/components/dfs/src/dfs_posix.o
 *fill*         0x00000000c002db37        0x1 00000000
 .rodata.name   0x00000000c002db38       0x42 build/kernel/components/dfs/src/dfs_posix.o
                0x00000000c002db38                __fsym_cd_desc
                0x00000000c002db5c                __fsym_cd_name
                0x00000000c002db60                __fsym_mkdir_desc
                0x00000000c002db74                __fsym_mkdir_name
 *fill*         0x00000000c002db7a        0x2 00000000
 .rodata.__FUNCTION__.7255
                0x00000000c002db7c        0x7 build/kernel/components/dfs/src/select.o
 *fill*         0x00000000c002db83        0x1 00000000
 .rodata.select.str1.4
                0x00000000c002db84        0xd build/kernel/components/dfs/src/select.o
 *fill*         0x00000000c002db91        0x3 00000000
 .rodata.__FUNCTION__.7192
                0x00000000c002db94       0x14 build/kernel/components/dfs/filesystems/devfs/devfs.o
 .rodata.__FUNCTION__.7200
                0x00000000c002dba8       0x13 build/kernel/components/dfs/filesystems/devfs/devfs.o
 *fill*         0x00000000c002dbbb        0x1 00000000
 .rodata.__FUNCTION__.7208
                0x00000000c002dbbc       0x14 build/kernel/components/dfs/filesystems/devfs/devfs.o
 .rodata.__FUNCTION__.7214
                0x00000000c002dbd0       0x14 build/kernel/components/dfs/filesystems/devfs/devfs.o
 .rodata.__FUNCTION__.7222
                0x00000000c002dbe4       0x13 build/kernel/components/dfs/filesystems/devfs/devfs.o
 *fill*         0x00000000c002dbf7        0x1 00000000
 .rodata.__FUNCTION__.7249
                0x00000000c002dbf8       0x17 build/kernel/components/dfs/filesystems/devfs/devfs.o
 *fill*         0x00000000c002dc0f        0x1 00000000
 .rodata._device_fops
                0x00000000c002dc10       0x24 build/kernel/components/dfs/filesystems/devfs/devfs.o
 .rodata._device_fs
                0x00000000c002dc34       0x28 build/kernel/components/dfs/filesystems/devfs/devfs.o
 .rodata.dfs_device_fs_close.str1.4
                0x00000000c002dc5c       0x33 build/kernel/components/dfs/filesystems/devfs/devfs.o
 *fill*         0x00000000c002dc8f        0x1 00000000
 .rodata.dfs_device_fs_ioctl.str1.4
                0x00000000c002dc90       0x22 build/kernel/components/dfs/filesystems/devfs/devfs.o
 .rodata.dfs_device_fs_open.str1.4
                0x00000000c002dcb2       0x17 build/kernel/components/dfs/filesystems/devfs/devfs.o
 .rodata.str1.4
                0x00000000c002dcb2        0x6 build/kernel/components/dfs/filesystems/devfs/devfs.o
 *fill*         0x00000000c002dcb2        0x2 00000000
 .rodata.__FUNCTION__.7158
                0x00000000c002dcb4        0xf build/kernel/components/dfs/filesystems/romfs/dfs_romfs.o
 *fill*         0x00000000c002dcc3        0x1 00000000
 .rodata.__FUNCTION__.7166
                0x00000000c002dcc4       0x10 build/kernel/components/dfs/filesystems/romfs/dfs_romfs.o
 .rodata.__FUNCTION__.7174
                0x00000000c002dcd4        0xf build/kernel/components/dfs/filesystems/romfs/dfs_romfs.o
 *fill*         0x00000000c002dce3        0x1 00000000
 .rodata.__FUNCTION__.7193
                0x00000000c002dce4       0x13 build/kernel/components/dfs/filesystems/romfs/dfs_romfs.o
 *fill*         0x00000000c002dcf7        0x1 00000000
 .rodata._rom_fops
                0x00000000c002dcf8       0x24 build/kernel/components/dfs/filesystems/romfs/dfs_romfs.o
 .rodata._romfs
                0x00000000c002dd1c       0x28 build/kernel/components/dfs/filesystems/romfs/dfs_romfs.o
 .rodata.dfs_romfs_close.str1.4
                0x00000000c002dd44       0x1b build/kernel/components/dfs/filesystems/romfs/dfs_romfs.o
 .rodata.dfs_romfs_getdents.str1.4
                0x00000000c002dd44       0x21 build/kernel/components/dfs/filesystems/romfs/dfs_romfs.o
 *fill*         0x00000000c002dd65        0x3 00000000
 .rodata.dfs_romfs_read.str1.4
                0x00000000c002dd68        0xf build/kernel/components/dfs/filesystems/romfs/dfs_romfs.o
 *fill*         0x00000000c002dd77        0x1 00000000
 .rodata.str1.4
                0x00000000c002dd78        0x4 build/kernel/components/dfs/filesystems/romfs/dfs_romfs.o
 .rodata.__FUNCTION__.6200
                0x00000000c002dd7c       0x13 build/kernel/components/drivers/src/completion.o
 *fill*         0x00000000c002dd8f        0x1 00000000
 .rodata.__FUNCTION__.6208
                0x00000000c002dd90       0x13 build/kernel/components/drivers/src/completion.o
 *fill*         0x00000000c002dda3        0x1 00000000
 .rodata.__FUNCTION__.6215
                0x00000000c002dda4       0x13 build/kernel/components/drivers/src/completion.o
 *fill*         0x00000000c002ddb7        0x1 00000000
 .rodata.rt_completion_init.str1.4
                0x00000000c002ddb8       0x16 build/kernel/components/drivers/src/completion.o
 *fill*         0x00000000c002ddce        0x2 00000000
 .rodata.rt_completion_wait.str1.4
                0x00000000c002ddd0       0x2f build/kernel/components/drivers/src/completion.o
                                         0x5a (size before relaxing)
 *fill*         0x00000000c002ddff        0x1 00000000
 .rodata.CSWTCH.16
                0x00000000c002de00        0xc build/kernel/components/drivers/src/pipe.o
 .rodata.pipe.str1.4
                0x00000000c002de0c        0x7 build/kernel/components/drivers/src/pipe.o
                                         0x10 (size before relaxing)
 *fill*         0x00000000c002de13        0x1 00000000
 .rodata.pipe_fops
                0x00000000c002de14       0x24 build/kernel/components/drivers/src/pipe.o
 .rodata.pipe_ops
                0x00000000c002de38       0x18 build/kernel/components/drivers/src/pipe.o
 .rodata.__FUNCTION__.6297
                0x00000000c002de50       0x13 build/kernel/components/drivers/src/ringbuffer.o
 *fill*         0x00000000c002de63        0x1 00000000
 .rodata.__FUNCTION__.6304
                0x00000000c002de64       0x12 build/kernel/components/drivers/src/ringbuffer.o
 *fill*         0x00000000c002de76        0x2 00000000
 .rodata.__FUNCTION__.6311
                0x00000000c002de78       0x18 build/kernel/components/drivers/src/ringbuffer.o
 .rodata.__FUNCTION__.6318
                0x00000000c002de90       0x12 build/kernel/components/drivers/src/ringbuffer.o
 *fill*         0x00000000c002dea2        0x2 00000000
 .rodata.__FUNCTION__.6351
                0x00000000c002dea4       0x15 build/kernel/components/drivers/src/ringbuffer.o
 *fill*         0x00000000c002deb9        0x3 00000000
 .rodata.__FUNCTION__.6356
                0x00000000c002debc       0x16 build/kernel/components/drivers/src/ringbuffer.o
 *fill*         0x00000000c002ded2        0x2 00000000
 .rodata.rt_ringbuffer_init.str1.4
                0x00000000c002ded4       0x19 build/kernel/components/drivers/src/ringbuffer.o
 *fill*         0x00000000c002deed        0x3 00000000
 .rodata.__FUNCTION__.6234
                0x00000000c002def0       0x10 build/kernel/components/drivers/src/waitqueue.o
 .rodata.rt_wqueue_wait.str1.4
                0x00000000c002df00       0x2a build/kernel/components/drivers/src/waitqueue.o
 .rodata.__FUNCTION__.6210
                0x00000000c002df00       0x18 build/kernel/components/drivers/src/workqueue.o
 .rodata._workqueue_thread_entry.str1.4
                0x00000000c002df18       0x11 build/kernel/components/drivers/src/workqueue.o
 *fill*         0x00000000c002df29        0x3 00000000
 .rodata.rt_work_sys_workqueue_init.str1.4
                0x00000000c002df2c       0x11 build/kernel/components/drivers/src/workqueue.o
 *fill*         0x00000000c002df3d        0x3 00000000
 .rodata.__FUNCTION__.7354
                0x00000000c002df40       0x11 build/kernel/components/drivers/serial/serial.o
 *fill*         0x00000000c002df51        0x3 00000000
 .rodata.__FUNCTION__.7397
                0x00000000c002df54       0x11 build/kernel/components/drivers/serial/serial.o
 *fill*         0x00000000c002df65        0x3 00000000
 .rodata.__FUNCTION__.7429
                0x00000000c002df68        0xf build/kernel/components/drivers/serial/serial.o
 *fill*         0x00000000c002df77        0x1 00000000
 .rodata.__FUNCTION__.7442
                0x00000000c002df78        0xf build/kernel/components/drivers/serial/serial.o
 *fill*         0x00000000c002df87        0x1 00000000
 .rodata.__FUNCTION__.7454
                0x00000000c002df88       0x1d build/kernel/components/drivers/serial/serial.o
 *fill*         0x00000000c002dfa5        0x3 00000000
 .rodata.__FUNCTION__.7460
                0x00000000c002dfa8        0xf build/kernel/components/drivers/serial/serial.o
 *fill*         0x00000000c002dfb7        0x1 00000000
 .rodata.__FUNCTION__.7467
                0x00000000c002dfb8        0xf build/kernel/components/drivers/serial/serial.o
 *fill*         0x00000000c002dfc7        0x1 00000000
 .rodata.__FUNCTION__.7474
                0x00000000c002dfc8       0x10 build/kernel/components/drivers/serial/serial.o
 .rodata.__FUNCTION__.7484
                0x00000000c002dfd8        0xf build/kernel/components/drivers/serial/serial.o
 *fill*         0x00000000c002dfe7        0x1 00000000
 .rodata.__FUNCTION__.7492
                0x00000000c002dfe8       0x10 build/kernel/components/drivers/serial/serial.o
 .rodata.__FUNCTION__.7519
                0x00000000c002dff8        0xa build/kernel/components/drivers/serial/serial.o
 *fill*         0x00000000c002e002        0x2 00000000
 .rodata.__FUNCTION__.7533
                0x00000000c002e004       0x12 build/kernel/components/drivers/serial/serial.o
 *fill*         0x00000000c002e016        0x2 00000000
 .rodata.__FUNCTION__.7570
                0x00000000c002e018       0x16 build/kernel/components/drivers/serial/serial.o
 *fill*         0x00000000c002e02e        0x2 00000000
 .rodata.__FUNCTION__.7579
                0x00000000c002e030       0x11 build/kernel/components/drivers/serial/serial.o
 *fill*         0x00000000c002e041        0x3 00000000
 .rodata._serial_fops
                0x00000000c002e044       0x24 build/kernel/components/drivers/serial/serial.o
 .rodata._tbl   0x00000000c002e068       0x60 build/kernel/components/drivers/serial/serial.o
 .rodata.rt_hw_serial_isr.str1.4
                0x00000000c002e0c8       0x6f build/kernel/components/drivers/serial/serial.o
 *fill*         0x00000000c002e137        0x1 00000000
 .rodata.rt_serial_control.str1.4
                0x00000000c002e138       0x27 build/kernel/components/drivers/serial/serial.o
                                         0x4b (size before relaxing)
 *fill*         0x00000000c002e15f        0x1 00000000
 .rodata.rt_serial_open.str1.4
                0x00000000c002e160       0x13 build/kernel/components/drivers/serial/serial.o
 *fill*         0x00000000c002e173        0x1 00000000
 .rodata.rt_serial_write.str1.4
                0x00000000c002e174        0xe build/kernel/components/drivers/serial/serial.o
 *fill*         0x00000000c002e182        0x2 00000000
 .rodata.serial_fops_open.str1.4
                0x00000000c002e184       0x2a build/kernel/components/drivers/serial/serial.o
                                         0x2e (size before relaxing)
 .rodata.serial_fops_poll.str1.4
                0x00000000c002e1ae       0x12 build/kernel/components/drivers/serial/serial.o
 *fill*         0x00000000c002e1ae        0x2 00000000
 .rodata.serial_ops
                0x00000000c002e1b0       0x18 build/kernel/components/drivers/serial/serial.o
 .rodata.__FUNCTION__.5779
                0x00000000c002e1c8       0x11 build/kernel/components/drivers/watchdog/watchdog.o
 *fill*         0x00000000c002e1d9        0x3 00000000
 .rodata.__FUNCTION__.5788
                0x00000000c002e1dc       0x12 build/kernel/components/drivers/watchdog/watchdog.o
 *fill*         0x00000000c002e1ee        0x2 00000000
 .rodata.__FUNCTION__.5795
                0x00000000c002e1f0       0x14 build/kernel/components/drivers/watchdog/watchdog.o
 .rodata.__FUNCTION__.5804
                0x00000000c002e204       0x18 build/kernel/components/drivers/watchdog/watchdog.o
 .rodata.rt_hw_watchdog_register.str1.4
                0x00000000c002e21c        0xf build/kernel/components/drivers/watchdog/watchdog.o
 *fill*         0x00000000c002e22b        0x1 00000000
 .rodata.rt_watchdog_close.str1.4
                0x00000000c002e22c       0x22 build/kernel/components/drivers/watchdog/watchdog.o
 .rodata.rt_watchdog_control.str1.4
                0x00000000c002e24e        0xf build/kernel/components/drivers/watchdog/watchdog.o
 *fill*         0x00000000c002e24e        0x2 00000000
 .rodata.wdt_ops
                0x00000000c002e250       0x18 build/kernel/components/drivers/watchdog/watchdog.o
 .rodata.fopen.str1.4
                0x00000000c002e268        0x4 /opt/arm-linux-musleabi/bin/../lib/gcc/arm-linux-musleabi/7.3.0/../../../../arm-linux-musleabi/lib/libc_kernel.a(fopen.o)
 .rodata.printf_core.str1.4
                0x00000000c002e26c       0x38 /opt/arm-linux-musleabi/bin/../lib/gcc/arm-linux-musleabi/7.3.0/../../../../arm-linux-musleabi/lib/libc_kernel.a(vfprintf.o)
                                         0x3a (size before relaxing)
 .rodata.states
                0x00000000c002e2a4      0x1d0 /opt/arm-linux-musleabi/bin/../lib/gcc/arm-linux-musleabi/7.3.0/../../../../arm-linux-musleabi/lib/libc_kernel.a(vfprintf.o)
 .rodata.xdigits
                0x00000000c002e474       0x10 /opt/arm-linux-musleabi/bin/../lib/gcc/arm-linux-musleabi/7.3.0/../../../../arm-linux-musleabi/lib/libc_kernel.a(vfprintf.o)
 .rodata.errid  0x00000000c002e484       0x59 /opt/arm-linux-musleabi/bin/../lib/gcc/arm-linux-musleabi/7.3.0/../../../../arm-linux-musleabi/lib/libc_kernel.a(strerror.o)
 *fill*         0x00000000c002e4dd        0x3 00000000
 .rodata.errmsg
                0x00000000c002e4e0      0x71f /opt/arm-linux-musleabi/bin/../lib/gcc/arm-linux-musleabi/7.3.0/../../../../arm-linux-musleabi/lib/libc_kernel.a(strerror.o)
 *fill*         0x00000000c002ebff        0x1 00000000
 .rodata.syscall_table
                0x00000000c002ec00      0x640 /opt/arm-linux-musleabi/bin/../lib/gcc/arm-linux-musleabi/7.3.0/../../../../arm-linux-musleabi/lib/libc_kernel.a(rtt_syscall.o)
 .rodata.__fdopen.str1.4
                0x00000000c002f240        0x4 /opt/arm-linux-musleabi/bin/../lib/gcc/arm-linux-musleabi/7.3.0/../../../../arm-linux-musleabi/lib/libc_kernel.a(__fdopen.o)
 .rodata.app_mask
                0x00000000c002f240        0x8 /opt/arm-linux-musleabi/bin/../lib/gcc/arm-linux-musleabi/7.3.0/../../../../arm-linux-musleabi/lib/libc_kernel.a(block.o)
 *(.eh_frame)
 *(.glue_7)
 .glue_7        0x00000000c002f248        0x0 linker stubs
 *(.glue_7t)
 .glue_7t       0x00000000c002f248        0x0 linker stubs
 *(.gnu.linkonce.t*)
                0x00000000c002f248                . = ALIGN (0x4)
                0x00000000c002f248                __rt_utest_tc_tab_start = .
 *(UtestTcTab)
                0x00000000c002f248                __rt_utest_tc_tab_end = .
                0x00000000c002f248                . = ALIGN (0x4)
                0x00000000c002f248                __fsymtab_start = .
 *(FSymTab)
 FSymTab        0x00000000c002f248        0xc build/libcpu/cpu.o
                0x00000000c002f248                __fsym___cmd_reboot
 FSymTab        0x00000000c002f254        0xc build/libcpu/page.o
                0x00000000c002f254                __fsym___cmd_list_page
 FSymTab        0x00000000c002f260        0xc build/kernel/src/slab.o
                0x00000000c002f260                __fsym_list_mem
 FSymTab        0x00000000c002f26c        0xc build/kernel/components/lwp/lwp_ipc.o
                0x00000000c002f26c                __fsym___cmd_list_channel
 FSymTab        0x00000000c002f278       0x24 build/kernel/components/lwp/lwp_pid.o
                0x00000000c002f278                __fsym___cmd_killall
                0x00000000c002f284                __fsym___cmd_kill
                0x00000000c002f290                __fsym___cmd_list_process
 FSymTab        0x00000000c002f29c        0xc build/kernel/components/lwp/lwp_shm.o
                0x00000000c002f29c                __fsym___cmd_list_shm
 FSymTab        0x00000000c002f2a8        0xc build/kernel/components/lwp/lwp_syscall.o
                0x00000000c002f2a8                __fsym___cmd_sys_log
 FSymTab        0x00000000c002f2b4       0xb4 build/kernel/components/finsh/cmd.o
                0x00000000c002f2b4                __fsym___cmd_top
                0x00000000c002f2c0                __fsym___cmd_list
                0x00000000c002f2cc                __fsym___cmd_list_device
                0x00000000c002f2d8                __fsym___cmd_list_timer
                0x00000000c002f2e4                __fsym___cmd_list_mempool
                0x00000000c002f2f0                __fsym___cmd_list_memheap
                0x00000000c002f2fc                __fsym___cmd_list_msgqueue
                0x00000000c002f308                __fsym___cmd_list_mailbox
                0x00000000c002f314                __fsym___cmd_list_mutex
                0x00000000c002f320                __fsym___cmd_list_event
                0x00000000c002f32c                __fsym___cmd_list_sem
                0x00000000c002f338                __fsym___cmd_list_thread
                0x00000000c002f344                __fsym___cmd_version
                0x00000000c002f350                __fsym___cmd_clear
                0x00000000c002f35c                __fsym___cmd_hello
 FSymTab        0x00000000c002f368       0x24 build/kernel/components/finsh/msh.o
                0x00000000c002f368                __fsym___cmd_free
                0x00000000c002f374                __fsym___cmd_ps
                0x00000000c002f380                __fsym___cmd_help
 FSymTab        0x00000000c002f38c       0x84 build/kernel/components/finsh/msh_file.o
                0x00000000c002f38c                __fsym___cmd_echo
                0x00000000c002f398                __fsym___cmd_df
                0x00000000c002f3a4                __fsym___cmd_mkfs
                0x00000000c002f3b0                __fsym___cmd_mkdir
                0x00000000c002f3bc                __fsym___cmd_pwd
                0x00000000c002f3c8                __fsym___cmd_cd
                0x00000000c002f3d4                __fsym___cmd_rm
                0x00000000c002f3e0                __fsym___cmd_cat
                0x00000000c002f3ec                __fsym___cmd_mv
                0x00000000c002f3f8                __fsym___cmd_cp
                0x00000000c002f404                __fsym___cmd_ls
 FSymTab        0x00000000c002f410        0xc build/kernel/components/libc/compilers/musl/libc.o
                0x00000000c002f410                __fsym___cmd_set
 FSymTab        0x00000000c002f41c       0x30 build/kernel/components/dfs/src/dfs.o
                0x00000000c002f41c                __fsym___cmd_unmount
                0x00000000c002f428                __fsym___cmd_mount
                0x00000000c002f434                __fsym___cmd_lsof
                0x00000000c002f440                __fsym___cmd_list_fd
 FSymTab        0x00000000c002f44c       0x30 build/kernel/components/dfs/src/dfs_file.o
                0x00000000c002f44c                __fsym_copy
                0x00000000c002f458                __fsym_cat
                0x00000000c002f464                __fsym_rm
                0x00000000c002f470                __fsym_ls
 FSymTab        0x00000000c002f47c       0x18 build/kernel/components/dfs/src/dfs_fs.o
                0x00000000c002f47c                __fsym_df
                0x00000000c002f488                __fsym_mkfs
 FSymTab        0x00000000c002f494       0x18 build/kernel/components/dfs/src/dfs_posix.o
                0x00000000c002f494                __fsym_cd
                0x00000000c002f4a0                __fsym_mkdir
                0x00000000c002f4ac                __fsymtab_end = .
                0x00000000c002f4ac                . = ALIGN (0x4)
                0x00000000c002f4ac                __vsymtab_start = .
 *(VSymTab)
                0x00000000c002f4ac                __vsymtab_end = .
                0x00000000c002f4ac                . = ALIGN (0x4)
                0x00000000c002f4ac                . = ALIGN (0x4)
                0x00000000c002f4ac                __rtmsymtab_start = .
 *(RTMSymTab)
                0x00000000c002f4ac                __rtmsymtab_end = .
                0x00000000c002f4ac                . = ALIGN (0x4)
                0x00000000c002f4ac                __rt_init_start = .
 *(SORT_BY_NAME(.rti_fn*))
 .rti_fn.0      0x00000000c002f4ac        0x4 build/kernel/src/components.o
                0x00000000c002f4ac                __rt_init_rti_start
 .rti_fn.0.end  0x00000000c002f4b0        0x4 build/kernel/src/components.o
                0x00000000c002f4b0                __rt_init_rti_board_start
 .rti_fn.1      0x00000000c002f4b4        0x4 build/drivers/drv_wdg.o
                0x00000000c002f4b4                __rt_init_rt_hw_wdt_init
 .rti_fn.1.end  0x00000000c002f4b8        0x4 build/kernel/src/components.o
                0x00000000c002f4b8                __rt_init_rti_board_end
 .rti_fn.2      0x00000000c002f4bc        0x4 build/kernel/components/lwp/lwp_futex.o
                0x00000000c002f4bc                __rt_init_futex_system_init
 .rti_fn.2      0x00000000c002f4c0        0x4 build/kernel/components/lwp/lwp_pmutex.o
                0x00000000c002f4c0                __rt_init_pmutex_system_init
 .rti_fn.2      0x00000000c002f4c4        0x4 build/kernel/components/dfs/src/dfs.o
                0x00000000c002f4c4                __rt_init_dfs_init
 .rti_fn.3      0x00000000c002f4c8        0x4 build/kernel/components/lwp/lwp_syscall.o
                0x00000000c002f4c8                __rt_init_critical_init
 .rti_fn.3      0x00000000c002f4cc        0x4 build/kernel/components/drivers/src/workqueue.o
                0x00000000c002f4cc                __rt_init_rt_work_sys_workqueue_init
 .rti_fn.4      0x00000000c002f4d0        0x4 build/kernel/components/libc/time/clock_time.o
                0x00000000c002f4d0                __rt_init_clock_time_system_init
 .rti_fn.4      0x00000000c002f4d4        0x4 build/kernel/components/libc/aio/posix_aio.o
                0x00000000c002f4d4                __rt_init_aio_system_init
 .rti_fn.4      0x00000000c002f4d8        0x4 build/kernel/components/libc/compilers/musl/libc.o
                0x00000000c002f4d8                __rt_init_libc_system_init
 .rti_fn.4      0x00000000c002f4dc        0x4 build/kernel/components/dfs/filesystems/romfs/dfs_romfs.o
                0x00000000c002f4dc                __rt_init_dfs_romfs_init
 .rti_fn.6      0x00000000c002f4e0        0x4 build/kernel/components/finsh/shell.o
                0x00000000c002f4e0                __rt_init_finsh_system_init
 .rti_fn.6.end  0x00000000c002f4e4        0x4 build/kernel/src/components.o
                0x00000000c002f4e4                __rt_init_rti_end
                0x00000000c002f4e8                __rt_init_end = .
                0x00000000c002f4e8                __text_end = .

.vfp11_veneer   0x00000000c002f4e8        0x0
 .vfp11_veneer  0x00000000c002f4e8        0x0 linker stubs

.v4_bx          0x00000000c002f4e8        0x0
 .v4_bx         0x00000000c002f4e8        0x0 linker stubs

.iplt           0x00000000c002f4e8        0x0
 .iplt          0x00000000c002f4e8        0x0 build/libcpu/backtrace.o

.ARM.extab
 *(.ARM.extab* .gnu.linkonce.armextab.*)

.ARM.exidx      0x00000000c002f4e8        0x8
                0x00000000c002f4e8                __exidx_start = .
 *(.ARM.exidx* .gnu.linkonce.armexidx.*)
 .ARM.exidx     0x00000000c002f4e8        0x8 /opt/arm-linux-musleabi/bin/../lib/gcc/arm-linux-musleabi/7.3.0/libgcc.a(_udivmoddi4.o)
                0x00000000c002f4f0                __exidx_end = .

.rel.dyn        0x00000000c002f4f0        0x0
 .rel.iplt      0x00000000c002f4f0        0x0 build/libcpu/backtrace.o
                0x00000000c002f4f0                . = ALIGN (0x4)

.ctors          0x00000000c002f4f0        0x0
                0x00000000c002f4f0                PROVIDE (__ctors_start__ = .)
 *(SORT_BY_NAME(.ctors.*))
 *(.ctors)
                0x00000000c002f4f0                PROVIDE (__ctors_end__ = .)

.dtors          0x00000000c002f4f0        0x0
                [!provide]                        PROVIDE (__dtors_start__ = .)
 *(SORT_BY_NAME(.dtors.*))
 *(.dtors)
                [!provide]                        PROVIDE (__dtors_end__ = .)
                0x00000000c002f4f0                . = ALIGN (0x8)
                0x00000000c002f4f0                __data_start = .

.data           0x00000000c0030000     0x8334
 *(.data)
 .data          0x00000000c0030000     0x8000 build/libcpu/start_gcc.o
                0x00000000c0030800                und_stack_start
                0x00000000c0031000                abt_stack_start
                0x00000000c0031800                fiq_stack_start
                0x00000000c0032000                irq_stack_start
                0x00000000c0032800                sys_stack_start
                0x00000000c0033000                svc_stack_start
                0x00000000c0033000                stack_top
 .data          0x00000000c0038000        0xc /opt/arm-linux-musleabi/bin/../lib/gcc/arm-linux-musleabi/7.3.0/../../../../arm-linux-musleabi/lib/libc_kernel.a(atomics.o)
                0x00000000c0038000                __a_barrier_ptr
                0x00000000c0038004                __a_cas_ptr
                0x00000000c0038008                __a_gettp_ptr
 *(.data.*)
 .data.init_page_region
                0x00000000c003800c        0x8 build/drivers/board.o
                0x00000000c003800c                init_page_region
 .data.platform_mem_desc
                0x00000000c0038014       0x20 build/drivers/board.o
                0x00000000c0038014                platform_mem_desc
 .data.watchdog_ops
                0x00000000c0038034        0x8 build/drivers/drv_wdg.o
                0x00000000c0038034                watchdog_ops
 .data.wdt_timeout
                0x00000000c003803c        0x4 build/drivers/drv_wdg.o
 .data._rt_thread_defunct
                0x00000000c0038040        0x8 build/kernel/src/idle.o
 .data.rt_object_container
                0x00000000c0038048       0xc0 build/kernel/src/object.o
 .data.soft_timer_status
                0x00000000c0038108        0x1 build/kernel/src/timer.o
 *fill*         0x00000000c0038109        0x3 
 .data.shm_free_list
                0x00000000c003810c        0x4 build/kernel/components/lwp/lwp_shm.o
 .data.working_directory
                0x00000000c0038110      0x100 build/kernel/components/dfs/src/dfs.o
                0x00000000c0038110                working_directory
 .data.__stdin_FILE
                0x00000000c0038210       0x90 /opt/arm-linux-musleabi/bin/../lib/gcc/arm-linux-musleabi/7.3.0/../../../../arm-linux-musleabi/lib/libc_kernel.a(stdin.o)
                0x00000000c0038210                __stdin_FILE
 .data.__stdout_FILE
                0x00000000c00382a0       0x90 /opt/arm-linux-musleabi/bin/../lib/gcc/arm-linux-musleabi/7.3.0/../../../../arm-linux-musleabi/lib/libc_kernel.a(stdout.o)
                0x00000000c00382a0                __stdout_FILE
 .data.__stdout_used
                0x00000000c0038330        0x4 /opt/arm-linux-musleabi/bin/../lib/gcc/arm-linux-musleabi/7.3.0/../../../../arm-linux-musleabi/lib/libc_kernel.a(stdout.o)
                0x00000000c0038330                __stdout_used
                0x00000000c0038334                __data_end = .

.igot.plt       0x00000000c0038334        0x0
 .igot.plt      0x00000000c0038334        0x0 build/libcpu/backtrace.o
                0x00000000c0038338                . = ALIGN (0x8)
                0x00000000c0038338                __bss_start = .

.bss            0x00000000c003c000    0x101d8
 *(.bss)
 *(.bss.*)
 .bss.INTC      0x00000000c003c000        0x4 build/libcpu/interrupt.o
 .bss.isr_table
                0x00000000c003c004      0x700 build/libcpu/interrupt.o
 .bss.rt_interrupt_from_thread
                0x00000000c003c704        0x4 build/libcpu/interrupt.o
                0x00000000c003c704                rt_interrupt_from_thread
 .bss.rt_interrupt_to_thread
                0x00000000c003c708        0x4 build/libcpu/interrupt.o
                0x00000000c003c708                rt_interrupt_to_thread
 .bss.rt_thread_switch_interrupt_flag
                0x00000000c003c70c        0x4 build/libcpu/interrupt.o
                0x00000000c003c70c                rt_thread_switch_interrupt_flag
 .bss.page_addr
                0x00000000c003c710        0x4 build/libcpu/page.o
 .bss.page_list
                0x00000000c003c714       0x50 build/libcpu/page.o
 .bss.page_nr   0x00000000c003c764        0x4 build/libcpu/page.o
 .bss.page_start
                0x00000000c003c768        0x4 build/libcpu/page.o
 .bss.timer_vbase
                0x00000000c003c76c        0x4 build/drivers/board.o
 .bss.CCU       0x00000000c003c770        0x4 build/drivers/drv_clock.o
 .bss._g_gpio_irq_tbl
                0x00000000c003c774      0x600 build/drivers/drv_gpio.o
 .bss.gpio_vbase
                0x00000000c003cd74        0x4 build/drivers/drv_gpio.o
 .bss.serial0.8357
                0x00000000c003cd78       0x68 build/drivers/drv_uart.o
 .bss.uart0.8358
                0x00000000c003cde0       0x34 build/drivers/drv_uart.o
 .bss.wdg_vbase
                0x00000000c003ce14        0x4 build/drivers/drv_wdg.o
 .bss.rt_tick   0x00000000c003ce18        0x4 build/kernel/src/clock.o
 .bss.rt_tick_hook
                0x00000000c003ce1c        0x4 build/kernel/src/clock.o
 .bss.idle      0x00000000c003ce20      0x120 build/kernel/src/idle.o
 .bss.idle_hook_list
                0x00000000c003cf40       0x10 build/kernel/src/idle.o
 .bss.rt_thread_stack
                0x00000000c003cf50      0x400 build/kernel/src/idle.o
 .bss.rt_interrupt_enter_hook
                0x00000000c003d350        0x4 build/kernel/src/irq.o
 .bss.rt_interrupt_leave_hook
                0x00000000c003d354        0x4 build/kernel/src/irq.o
 .bss.rt_interrupt_nest
                0x00000000c003d358        0x1 build/kernel/src/irq.o
                0x00000000c003d358                rt_interrupt_nest
 *fill*         0x00000000c003d359        0x3 
 .bss.__rt_errno
                0x00000000c003d35c        0x4 build/kernel/src/kservice.o
 .bss._console_device
                0x00000000c003d360        0x4 build/kernel/src/kservice.o
 .bss.rt_log_buf.8239
                0x00000000c003d364      0x100 build/kernel/src/kservice.o
 .bss.rt_mp_free_hook
                0x00000000c003d464        0x4 build/kernel/src/mempool.o
 .bss.rt_object_attach_hook
                0x00000000c003d468        0x4 build/kernel/src/object.o
 .bss.rt_object_detach_hook
                0x00000000c003d46c        0x4 build/kernel/src/object.o
 .bss.rt_scheduler_hook
                0x00000000c003d470        0x4 build/kernel/src/scheduler.o
 .bss.rt_scheduler_lock_nest
                0x00000000c003d474        0x2 build/kernel/src/scheduler.o
 *fill*         0x00000000c003d476        0x2 
 .bss._rt_siginfo_pool
                0x00000000c003d478        0x4 build/kernel/src/signal.o
 .bss.heap_end  0x00000000c003d47c        0x4 build/kernel/src/slab.o
 .bss.heap_sem  0x00000000c003d480       0x2c build/kernel/src/slab.o
 .bss.heap_start
                0x00000000c003d4ac        0x4 build/kernel/src/slab.o
 .bss.max_mem   0x00000000c003d4b0        0x4 build/kernel/src/slab.o
 .bss.memusage  0x00000000c003d4b4        0x4 build/kernel/src/slab.o
 .bss.rt_free_hook
                0x00000000c003d4b8        0x4 build/kernel/src/slab.o
 .bss.rt_malloc_hook
                0x00000000c003d4bc        0x4 build/kernel/src/slab.o
 .bss.rt_page_list
                0x00000000c003d4c0        0x4 build/kernel/src/slab.o
 .bss.used_mem  0x00000000c003d4c4        0x4 build/kernel/src/slab.o
 .bss.zone_array
                0x00000000c003d4c8      0x120 build/kernel/src/slab.o
 .bss.zone_free
                0x00000000c003d5e8        0x4 build/kernel/src/slab.o
 .bss.zone_free_cnt
                0x00000000c003d5ec        0x4 build/kernel/src/slab.o
 .bss.zone_limit
                0x00000000c003d5f0        0x4 build/kernel/src/slab.o
 .bss.zone_page_cnt
                0x00000000c003d5f4        0x4 build/kernel/src/slab.o
 .bss.zone_size
                0x00000000c003d5f8        0x4 build/kernel/src/slab.o
 .bss.rt_thread_inited_hook
                0x00000000c003d5fc        0x4 build/kernel/src/thread.o
 .bss.rt_thread_resume_hook
                0x00000000c003d600        0x4 build/kernel/src/thread.o
 .bss.rt_thread_suspend_hook
                0x00000000c003d604        0x4 build/kernel/src/thread.o
 .bss.random_nr.5919
                0x00000000c003d608        0x4 build/kernel/src/timer.o
 .bss.rt_soft_timer_list
                0x00000000c003d60c        0x8 build/kernel/src/timer.o
 .bss.rt_timer_enter_hook
                0x00000000c003d614        0x4 build/kernel/src/timer.o
 .bss.rt_timer_exit_hook
                0x00000000c003d618        0x4 build/kernel/src/timer.o
 .bss.rt_timer_list
                0x00000000c003d61c        0x8 build/kernel/src/timer.o
 .bss.timer_thread
                0x00000000c003d624      0x120 build/kernel/src/timer.o
 .bss.timer_thread_stack
                0x00000000c003d744      0x400 build/kernel/src/timer.o
 .bss.k_map_area
                0x00000000c003db44        0x4 build/kernel/components/lwp/ioremap.o
 .bss._console  0x00000000c003db48      0x470 build/kernel/components/lwp/lwp_console.o
 .bss._futex_lock
                0x00000000c003dfb8       0x30 build/kernel/components/lwp/lwp_futex.o
 .bss._ipc_msg_free_list
                0x00000000c003dfe8        0x4 build/kernel/components/lwp/lwp_ipc.o
 .bss.ipc_msg_pool
                0x00000000c003dfec     0x7000 build/kernel/components/lwp/lwp_ipc.o
 .bss.rt_ipc_msg_used
                0x00000000c0044fec        0x4 build/kernel/components/lwp/lwp_ipc.o
 .bss.current_pid
                0x00000000c0044ff0        0x4 build/kernel/components/lwp/lwp_pid.o
 .bss.lwp_pid_ary
                0x00000000c0044ff4      0x258 build/kernel/components/lwp/lwp_pid.o
 .bss.lwp_pid_ary_alloced
                0x00000000c004524c        0x4 build/kernel/components/lwp/lwp_pid.o
 .bss.lwp_pid_free_head
                0x00000000c0045250        0x4 build/kernel/components/lwp/lwp_pid.o
 .bss.lwp_pid_root
                0x00000000c0045254        0x4 build/kernel/components/lwp/lwp_pid.o
 .bss._pmutex_lock
                0x00000000c0045258       0x30 build/kernel/components/lwp/lwp_pmutex.o
 .bss._shm_ary  0x00000000c0045288      0x400 build/kernel/components/lwp/lwp_shm.o
 .bss.shm_id_used
                0x00000000c0045688        0x4 build/kernel/components/lwp/lwp_shm.o
 .bss.shm_tree_key
                0x00000000c004568c        0x4 build/kernel/components/lwp/lwp_shm.o
 .bss.shm_tree_pa
                0x00000000c0045690        0x4 build/kernel/components/lwp/lwp_shm.o
 .bss.__sys_log_enable
                0x00000000c0045694        0x4 build/kernel/components/lwp/lwp_syscall.o
 .bss.critical_lock
                0x00000000c0045698       0x2c build/kernel/components/lwp/lwp_syscall.o
 .bss.current_tid
                0x00000000c00456c4        0x4 build/kernel/components/lwp/lwp_tid.o
 .bss.lwp_tid_ary
                0x00000000c00456c8      0x500 build/kernel/components/lwp/lwp_tid.o
 .bss.lwp_tid_ary_alloced
                0x00000000c0045bc8        0x4 build/kernel/components/lwp/lwp_tid.o
 .bss.lwp_tid_free_head
                0x00000000c0045bcc        0x4 build/kernel/components/lwp/lwp_tid.o
 .bss.lwp_tid_root
                0x00000000c0045bd0        0x4 build/kernel/components/lwp/lwp_tid.o
 .bss._syscall_table_begin
                0x00000000c0045bd4        0x4 build/kernel/components/finsh/shell.o
                0x00000000c0045bd4                _syscall_table_begin
 .bss._syscall_table_end
                0x00000000c0045bd8        0x4 build/kernel/components/finsh/shell.o
                0x00000000c0045bd8                _syscall_table_end
 .bss.finsh_prompt.7308
                0x00000000c0045bdc      0x101 build/kernel/components/finsh/shell.o
 *fill*         0x00000000c0045cdd        0x3 
 .bss.finsh_prompt_custom
                0x00000000c0045ce0        0x4 build/kernel/components/finsh/shell.o
 .bss.rt_tick_mark
                0x00000000c0045ce4        0x4 build/kernel/components/finsh/cmd.o
 .bss.top_ch    0x00000000c0045ce8        0x1 build/kernel/components/finsh/cmd.o
 *fill*         0x00000000c0045ce9        0x3 
 .bss._timevalue
                0x00000000c0045cec        0x8 build/kernel/components/libc/time/clock_time.o
 .bss.aio_queue
                0x00000000c0045cf4        0x4 build/kernel/components/libc/aio/posix_aio.o
                0x00000000c0045cf4                aio_queue
 .bss.std_console
                0x00000000c0045cf8        0x4 build/kernel/components/libc/compilers/musl/stdio.o
 .bss._fdtab    0x00000000c0045cfc        0x8 build/kernel/components/dfs/src/dfs.o
 .bss.fdlock    0x00000000c0045d04       0x30 build/kernel/components/dfs/src/dfs.o
 .bss.fslock    0x00000000c0045d34       0x30 build/kernel/components/dfs/src/dfs.o
 .bss.init_ok.7868
                0x00000000c0045d64        0x4 build/kernel/components/dfs/src/dfs.o
 .bss.dfs_fm    0x00000000c0045d68      0x430 build/kernel/components/dfs/src/dfs_file.o
 .bss.pipeno.7415
                0x00000000c0046198        0x4 build/kernel/components/drivers/src/pipe.o
 .bss.sys_workq
                0x00000000c004619c        0x4 build/kernel/components/drivers/src/workqueue.o
 .bss.already_output.7449
                0x00000000c00461a0        0x4 build/kernel/components/drivers/serial/serial.o
 .bss.__environ
                0x00000000c00461a4        0x4 /opt/arm-linux-musleabi/bin/../lib/gcc/arm-linux-musleabi/7.3.0/../../../../arm-linux-musleabi/lib/libc_kernel.a(__environ.o)
                0x00000000c00461a4                _environ
                0x00000000c00461a4                __environ
                0x00000000c00461a4                environ
                0x00000000c00461a4                ___environ
 .bss.oldenv.4317
                0x00000000c00461a8        0x4 /opt/arm-linux-musleabi/bin/../lib/gcc/arm-linux-musleabi/7.3.0/../../../../arm-linux-musleabi/lib/libc_kernel.a(putenv.o)
 .bss.env_alloced.4032
                0x00000000c00461ac        0x4 /opt/arm-linux-musleabi/bin/../lib/gcc/arm-linux-musleabi/7.3.0/../../../../arm-linux-musleabi/lib/libc_kernel.a(setenv.o)
 .bss.env_alloced_n.4033
                0x00000000c00461b0        0x4 /opt/arm-linux-musleabi/bin/../lib/gcc/arm-linux-musleabi/7.3.0/../../../../arm-linux-musleabi/lib/libc_kernel.a(setenv.o)
 .bss.dummy     0x00000000c00461b4        0x4 /opt/arm-linux-musleabi/bin/../lib/gcc/arm-linux-musleabi/7.3.0/../../../../arm-linux-musleabi/lib/libc_kernel.a(fflush.o)
                0x00000000c00461b4                __stderr_used
 .bss.ofl_head  0x00000000c00461b8        0x4 /opt/arm-linux-musleabi/bin/../lib/gcc/arm-linux-musleabi/7.3.0/../../../../arm-linux-musleabi/lib/libc_kernel.a(ofl.o)
 .bss.ofl_lock  0x00000000c00461bc        0x4 /opt/arm-linux-musleabi/bin/../lib/gcc/arm-linux-musleabi/7.3.0/../../../../arm-linux-musleabi/lib/libc_kernel.a(ofl.o)
 .bss.buf       0x00000000c00461c0      0x408 /opt/arm-linux-musleabi/bin/../lib/gcc/arm-linux-musleabi/7.3.0/../../../../arm-linux-musleabi/lib/libc_kernel.a(stdin.o)
 .bss.buf       0x00000000c00465c8      0x408 /opt/arm-linux-musleabi/bin/../lib/gcc/arm-linux-musleabi/7.3.0/../../../../arm-linux-musleabi/lib/libc_kernel.a(stdout.o)
 *(COMMON)
 *fill*         0x00000000c00469d0     0x1630 
 COMMON         0x00000000c0048000     0x4000 build/libcpu/mmu.o
                0x00000000c0048000                MMUTable
 COMMON         0x00000000c004c000       0x10 build/drivers/board.o
                0x00000000c004c000                mmu_info
 COMMON         0x00000000c004c010        0x4 build/kernel/src/kservice.o
                0x00000000c004c010                rt_assert_hook
 COMMON         0x00000000c004c014        0xc build/kernel/src/object.o
                0x00000000c004c014                rt_object_put_hook
                0x00000000c004c018                rt_object_take_hook
                0x00000000c004c01c                rt_object_trytake_hook
 COMMON         0x00000000c004c020      0x10c build/kernel/src/scheduler.o
                0x00000000c004c020                rt_thread_priority_table
                0x00000000c004c120                rt_current_priority
                0x00000000c004c124                rt_current_thread
                0x00000000c004c128                rt_thread_ready_priority_group
 COMMON         0x00000000c004c12c        0x4 build/kernel/components/finsh/shell.o
                0x00000000c004c12c                shell
 COMMON         0x00000000c004c130       0x60 build/kernel/components/dfs/src/dfs.o
                0x00000000c004c130                filesystem_table
                0x00000000c004c170                filesystem_operation_table
 COMMON         0x00000000c004c190       0x48 /opt/arm-linux-musleabi/bin/../lib/gcc/arm-linux-musleabi/7.3.0/../../../../arm-linux-musleabi/lib/libc_kernel.a(libc.o)
                0x00000000c004c190                __hwcap
                0x00000000c004c194                __libc
                0x00000000c004c1d4                __sysinfo
                0x00000000c004c1d8                . = ALIGN (0x4)
                0x00000000c004c1d8                . = ALIGN (0x4)
                0x00000000c004c1d8                __bss_end = .
                0x00000000c004c1d8                __image_end = .

.stab
 *(.stab)

.stabstr
 *(.stabstr)

.stab.excl
 *(.stab.excl)

.stab.exclstr
 *(.stab.exclstr)

.stab.index
 *(.stab.index)

.stab.indexstr
 *(.stab.indexstr)

.comment        0x0000000000000000       0x11
 *(.comment)
 .comment       0x0000000000000000       0x11 build/libcpu/backtrace.o
                                         0x12 (size before relaxing)
 .comment       0x0000000000000011       0x12 build/libcpu/cache.o
 .comment       0x0000000000000011       0x12 build/libcpu/cpu.o
 .comment       0x0000000000000011       0x12 build/libcpu/cpuport.o
 .comment       0x0000000000000011       0x12 build/libcpu/interrupt.o
 .comment       0x0000000000000011       0x12 build/libcpu/mmu.o
 .comment       0x0000000000000011       0x12 build/libcpu/page.o
 .comment       0x0000000000000011       0x12 build/libcpu/rt_low_level_init.o
 .comment       0x0000000000000011       0x12 build/libcpu/stack.o
 .comment       0x0000000000000011       0x12 build/libcpu/trap.o
 .comment       0x0000000000000011       0x12 build/drivers/board.o
 .comment       0x0000000000000011       0x12 build/drivers/drv_clock.o
 .comment       0x0000000000000011       0x12 build/drivers/drv_gpio.o
 .comment       0x0000000000000011       0x12 build/drivers/drv_uart.o
 .comment       0x0000000000000011       0x12 build/drivers/drv_wdg.o
 .comment       0x0000000000000011       0x12 build/applications/main.o
 .comment       0x0000000000000011       0x12 build/kernel/src/clock.o
 .comment       0x0000000000000011       0x12 build/kernel/src/components.o
 .comment       0x0000000000000011       0x12 build/kernel/src/device.o
 .comment       0x0000000000000011       0x12 build/kernel/src/idle.o
 .comment       0x0000000000000011       0x12 build/kernel/src/ipc.o
 .comment       0x0000000000000011       0x12 build/kernel/src/irq.o
 .comment       0x0000000000000011       0x12 build/kernel/src/kservice.o
 .comment       0x0000000000000011       0x12 build/kernel/src/mempool.o
 .comment       0x0000000000000011       0x12 build/kernel/src/object.o
 .comment       0x0000000000000011       0x12 build/kernel/src/scheduler.o
 .comment       0x0000000000000011       0x12 build/kernel/src/signal.o
 .comment       0x0000000000000011       0x12 build/kernel/src/slab.o
 .comment       0x0000000000000011       0x12 build/kernel/src/thread.o
 .comment       0x0000000000000011       0x12 build/kernel/src/timer.o
 .comment       0x0000000000000011       0x12 build/kernel/components/lwp/ioremap.o
 .comment       0x0000000000000011       0x12 build/kernel/components/lwp/lwp.o
 .comment       0x0000000000000011       0x12 build/kernel/components/lwp/lwp_avl.o
 .comment       0x0000000000000011       0x12 build/kernel/components/lwp/lwp_console.o
 .comment       0x0000000000000011       0x12 build/kernel/components/lwp/lwp_futex.o
 .comment       0x0000000000000011       0x12 build/kernel/components/lwp/lwp_ipc.o
 .comment       0x0000000000000011       0x12 build/kernel/components/lwp/lwp_mm_area.o
 .comment       0x0000000000000011       0x12 build/kernel/components/lwp/lwp_pid.o
 .comment       0x0000000000000011       0x12 build/kernel/components/lwp/lwp_pmutex.o
 .comment       0x0000000000000011       0x12 build/kernel/components/lwp/lwp_shm.o
 .comment       0x0000000000000011       0x12 build/kernel/components/lwp/lwp_signal.o
 .comment       0x0000000000000011       0x12 build/kernel/components/lwp/lwp_syscall.o
 .comment       0x0000000000000011       0x12 build/kernel/components/lwp/lwp_tid.o
 .comment       0x0000000000000011       0x12 build/kernel/components/lwp/lwp_user_mm.o
 .comment       0x0000000000000011       0x12 build/kernel/components/lwp/arch/arm/common/reloc.o
 .comment       0x0000000000000011       0x12 build/kernel/components/lwp/arch/arm/arm926/arch_user_space_init.o
 .comment       0x0000000000000011       0x12 build/kernel/components/lwp/arch/arm/arm926/arch_user_stack.o
 .comment       0x0000000000000011       0x12 build/kernel/components/finsh/shell.o
 .comment       0x0000000000000011       0x12 build/kernel/components/finsh/cmd.o
 .comment       0x0000000000000011       0x12 build/kernel/components/finsh/msh.o
 .comment       0x0000000000000011       0x12 build/kernel/components/finsh/msh_file.o
 .comment       0x0000000000000011       0x12 build/kernel/components/libc/termios/posix_termios.o
 .comment       0x0000000000000011       0x12 build/kernel/components/libc/time/clock_time.o
 .comment       0x0000000000000011       0x12 build/kernel/components/libc/aio/posix_aio.o
 .comment       0x0000000000000011       0x12 build/kernel/components/libc/compilers/musl/libc.o
 .comment       0x0000000000000011       0x12 build/kernel/components/libc/compilers/musl/mem.o
 .comment       0x0000000000000011       0x12 build/kernel/components/libc/compilers/musl/stdio.o
 .comment       0x0000000000000011       0x12 build/kernel/components/dfs/src/dfs.o
 .comment       0x0000000000000011       0x12 build/kernel/components/dfs/src/dfs_file.o
 .comment       0x0000000000000011       0x12 build/kernel/components/dfs/src/dfs_fs.o
 .comment       0x0000000000000011       0x12 build/kernel/components/dfs/src/dfs_posix.o
 .comment       0x0000000000000011       0x12 build/kernel/components/dfs/src/poll.o
 .comment       0x0000000000000011       0x12 build/kernel/components/dfs/src/select.o
 .comment       0x0000000000000011       0x12 build/kernel/components/dfs/filesystems/devfs/devfs.o
 .comment       0x0000000000000011       0x12 build/kernel/components/dfs/filesystems/romfs/dfs_romfs.o
 .comment       0x0000000000000011       0x12 build/kernel/components/drivers/src/completion.o
 .comment       0x0000000000000011       0x12 build/kernel/components/drivers/src/pipe.o
 .comment       0x0000000000000011       0x12 build/kernel/components/drivers/src/ringbuffer.o
 .comment       0x0000000000000011       0x12 build/kernel/components/drivers/src/waitqueue.o
 .comment       0x0000000000000011       0x12 build/kernel/components/drivers/src/workqueue.o
 .comment       0x0000000000000011       0x12 build/kernel/components/drivers/serial/serial.o
 .comment       0x0000000000000011       0x12 build/kernel/components/drivers/watchdog/watchdog.o
 .comment       0x0000000000000011       0x12 /opt/arm-linux-musleabi/bin/../lib/gcc/arm-linux-musleabi/7.3.0/../../../../arm-linux-musleabi/lib/libc_kernel.a(__environ.o)
 .comment       0x0000000000000011       0x12 /opt/arm-linux-musleabi/bin/../lib/gcc/arm-linux-musleabi/7.3.0/../../../../arm-linux-musleabi/lib/libc_kernel.a(getenv.o)
 .comment       0x0000000000000011       0x12 /opt/arm-linux-musleabi/bin/../lib/gcc/arm-linux-musleabi/7.3.0/../../../../arm-linux-musleabi/lib/libc_kernel.a(putenv.o)
 .comment       0x0000000000000011       0x12 /opt/arm-linux-musleabi/bin/../lib/gcc/arm-linux-musleabi/7.3.0/../../../../arm-linux-musleabi/lib/libc_kernel.a(setenv.o)
 .comment       0x0000000000000011       0x12 /opt/arm-linux-musleabi/bin/../lib/gcc/arm-linux-musleabi/7.3.0/../../../../arm-linux-musleabi/lib/libc_kernel.a(unsetenv.o)
 .comment       0x0000000000000011       0x12 /opt/arm-linux-musleabi/bin/../lib/gcc/arm-linux-musleabi/7.3.0/../../../../arm-linux-musleabi/lib/libc_kernel.a(fclose.o)
 .comment       0x0000000000000011       0x12 /opt/arm-linux-musleabi/bin/../lib/gcc/arm-linux-musleabi/7.3.0/../../../../arm-linux-musleabi/lib/libc_kernel.a(fflush.o)
 .comment       0x0000000000000011       0x12 /opt/arm-linux-musleabi/bin/../lib/gcc/arm-linux-musleabi/7.3.0/../../../../arm-linux-musleabi/lib/libc_kernel.a(fileno.o)
 .comment       0x0000000000000011       0x12 /opt/arm-linux-musleabi/bin/../lib/gcc/arm-linux-musleabi/7.3.0/../../../../arm-linux-musleabi/lib/libc_kernel.a(fopen.o)
 .comment       0x0000000000000011       0x12 /opt/arm-linux-musleabi/bin/../lib/gcc/arm-linux-musleabi/7.3.0/../../../../arm-linux-musleabi/lib/libc_kernel.a(getchar.o)
 .comment       0x0000000000000011       0x12 /opt/arm-linux-musleabi/bin/../lib/gcc/arm-linux-musleabi/7.3.0/../../../../arm-linux-musleabi/lib/libc_kernel.a(ofl.o)
 .comment       0x0000000000000011       0x12 /opt/arm-linux-musleabi/bin/../lib/gcc/arm-linux-musleabi/7.3.0/../../../../arm-linux-musleabi/lib/libc_kernel.a(printf.o)
 .comment       0x0000000000000011       0x12 /opt/arm-linux-musleabi/bin/../lib/gcc/arm-linux-musleabi/7.3.0/../../../../arm-linux-musleabi/lib/libc_kernel.a(setvbuf.o)
 .comment       0x0000000000000011       0x12 /opt/arm-linux-musleabi/bin/../lib/gcc/arm-linux-musleabi/7.3.0/../../../../arm-linux-musleabi/lib/libc_kernel.a(snprintf.o)
 .comment       0x0000000000000011       0x12 /opt/arm-linux-musleabi/bin/../lib/gcc/arm-linux-musleabi/7.3.0/../../../../arm-linux-musleabi/lib/libc_kernel.a(stdin.o)
 .comment       0x0000000000000011       0x12 /opt/arm-linux-musleabi/bin/../lib/gcc/arm-linux-musleabi/7.3.0/../../../../arm-linux-musleabi/lib/libc_kernel.a(stdout.o)
 .comment       0x0000000000000011       0x12 /opt/arm-linux-musleabi/bin/../lib/gcc/arm-linux-musleabi/7.3.0/../../../../arm-linux-musleabi/lib/libc_kernel.a(vfprintf.o)
 .comment       0x0000000000000011       0x12 /opt/arm-linux-musleabi/bin/../lib/gcc/arm-linux-musleabi/7.3.0/../../../../arm-linux-musleabi/lib/libc_kernel.a(vsnprintf.o)
 .comment       0x0000000000000011       0x12 /opt/arm-linux-musleabi/bin/../lib/gcc/arm-linux-musleabi/7.3.0/../../../../arm-linux-musleabi/lib/libc_kernel.a(atoi.o)
 .comment       0x0000000000000011       0x12 /opt/arm-linux-musleabi/bin/../lib/gcc/arm-linux-musleabi/7.3.0/../../../../arm-linux-musleabi/lib/libc_kernel.a(memcmp.o)
 .comment       0x0000000000000011       0x12 /opt/arm-linux-musleabi/bin/../lib/gcc/arm-linux-musleabi/7.3.0/../../../../arm-linux-musleabi/lib/libc_kernel.a(memset.o)
 .comment       0x0000000000000011       0x12 /opt/arm-linux-musleabi/bin/../lib/gcc/arm-linux-musleabi/7.3.0/../../../../arm-linux-musleabi/lib/libc_kernel.a(stpcpy.o)
 .comment       0x0000000000000011       0x12 /opt/arm-linux-musleabi/bin/../lib/gcc/arm-linux-musleabi/7.3.0/../../../../arm-linux-musleabi/lib/libc_kernel.a(strchr.o)
 .comment       0x0000000000000011       0x12 /opt/arm-linux-musleabi/bin/../lib/gcc/arm-linux-musleabi/7.3.0/../../../../arm-linux-musleabi/lib/libc_kernel.a(strchrnul.o)
 .comment       0x0000000000000011       0x12 /opt/arm-linux-musleabi/bin/../lib/gcc/arm-linux-musleabi/7.3.0/../../../../arm-linux-musleabi/lib/libc_kernel.a(strcmp.o)
 .comment       0x0000000000000011       0x12 /opt/arm-linux-musleabi/bin/../lib/gcc/arm-linux-musleabi/7.3.0/../../../../arm-linux-musleabi/lib/libc_kernel.a(strcpy.o)
 .comment       0x0000000000000011       0x12 /opt/arm-linux-musleabi/bin/../lib/gcc/arm-linux-musleabi/7.3.0/../../../../arm-linux-musleabi/lib/libc_kernel.a(strlen.o)
 .comment       0x0000000000000011       0x12 /opt/arm-linux-musleabi/bin/../lib/gcc/arm-linux-musleabi/7.3.0/../../../../arm-linux-musleabi/lib/libc_kernel.a(strncmp.o)
 .comment       0x0000000000000011       0x12 /opt/arm-linux-musleabi/bin/../lib/gcc/arm-linux-musleabi/7.3.0/../../../../arm-linux-musleabi/lib/libc_kernel.a(strncpy.o)
 .comment       0x0000000000000011       0x12 /opt/arm-linux-musleabi/bin/../lib/gcc/arm-linux-musleabi/7.3.0/../../../../arm-linux-musleabi/lib/libc_kernel.a(strnlen.o)
 .comment       0x0000000000000011       0x12 /opt/arm-linux-musleabi/bin/../lib/gcc/arm-linux-musleabi/7.3.0/../../../../arm-linux-musleabi/lib/libc_kernel.a(strrchr.o)
 .comment       0x0000000000000011       0x12 /opt/arm-linux-musleabi/bin/../lib/gcc/arm-linux-musleabi/7.3.0/../../../../arm-linux-musleabi/lib/libc_kernel.a(strstr.o)
 .comment       0x0000000000000011       0x12 /opt/arm-linux-musleabi/bin/../lib/gcc/arm-linux-musleabi/7.3.0/../../../../arm-linux-musleabi/lib/libc_kernel.a(__lock.o)
 .comment       0x0000000000000011       0x12 /opt/arm-linux-musleabi/bin/../lib/gcc/arm-linux-musleabi/7.3.0/../../../../arm-linux-musleabi/lib/libc_kernel.a(strerror.o)
 .comment       0x0000000000000011       0x12 /opt/arm-linux-musleabi/bin/../lib/gcc/arm-linux-musleabi/7.3.0/../../../../arm-linux-musleabi/lib/libc_kernel.a(rtt_syscall.o)
 .comment       0x0000000000000011       0x12 /opt/arm-linux-musleabi/bin/../lib/gcc/arm-linux-musleabi/7.3.0/../../../../arm-linux-musleabi/lib/libc_kernel.a(libc.o)
 .comment       0x0000000000000011       0x12 /opt/arm-linux-musleabi/bin/../lib/gcc/arm-linux-musleabi/7.3.0/../../../../arm-linux-musleabi/lib/libc_kernel.a(syscall_ret.o)
 .comment       0x0000000000000011       0x12 /opt/arm-linux-musleabi/bin/../lib/gcc/arm-linux-musleabi/7.3.0/../../../../arm-linux-musleabi/lib/libc_kernel.a(__lctrans.o)
 .comment       0x0000000000000011       0x12 /opt/arm-linux-musleabi/bin/../lib/gcc/arm-linux-musleabi/7.3.0/../../../../arm-linux-musleabi/lib/libc_kernel.a(frexpl.o)
 .comment       0x0000000000000011       0x12 /opt/arm-linux-musleabi/bin/../lib/gcc/arm-linux-musleabi/7.3.0/../../../../arm-linux-musleabi/lib/libc_kernel.a(wctomb.o)
 .comment       0x0000000000000011       0x12 /opt/arm-linux-musleabi/bin/../lib/gcc/arm-linux-musleabi/7.3.0/../../../../arm-linux-musleabi/lib/libc_kernel.a(__fdopen.o)
 .comment       0x0000000000000011       0x12 /opt/arm-linux-musleabi/bin/../lib/gcc/arm-linux-musleabi/7.3.0/../../../../arm-linux-musleabi/lib/libc_kernel.a(__fmodeflags.o)
 .comment       0x0000000000000011       0x12 /opt/arm-linux-musleabi/bin/../lib/gcc/arm-linux-musleabi/7.3.0/../../../../arm-linux-musleabi/lib/libc_kernel.a(__lockfile.o)
 .comment       0x0000000000000011       0x12 /opt/arm-linux-musleabi/bin/../lib/gcc/arm-linux-musleabi/7.3.0/../../../../arm-linux-musleabi/lib/libc_kernel.a(__stdio_close.o)
 .comment       0x0000000000000011       0x12 /opt/arm-linux-musleabi/bin/../lib/gcc/arm-linux-musleabi/7.3.0/../../../../arm-linux-musleabi/lib/libc_kernel.a(__stdio_read.o)
 .comment       0x0000000000000011       0x12 /opt/arm-linux-musleabi/bin/../lib/gcc/arm-linux-musleabi/7.3.0/../../../../arm-linux-musleabi/lib/libc_kernel.a(__stdio_seek.o)
 .comment       0x0000000000000011       0x12 /opt/arm-linux-musleabi/bin/../lib/gcc/arm-linux-musleabi/7.3.0/../../../../arm-linux-musleabi/lib/libc_kernel.a(__stdio_write.o)
 .comment       0x0000000000000011       0x12 /opt/arm-linux-musleabi/bin/../lib/gcc/arm-linux-musleabi/7.3.0/../../../../arm-linux-musleabi/lib/libc_kernel.a(__stdout_write.o)
 .comment       0x0000000000000011       0x12 /opt/arm-linux-musleabi/bin/../lib/gcc/arm-linux-musleabi/7.3.0/../../../../arm-linux-musleabi/lib/libc_kernel.a(__towrite.o)
 .comment       0x0000000000000011       0x12 /opt/arm-linux-musleabi/bin/../lib/gcc/arm-linux-musleabi/7.3.0/../../../../arm-linux-musleabi/lib/libc_kernel.a(__uflow.o)
 .comment       0x0000000000000011       0x12 /opt/arm-linux-musleabi/bin/../lib/gcc/arm-linux-musleabi/7.3.0/../../../../arm-linux-musleabi/lib/libc_kernel.a(fwrite.o)
 .comment       0x0000000000000011       0x12 /opt/arm-linux-musleabi/bin/../lib/gcc/arm-linux-musleabi/7.3.0/../../../../arm-linux-musleabi/lib/libc_kernel.a(ofl_add.o)
 .comment       0x0000000000000011       0x12 /opt/arm-linux-musleabi/bin/../lib/gcc/arm-linux-musleabi/7.3.0/../../../../arm-linux-musleabi/lib/libc_kernel.a(memchr.o)
 .comment       0x0000000000000011       0x12 /opt/arm-linux-musleabi/bin/../lib/gcc/arm-linux-musleabi/7.3.0/../../../../arm-linux-musleabi/lib/libc_kernel.a(memrchr.o)
 .comment       0x0000000000000011       0x12 /opt/arm-linux-musleabi/bin/../lib/gcc/arm-linux-musleabi/7.3.0/../../../../arm-linux-musleabi/lib/libc_kernel.a(stpncpy.o)
 .comment       0x0000000000000011       0x12 /opt/arm-linux-musleabi/bin/../lib/gcc/arm-linux-musleabi/7.3.0/../../../../arm-linux-musleabi/lib/libc_kernel.a(frexp.o)
 .comment       0x0000000000000011       0x12 /opt/arm-linux-musleabi/bin/../lib/gcc/arm-linux-musleabi/7.3.0/../../../../arm-linux-musleabi/lib/libc_kernel.a(wcrtomb.o)
 .comment       0x0000000000000011       0x12 /opt/arm-linux-musleabi/bin/../lib/gcc/arm-linux-musleabi/7.3.0/../../../../arm-linux-musleabi/lib/libc_kernel.a(__toread.o)
 .comment       0x0000000000000011       0x12 /opt/arm-linux-musleabi/bin/../lib/gcc/arm-linux-musleabi/7.3.0/libgcc.a(_udivmoddi4.o)
 .comment       0x0000000000000011       0x12 /opt/arm-linux-musleabi/bin/../lib/gcc/arm-linux-musleabi/7.3.0/../../../../arm-linux-musleabi/lib/libc_kernel.a(raise.o)
 .comment       0x0000000000000011       0x12 /opt/arm-linux-musleabi/bin/../lib/gcc/arm-linux-musleabi/7.3.0/../../../../arm-linux-musleabi/lib/libc_kernel.a(block.o)

.note.GNU-stack
                0x0000000000000000        0x0
 .note.GNU-stack
                0x0000000000000000        0x0 build/libcpu/backtrace.o
 .note.GNU-stack
                0x0000000000000000        0x0 build/libcpu/cache.o
 .note.GNU-stack
                0x0000000000000000        0x0 build/libcpu/cpu.o
 .note.GNU-stack
                0x0000000000000000        0x0 build/libcpu/cpuport.o
 .note.GNU-stack
                0x0000000000000000        0x0 build/libcpu/interrupt.o
 .note.GNU-stack
                0x0000000000000000        0x0 build/libcpu/mmu.o
 .note.GNU-stack
                0x0000000000000000        0x0 build/libcpu/page.o
 .note.GNU-stack
                0x0000000000000000        0x0 build/libcpu/rt_low_level_init.o
 .note.GNU-stack
                0x0000000000000000        0x0 build/libcpu/stack.o
 .note.GNU-stack
                0x0000000000000000        0x0 build/libcpu/trap.o
 .note.GNU-stack
                0x0000000000000000        0x0 build/drivers/board.o
 .note.GNU-stack
                0x0000000000000000        0x0 build/drivers/drv_clock.o
 .note.GNU-stack
                0x0000000000000000        0x0 build/drivers/drv_gpio.o
 .note.GNU-stack
                0x0000000000000000        0x0 build/drivers/drv_uart.o
 .note.GNU-stack
                0x0000000000000000        0x0 build/drivers/drv_wdg.o
 .note.GNU-stack
                0x0000000000000000        0x0 build/applications/main.o
 .note.GNU-stack
                0x0000000000000000        0x0 build/kernel/src/clock.o
 .note.GNU-stack
                0x0000000000000000        0x0 build/kernel/src/components.o
 .note.GNU-stack
                0x0000000000000000        0x0 build/kernel/src/device.o
 .note.GNU-stack
                0x0000000000000000        0x0 build/kernel/src/idle.o
 .note.GNU-stack
                0x0000000000000000        0x0 build/kernel/src/ipc.o
 .note.GNU-stack
                0x0000000000000000        0x0 build/kernel/src/irq.o
 .note.GNU-stack
                0x0000000000000000        0x0 build/kernel/src/kservice.o
 .note.GNU-stack
                0x0000000000000000        0x0 build/kernel/src/mempool.o
 .note.GNU-stack
                0x0000000000000000        0x0 build/kernel/src/object.o
 .note.GNU-stack
                0x0000000000000000        0x0 build/kernel/src/scheduler.o
 .note.GNU-stack
                0x0000000000000000        0x0 build/kernel/src/signal.o
 .note.GNU-stack
                0x0000000000000000        0x0 build/kernel/src/slab.o
 .note.GNU-stack
                0x0000000000000000        0x0 build/kernel/src/thread.o
 .note.GNU-stack
                0x0000000000000000        0x0 build/kernel/src/timer.o
 .note.GNU-stack
                0x0000000000000000        0x0 build/kernel/components/lwp/ioremap.o
 .note.GNU-stack
                0x0000000000000000        0x0 build/kernel/components/lwp/lwp.o
 .note.GNU-stack
                0x0000000000000000        0x0 build/kernel/components/lwp/lwp_avl.o
 .note.GNU-stack
                0x0000000000000000        0x0 build/kernel/components/lwp/lwp_console.o
 .note.GNU-stack
                0x0000000000000000        0x0 build/kernel/components/lwp/lwp_futex.o
 .note.GNU-stack
                0x0000000000000000        0x0 build/kernel/components/lwp/lwp_ipc.o
 .note.GNU-stack
                0x0000000000000000        0x0 build/kernel/components/lwp/lwp_mm_area.o
 .note.GNU-stack
                0x0000000000000000        0x0 build/kernel/components/lwp/lwp_pid.o
 .note.GNU-stack
                0x0000000000000000        0x0 build/kernel/components/lwp/lwp_pmutex.o
 .note.GNU-stack
                0x0000000000000000        0x0 build/kernel/components/lwp/lwp_shm.o
 .note.GNU-stack
                0x0000000000000000        0x0 build/kernel/components/lwp/lwp_signal.o
 .note.GNU-stack
                0x0000000000000000        0x0 build/kernel/components/lwp/lwp_syscall.o
 .note.GNU-stack
                0x0000000000000000        0x0 build/kernel/components/lwp/lwp_tid.o
 .note.GNU-stack
                0x0000000000000000        0x0 build/kernel/components/lwp/lwp_user_mm.o
 .note.GNU-stack
                0x0000000000000000        0x0 build/kernel/components/lwp/arch/arm/common/reloc.o
 .note.GNU-stack
                0x0000000000000000        0x0 build/kernel/components/lwp/arch/arm/arm926/arch_user_space_init.o
 .note.GNU-stack
                0x0000000000000000        0x0 build/kernel/components/lwp/arch/arm/arm926/arch_user_stack.o
 .note.GNU-stack
                0x0000000000000000        0x0 build/kernel/components/finsh/shell.o
 .note.GNU-stack
                0x0000000000000000        0x0 build/kernel/components/finsh/cmd.o
 .note.GNU-stack
                0x0000000000000000        0x0 build/kernel/components/finsh/msh.o
 .note.GNU-stack
                0x0000000000000000        0x0 build/kernel/components/finsh/msh_file.o
 .note.GNU-stack
                0x0000000000000000        0x0 build/kernel/components/libc/termios/posix_termios.o
 .note.GNU-stack
                0x0000000000000000        0x0 build/kernel/components/libc/time/clock_time.o
 .note.GNU-stack
                0x0000000000000000        0x0 build/kernel/components/libc/aio/posix_aio.o
 .note.GNU-stack
                0x0000000000000000        0x0 build/kernel/components/libc/compilers/musl/libc.o
 .note.GNU-stack
                0x0000000000000000        0x0 build/kernel/components/libc/compilers/musl/mem.o
 .note.GNU-stack
                0x0000000000000000        0x0 build/kernel/components/libc/compilers/musl/stdio.o
 .note.GNU-stack
                0x0000000000000000        0x0 build/kernel/components/dfs/src/dfs.o
 .note.GNU-stack
                0x0000000000000000        0x0 build/kernel/components/dfs/src/dfs_file.o
 .note.GNU-stack
                0x0000000000000000        0x0 build/kernel/components/dfs/src/dfs_fs.o
 .note.GNU-stack
                0x0000000000000000        0x0 build/kernel/components/dfs/src/dfs_posix.o
 .note.GNU-stack
                0x0000000000000000        0x0 build/kernel/components/dfs/src/poll.o
 .note.GNU-stack
                0x0000000000000000        0x0 build/kernel/components/dfs/src/select.o
 .note.GNU-stack
                0x0000000000000000        0x0 build/kernel/components/dfs/filesystems/devfs/devfs.o
 .note.GNU-stack
                0x0000000000000000        0x0 build/kernel/components/dfs/filesystems/romfs/dfs_romfs.o
 .note.GNU-stack
                0x0000000000000000        0x0 build/kernel/components/drivers/src/completion.o
 .note.GNU-stack
                0x0000000000000000        0x0 build/kernel/components/drivers/src/pipe.o
 .note.GNU-stack
                0x0000000000000000        0x0 build/kernel/components/drivers/src/ringbuffer.o
 .note.GNU-stack
                0x0000000000000000        0x0 build/kernel/components/drivers/src/waitqueue.o
 .note.GNU-stack
                0x0000000000000000        0x0 build/kernel/components/drivers/src/workqueue.o
 .note.GNU-stack
                0x0000000000000000        0x0 build/kernel/components/drivers/serial/serial.o
 .note.GNU-stack
                0x0000000000000000        0x0 build/kernel/components/drivers/watchdog/watchdog.o
 .note.GNU-stack
                0x0000000000000000        0x0 /opt/arm-linux-musleabi/bin/../lib/gcc/arm-linux-musleabi/7.3.0/../../../../arm-linux-musleabi/lib/libc_kernel.a(__environ.o)
 .note.GNU-stack
                0x0000000000000000        0x0 /opt/arm-linux-musleabi/bin/../lib/gcc/arm-linux-musleabi/7.3.0/../../../../arm-linux-musleabi/lib/libc_kernel.a(getenv.o)
 .note.GNU-stack
                0x0000000000000000        0x0 /opt/arm-linux-musleabi/bin/../lib/gcc/arm-linux-musleabi/7.3.0/../../../../arm-linux-musleabi/lib/libc_kernel.a(putenv.o)
 .note.GNU-stack
                0x0000000000000000        0x0 /opt/arm-linux-musleabi/bin/../lib/gcc/arm-linux-musleabi/7.3.0/../../../../arm-linux-musleabi/lib/libc_kernel.a(setenv.o)
 .note.GNU-stack
                0x0000000000000000        0x0 /opt/arm-linux-musleabi/bin/../lib/gcc/arm-linux-musleabi/7.3.0/../../../../arm-linux-musleabi/lib/libc_kernel.a(unsetenv.o)
 .note.GNU-stack
                0x0000000000000000        0x0 /opt/arm-linux-musleabi/bin/../lib/gcc/arm-linux-musleabi/7.3.0/../../../../arm-linux-musleabi/lib/libc_kernel.a(fclose.o)
 .note.GNU-stack
                0x0000000000000000        0x0 /opt/arm-linux-musleabi/bin/../lib/gcc/arm-linux-musleabi/7.3.0/../../../../arm-linux-musleabi/lib/libc_kernel.a(fflush.o)
 .note.GNU-stack
                0x0000000000000000        0x0 /opt/arm-linux-musleabi/bin/../lib/gcc/arm-linux-musleabi/7.3.0/../../../../arm-linux-musleabi/lib/libc_kernel.a(fileno.o)
 .note.GNU-stack
                0x0000000000000000        0x0 /opt/arm-linux-musleabi/bin/../lib/gcc/arm-linux-musleabi/7.3.0/../../../../arm-linux-musleabi/lib/libc_kernel.a(fopen.o)
 .note.GNU-stack
                0x0000000000000000        0x0 /opt/arm-linux-musleabi/bin/../lib/gcc/arm-linux-musleabi/7.3.0/../../../../arm-linux-musleabi/lib/libc_kernel.a(getchar.o)
 .note.GNU-stack
                0x0000000000000000        0x0 /opt/arm-linux-musleabi/bin/../lib/gcc/arm-linux-musleabi/7.3.0/../../../../arm-linux-musleabi/lib/libc_kernel.a(ofl.o)
 .note.GNU-stack
                0x0000000000000000        0x0 /opt/arm-linux-musleabi/bin/../lib/gcc/arm-linux-musleabi/7.3.0/../../../../arm-linux-musleabi/lib/libc_kernel.a(printf.o)
 .note.GNU-stack
                0x0000000000000000        0x0 /opt/arm-linux-musleabi/bin/../lib/gcc/arm-linux-musleabi/7.3.0/../../../../arm-linux-musleabi/lib/libc_kernel.a(setvbuf.o)
 .note.GNU-stack
                0x0000000000000000        0x0 /opt/arm-linux-musleabi/bin/../lib/gcc/arm-linux-musleabi/7.3.0/../../../../arm-linux-musleabi/lib/libc_kernel.a(snprintf.o)
 .note.GNU-stack
                0x0000000000000000        0x0 /opt/arm-linux-musleabi/bin/../lib/gcc/arm-linux-musleabi/7.3.0/../../../../arm-linux-musleabi/lib/libc_kernel.a(stdin.o)
 .note.GNU-stack
                0x0000000000000000        0x0 /opt/arm-linux-musleabi/bin/../lib/gcc/arm-linux-musleabi/7.3.0/../../../../arm-linux-musleabi/lib/libc_kernel.a(stdout.o)
 .note.GNU-stack
                0x0000000000000000        0x0 /opt/arm-linux-musleabi/bin/../lib/gcc/arm-linux-musleabi/7.3.0/../../../../arm-linux-musleabi/lib/libc_kernel.a(vfprintf.o)
 .note.GNU-stack
                0x0000000000000000        0x0 /opt/arm-linux-musleabi/bin/../lib/gcc/arm-linux-musleabi/7.3.0/../../../../arm-linux-musleabi/lib/libc_kernel.a(vsnprintf.o)
 .note.GNU-stack
                0x0000000000000000        0x0 /opt/arm-linux-musleabi/bin/../lib/gcc/arm-linux-musleabi/7.3.0/../../../../arm-linux-musleabi/lib/libc_kernel.a(atoi.o)
 .note.GNU-stack
                0x0000000000000000        0x0 /opt/arm-linux-musleabi/bin/../lib/gcc/arm-linux-musleabi/7.3.0/../../../../arm-linux-musleabi/lib/libc_kernel.a(memcpy_le.o)
 .note.GNU-stack
                0x0000000000000000        0x0 /opt/arm-linux-musleabi/bin/../lib/gcc/arm-linux-musleabi/7.3.0/../../../../arm-linux-musleabi/lib/libc_kernel.a(memcmp.o)
 .note.GNU-stack
                0x0000000000000000        0x0 /opt/arm-linux-musleabi/bin/../lib/gcc/arm-linux-musleabi/7.3.0/../../../../arm-linux-musleabi/lib/libc_kernel.a(memset.o)
 .note.GNU-stack
                0x0000000000000000        0x0 /opt/arm-linux-musleabi/bin/../lib/gcc/arm-linux-musleabi/7.3.0/../../../../arm-linux-musleabi/lib/libc_kernel.a(stpcpy.o)
 .note.GNU-stack
                0x0000000000000000        0x0 /opt/arm-linux-musleabi/bin/../lib/gcc/arm-linux-musleabi/7.3.0/../../../../arm-linux-musleabi/lib/libc_kernel.a(strchr.o)
 .note.GNU-stack
                0x0000000000000000        0x0 /opt/arm-linux-musleabi/bin/../lib/gcc/arm-linux-musleabi/7.3.0/../../../../arm-linux-musleabi/lib/libc_kernel.a(strchrnul.o)
 .note.GNU-stack
                0x0000000000000000        0x0 /opt/arm-linux-musleabi/bin/../lib/gcc/arm-linux-musleabi/7.3.0/../../../../arm-linux-musleabi/lib/libc_kernel.a(strcmp.o)
 .note.GNU-stack
                0x0000000000000000        0x0 /opt/arm-linux-musleabi/bin/../lib/gcc/arm-linux-musleabi/7.3.0/../../../../arm-linux-musleabi/lib/libc_kernel.a(strcpy.o)
 .note.GNU-stack
                0x0000000000000000        0x0 /opt/arm-linux-musleabi/bin/../lib/gcc/arm-linux-musleabi/7.3.0/../../../../arm-linux-musleabi/lib/libc_kernel.a(strlen.o)
 .note.GNU-stack
                0x0000000000000000        0x0 /opt/arm-linux-musleabi/bin/../lib/gcc/arm-linux-musleabi/7.3.0/../../../../arm-linux-musleabi/lib/libc_kernel.a(strncmp.o)
 .note.GNU-stack
                0x0000000000000000        0x0 /opt/arm-linux-musleabi/bin/../lib/gcc/arm-linux-musleabi/7.3.0/../../../../arm-linux-musleabi/lib/libc_kernel.a(strncpy.o)
 .note.GNU-stack
                0x0000000000000000        0x0 /opt/arm-linux-musleabi/bin/../lib/gcc/arm-linux-musleabi/7.3.0/../../../../arm-linux-musleabi/lib/libc_kernel.a(strnlen.o)
 .note.GNU-stack
                0x0000000000000000        0x0 /opt/arm-linux-musleabi/bin/../lib/gcc/arm-linux-musleabi/7.3.0/../../../../arm-linux-musleabi/lib/libc_kernel.a(strrchr.o)
 .note.GNU-stack
                0x0000000000000000        0x0 /opt/arm-linux-musleabi/bin/../lib/gcc/arm-linux-musleabi/7.3.0/../../../../arm-linux-musleabi/lib/libc_kernel.a(strstr.o)
 .note.GNU-stack
                0x0000000000000000        0x0 /opt/arm-linux-musleabi/bin/../lib/gcc/arm-linux-musleabi/7.3.0/../../../../arm-linux-musleabi/lib/libc_kernel.a(__lock.o)
 .note.GNU-stack
                0x0000000000000000        0x0 /opt/arm-linux-musleabi/bin/../lib/gcc/arm-linux-musleabi/7.3.0/../../../../arm-linux-musleabi/lib/libc_kernel.a(atomics.o)
 .note.GNU-stack
                0x0000000000000000        0x0 /opt/arm-linux-musleabi/bin/../lib/gcc/arm-linux-musleabi/7.3.0/../../../../arm-linux-musleabi/lib/libc_kernel.a(strerror.o)
 .note.GNU-stack
                0x0000000000000000        0x0 /opt/arm-linux-musleabi/bin/../lib/gcc/arm-linux-musleabi/7.3.0/../../../../arm-linux-musleabi/lib/libc_kernel.a(rtt_syscall.o)
 .note.GNU-stack
                0x0000000000000000        0x0 /opt/arm-linux-musleabi/bin/../lib/gcc/arm-linux-musleabi/7.3.0/../../../../arm-linux-musleabi/lib/libc_kernel.a(syscall.o)
 .note.GNU-stack
                0x0000000000000000        0x0 /opt/arm-linux-musleabi/bin/../lib/gcc/arm-linux-musleabi/7.3.0/../../../../arm-linux-musleabi/lib/libc_kernel.a(libc.o)
 .note.GNU-stack
                0x0000000000000000        0x0 /opt/arm-linux-musleabi/bin/../lib/gcc/arm-linux-musleabi/7.3.0/../../../../arm-linux-musleabi/lib/libc_kernel.a(syscall_ret.o)
 .note.GNU-stack
                0x0000000000000000        0x0 /opt/arm-linux-musleabi/bin/../lib/gcc/arm-linux-musleabi/7.3.0/../../../../arm-linux-musleabi/lib/libc_kernel.a(__lctrans.o)
 .note.GNU-stack
                0x0000000000000000        0x0 /opt/arm-linux-musleabi/bin/../lib/gcc/arm-linux-musleabi/7.3.0/../../../../arm-linux-musleabi/lib/libc_kernel.a(frexpl.o)
 .note.GNU-stack
                0x0000000000000000        0x0 /opt/arm-linux-musleabi/bin/../lib/gcc/arm-linux-musleabi/7.3.0/../../../../arm-linux-musleabi/lib/libc_kernel.a(wctomb.o)
 .note.GNU-stack
                0x0000000000000000        0x0 /opt/arm-linux-musleabi/bin/../lib/gcc/arm-linux-musleabi/7.3.0/../../../../arm-linux-musleabi/lib/libc_kernel.a(__fdopen.o)
 .note.GNU-stack
                0x0000000000000000        0x0 /opt/arm-linux-musleabi/bin/../lib/gcc/arm-linux-musleabi/7.3.0/../../../../arm-linux-musleabi/lib/libc_kernel.a(__fmodeflags.o)
 .note.GNU-stack
                0x0000000000000000        0x0 /opt/arm-linux-musleabi/bin/../lib/gcc/arm-linux-musleabi/7.3.0/../../../../arm-linux-musleabi/lib/libc_kernel.a(__lockfile.o)
 .note.GNU-stack
                0x0000000000000000        0x0 /opt/arm-linux-musleabi/bin/../lib/gcc/arm-linux-musleabi/7.3.0/../../../../arm-linux-musleabi/lib/libc_kernel.a(__stdio_close.o)
 .note.GNU-stack
                0x0000000000000000        0x0 /opt/arm-linux-musleabi/bin/../lib/gcc/arm-linux-musleabi/7.3.0/../../../../arm-linux-musleabi/lib/libc_kernel.a(__stdio_read.o)
 .note.GNU-stack
                0x0000000000000000        0x0 /opt/arm-linux-musleabi/bin/../lib/gcc/arm-linux-musleabi/7.3.0/../../../../arm-linux-musleabi/lib/libc_kernel.a(__stdio_seek.o)
 .note.GNU-stack
                0x0000000000000000        0x0 /opt/arm-linux-musleabi/bin/../lib/gcc/arm-linux-musleabi/7.3.0/../../../../arm-linux-musleabi/lib/libc_kernel.a(__stdio_write.o)
 .note.GNU-stack
                0x0000000000000000        0x0 /opt/arm-linux-musleabi/bin/../lib/gcc/arm-linux-musleabi/7.3.0/../../../../arm-linux-musleabi/lib/libc_kernel.a(__stdout_write.o)
 .note.GNU-stack
                0x0000000000000000        0x0 /opt/arm-linux-musleabi/bin/../lib/gcc/arm-linux-musleabi/7.3.0/../../../../arm-linux-musleabi/lib/libc_kernel.a(__towrite.o)
 .note.GNU-stack
                0x0000000000000000        0x0 /opt/arm-linux-musleabi/bin/../lib/gcc/arm-linux-musleabi/7.3.0/../../../../arm-linux-musleabi/lib/libc_kernel.a(__uflow.o)
 .note.GNU-stack
                0x0000000000000000        0x0 /opt/arm-linux-musleabi/bin/../lib/gcc/arm-linux-musleabi/7.3.0/../../../../arm-linux-musleabi/lib/libc_kernel.a(fwrite.o)
 .note.GNU-stack
                0x0000000000000000        0x0 /opt/arm-linux-musleabi/bin/../lib/gcc/arm-linux-musleabi/7.3.0/../../../../arm-linux-musleabi/lib/libc_kernel.a(ofl_add.o)
 .note.GNU-stack
                0x0000000000000000        0x0 /opt/arm-linux-musleabi/bin/../lib/gcc/arm-linux-musleabi/7.3.0/../../../../arm-linux-musleabi/lib/libc_kernel.a(memchr.o)
 .note.GNU-stack
                0x0000000000000000        0x0 /opt/arm-linux-musleabi/bin/../lib/gcc/arm-linux-musleabi/7.3.0/../../../../arm-linux-musleabi/lib/libc_kernel.a(memrchr.o)
 .note.GNU-stack
                0x0000000000000000        0x0 /opt/arm-linux-musleabi/bin/../lib/gcc/arm-linux-musleabi/7.3.0/../../../../arm-linux-musleabi/lib/libc_kernel.a(stpncpy.o)
 .note.GNU-stack
                0x0000000000000000        0x0 /opt/arm-linux-musleabi/bin/../lib/gcc/arm-linux-musleabi/7.3.0/../../../../arm-linux-musleabi/lib/libc_kernel.a(frexp.o)
 .note.GNU-stack
                0x0000000000000000        0x0 /opt/arm-linux-musleabi/bin/../lib/gcc/arm-linux-musleabi/7.3.0/../../../../arm-linux-musleabi/lib/libc_kernel.a(wcrtomb.o)
 .note.GNU-stack
                0x0000000000000000        0x0 /opt/arm-linux-musleabi/bin/../lib/gcc/arm-linux-musleabi/7.3.0/../../../../arm-linux-musleabi/lib/libc_kernel.a(__toread.o)
 .note.GNU-stack
                0x0000000000000000        0x0 /opt/arm-linux-musleabi/bin/../lib/gcc/arm-linux-musleabi/7.3.0/libgcc.a(_udivsi3.o)
 .note.GNU-stack
                0x0000000000000000        0x0 /opt/arm-linux-musleabi/bin/../lib/gcc/arm-linux-musleabi/7.3.0/libgcc.a(_divsi3.o)
 .note.GNU-stack
                0x0000000000000000        0x0 /opt/arm-linux-musleabi/bin/../lib/gcc/arm-linux-musleabi/7.3.0/libgcc.a(_arm_addsubdf3.o)
 .note.GNU-stack
                0x0000000000000000        0x0 /opt/arm-linux-musleabi/bin/../lib/gcc/arm-linux-musleabi/7.3.0/libgcc.a(_arm_muldivdf3.o)
 .note.GNU-stack
                0x0000000000000000        0x0 /opt/arm-linux-musleabi/bin/../lib/gcc/arm-linux-musleabi/7.3.0/libgcc.a(_arm_cmpdf2.o)
 .note.GNU-stack
                0x0000000000000000        0x0 /opt/arm-linux-musleabi/bin/../lib/gcc/arm-linux-musleabi/7.3.0/libgcc.a(_arm_fixdfsi.o)
 .note.GNU-stack
                0x0000000000000000        0x0 /opt/arm-linux-musleabi/bin/../lib/gcc/arm-linux-musleabi/7.3.0/libgcc.a(_arm_fixunsdfsi.o)
 .note.GNU-stack
                0x0000000000000000        0x0 /opt/arm-linux-musleabi/bin/../lib/gcc/arm-linux-musleabi/7.3.0/libgcc.a(_aeabi_uldivmod.o)
 .note.GNU-stack
                0x0000000000000000        0x0 /opt/arm-linux-musleabi/bin/../lib/gcc/arm-linux-musleabi/7.3.0/libgcc.a(_dvmd_lnx.o)
 .note.GNU-stack
                0x0000000000000000        0x0 /opt/arm-linux-musleabi/bin/../lib/gcc/arm-linux-musleabi/7.3.0/libgcc.a(_udivmoddi4.o)
 .note.GNU-stack
                0x0000000000000000        0x0 /opt/arm-linux-musleabi/bin/../lib/gcc/arm-linux-musleabi/7.3.0/../../../../arm-linux-musleabi/lib/libc_kernel.a(raise.o)
 .note.GNU-stack
                0x0000000000000000        0x0 /opt/arm-linux-musleabi/bin/../lib/gcc/arm-linux-musleabi/7.3.0/../../../../arm-linux-musleabi/lib/libc_kernel.a(block.o)

.ARM.attributes
                0x0000000000000000       0x32
 .ARM.attributes
                0x0000000000000000       0x32 build/libcpu/backtrace.o
 .ARM.attributes
                0x0000000000000032       0x32 build/libcpu/cache.o
 .ARM.attributes
                0x0000000000000064       0x32 build/libcpu/cpu.o
 .ARM.attributes
                0x0000000000000096       0x32 build/libcpu/cpuport.o
 .ARM.attributes
                0x00000000000000c8       0x32 build/libcpu/interrupt.o
 .ARM.attributes
                0x00000000000000fa       0x32 build/libcpu/mmu.o
 .ARM.attributes
                0x000000000000012c       0x32 build/libcpu/page.o
 .ARM.attributes
                0x000000000000015e       0x32 build/libcpu/rt_low_level_init.o
 .ARM.attributes
                0x0000000000000190       0x32 build/libcpu/stack.o
 .ARM.attributes
                0x00000000000001c2       0x32 build/libcpu/trap.o
 .ARM.attributes
                0x00000000000001f4       0x22 build/libcpu/context_gcc.o
 .ARM.attributes
                0x0000000000000216       0x22 build/libcpu/mmu_gcc.o
 .ARM.attributes
                0x0000000000000238       0x22 build/libcpu/start_gcc.o
 .ARM.attributes
                0x000000000000025a       0x32 build/drivers/board.o
 .ARM.attributes
                0x000000000000028c       0x32 build/drivers/drv_clock.o
 .ARM.attributes
                0x00000000000002be       0x32 build/drivers/drv_gpio.o
 .ARM.attributes
                0x00000000000002f0       0x32 build/drivers/drv_uart.o
 .ARM.attributes
                0x0000000000000322       0x32 build/drivers/drv_wdg.o
 .ARM.attributes
                0x0000000000000354       0x32 build/applications/main.o
 .ARM.attributes
                0x0000000000000386       0x32 build/kernel/src/clock.o
 .ARM.attributes
                0x00000000000003b8       0x32 build/kernel/src/components.o
 .ARM.attributes
                0x00000000000003ea       0x32 build/kernel/src/device.o
 .ARM.attributes
                0x000000000000041c       0x32 build/kernel/src/idle.o
 .ARM.attributes
                0x000000000000044e       0x32 build/kernel/src/ipc.o
 .ARM.attributes
                0x0000000000000480       0x32 build/kernel/src/irq.o
 .ARM.attributes
                0x00000000000004b2       0x32 build/kernel/src/kservice.o
 .ARM.attributes
                0x00000000000004e4       0x32 build/kernel/src/mempool.o
 .ARM.attributes
                0x0000000000000516       0x32 build/kernel/src/object.o
 .ARM.attributes
                0x0000000000000548       0x32 build/kernel/src/scheduler.o
 .ARM.attributes
                0x000000000000057a       0x32 build/kernel/src/signal.o
 .ARM.attributes
                0x00000000000005ac       0x32 build/kernel/src/slab.o
 .ARM.attributes
                0x00000000000005de       0x32 build/kernel/src/thread.o
 .ARM.attributes
                0x0000000000000610       0x32 build/kernel/src/timer.o
 .ARM.attributes
                0x0000000000000642       0x32 build/kernel/components/lwp/ioremap.o
 .ARM.attributes
                0x0000000000000674       0x32 build/kernel/components/lwp/lwp.o
 .ARM.attributes
                0x00000000000006a6       0x32 build/kernel/components/lwp/lwp_avl.o
 .ARM.attributes
                0x00000000000006d8       0x32 build/kernel/components/lwp/lwp_console.o
 .ARM.attributes
                0x000000000000070a       0x32 build/kernel/components/lwp/lwp_futex.o
 .ARM.attributes
                0x000000000000073c       0x32 build/kernel/components/lwp/lwp_ipc.o
 .ARM.attributes
                0x000000000000076e       0x32 build/kernel/components/lwp/lwp_mm_area.o
 .ARM.attributes
                0x00000000000007a0       0x32 build/kernel/components/lwp/lwp_pid.o
 .ARM.attributes
                0x00000000000007d2       0x32 build/kernel/components/lwp/lwp_pmutex.o
 .ARM.attributes
                0x0000000000000804       0x32 build/kernel/components/lwp/lwp_shm.o
 .ARM.attributes
                0x0000000000000836       0x32 build/kernel/components/lwp/lwp_signal.o
 .ARM.attributes
                0x0000000000000868       0x32 build/kernel/components/lwp/lwp_syscall.o
 .ARM.attributes
                0x000000000000089a       0x32 build/kernel/components/lwp/lwp_tid.o
 .ARM.attributes
                0x00000000000008cc       0x32 build/kernel/components/lwp/lwp_user_mm.o
 .ARM.attributes
                0x00000000000008fe       0x22 build/kernel/components/lwp/arch/arm/arm926/lwp_gcc.o
 .ARM.attributes
                0x0000000000000920       0x32 build/kernel/components/lwp/arch/arm/common/reloc.o
 .ARM.attributes
                0x0000000000000952       0x32 build/kernel/components/lwp/arch/arm/arm926/arch_user_space_init.o
 .ARM.attributes
                0x0000000000000984       0x32 build/kernel/components/lwp/arch/arm/arm926/arch_user_stack.o
 .ARM.attributes
                0x00000000000009b6       0x32 build/kernel/components/finsh/shell.o
 .ARM.attributes
                0x00000000000009e8       0x32 build/kernel/components/finsh/cmd.o
 .ARM.attributes
                0x0000000000000a1a       0x32 build/kernel/components/finsh/msh.o
 .ARM.attributes
                0x0000000000000a4c       0x32 build/kernel/components/finsh/msh_file.o
 .ARM.attributes
                0x0000000000000a7e       0x32 build/kernel/components/libc/termios/posix_termios.o
 .ARM.attributes
                0x0000000000000ab0       0x32 build/kernel/components/libc/time/clock_time.o
 .ARM.attributes
                0x0000000000000ae2       0x32 build/kernel/components/libc/aio/posix_aio.o
 .ARM.attributes
                0x0000000000000b14       0x32 build/kernel/components/libc/compilers/musl/libc.o
 .ARM.attributes
                0x0000000000000b46       0x32 build/kernel/components/libc/compilers/musl/mem.o
 .ARM.attributes
                0x0000000000000b78       0x32 build/kernel/components/libc/compilers/musl/stdio.o
 .ARM.attributes
                0x0000000000000baa       0x32 build/kernel/components/dfs/src/dfs.o
 .ARM.attributes
                0x0000000000000bdc       0x32 build/kernel/components/dfs/src/dfs_file.o
 .ARM.attributes
                0x0000000000000c0e       0x32 build/kernel/components/dfs/src/dfs_fs.o
 .ARM.attributes
                0x0000000000000c40       0x32 build/kernel/components/dfs/src/dfs_posix.o
 .ARM.attributes
                0x0000000000000c72       0x32 build/kernel/components/dfs/src/poll.o
 .ARM.attributes
                0x0000000000000ca4       0x32 build/kernel/components/dfs/src/select.o
 .ARM.attributes
                0x0000000000000cd6       0x32 build/kernel/components/dfs/filesystems/devfs/devfs.o
 .ARM.attributes
                0x0000000000000d08       0x32 build/kernel/components/dfs/filesystems/romfs/dfs_romfs.o
 .ARM.attributes
                0x0000000000000d3a       0x32 build/kernel/components/drivers/src/completion.o
 .ARM.attributes
                0x0000000000000d6c       0x32 build/kernel/components/drivers/src/pipe.o
 .ARM.attributes
                0x0000000000000d9e       0x32 build/kernel/components/drivers/src/ringbuffer.o
 .ARM.attributes
                0x0000000000000dd0       0x32 build/kernel/components/drivers/src/waitqueue.o
 .ARM.attributes
                0x0000000000000e02       0x32 build/kernel/components/drivers/src/workqueue.o
 .ARM.attributes
                0x0000000000000e34       0x32 build/kernel/components/drivers/serial/serial.o
 .ARM.attributes
                0x0000000000000e66       0x32 build/kernel/components/drivers/watchdog/watchdog.o
 .ARM.attributes
                0x0000000000000e98       0x33 /opt/arm-linux-musleabi/bin/../lib/gcc/arm-linux-musleabi/7.3.0/../../../../arm-linux-musleabi/lib/libc_kernel.a(__environ.o)
 .ARM.attributes
                0x0000000000000ecb       0x33 /opt/arm-linux-musleabi/bin/../lib/gcc/arm-linux-musleabi/7.3.0/../../../../arm-linux-musleabi/lib/libc_kernel.a(getenv.o)
 .ARM.attributes
                0x0000000000000efe       0x33 /opt/arm-linux-musleabi/bin/../lib/gcc/arm-linux-musleabi/7.3.0/../../../../arm-linux-musleabi/lib/libc_kernel.a(putenv.o)
 .ARM.attributes
                0x0000000000000f31       0x33 /opt/arm-linux-musleabi/bin/../lib/gcc/arm-linux-musleabi/7.3.0/../../../../arm-linux-musleabi/lib/libc_kernel.a(setenv.o)
 .ARM.attributes
                0x0000000000000f64       0x33 /opt/arm-linux-musleabi/bin/../lib/gcc/arm-linux-musleabi/7.3.0/../../../../arm-linux-musleabi/lib/libc_kernel.a(unsetenv.o)
 .ARM.attributes
                0x0000000000000f97       0x33 /opt/arm-linux-musleabi/bin/../lib/gcc/arm-linux-musleabi/7.3.0/../../../../arm-linux-musleabi/lib/libc_kernel.a(fclose.o)
 .ARM.attributes
                0x0000000000000fca       0x33 /opt/arm-linux-musleabi/bin/../lib/gcc/arm-linux-musleabi/7.3.0/../../../../arm-linux-musleabi/lib/libc_kernel.a(fflush.o)
 .ARM.attributes
                0x0000000000000ffd       0x33 /opt/arm-linux-musleabi/bin/../lib/gcc/arm-linux-musleabi/7.3.0/../../../../arm-linux-musleabi/lib/libc_kernel.a(fileno.o)
 .ARM.attributes
                0x0000000000001030       0x33 /opt/arm-linux-musleabi/bin/../lib/gcc/arm-linux-musleabi/7.3.0/../../../../arm-linux-musleabi/lib/libc_kernel.a(fopen.o)
 .ARM.attributes
                0x0000000000001063       0x33 /opt/arm-linux-musleabi/bin/../lib/gcc/arm-linux-musleabi/7.3.0/../../../../arm-linux-musleabi/lib/libc_kernel.a(getchar.o)
 .ARM.attributes
                0x0000000000001096       0x33 /opt/arm-linux-musleabi/bin/../lib/gcc/arm-linux-musleabi/7.3.0/../../../../arm-linux-musleabi/lib/libc_kernel.a(ofl.o)
 .ARM.attributes
                0x00000000000010c9       0x33 /opt/arm-linux-musleabi/bin/../lib/gcc/arm-linux-musleabi/7.3.0/../../../../arm-linux-musleabi/lib/libc_kernel.a(printf.o)
 .ARM.attributes
                0x00000000000010fc       0x33 /opt/arm-linux-musleabi/bin/../lib/gcc/arm-linux-musleabi/7.3.0/../../../../arm-linux-musleabi/lib/libc_kernel.a(setvbuf.o)
 .ARM.attributes
                0x000000000000112f       0x33 /opt/arm-linux-musleabi/bin/../lib/gcc/arm-linux-musleabi/7.3.0/../../../../arm-linux-musleabi/lib/libc_kernel.a(snprintf.o)
 .ARM.attributes
                0x0000000000001162       0x33 /opt/arm-linux-musleabi/bin/../lib/gcc/arm-linux-musleabi/7.3.0/../../../../arm-linux-musleabi/lib/libc_kernel.a(stdin.o)
 .ARM.attributes
                0x0000000000001195       0x33 /opt/arm-linux-musleabi/bin/../lib/gcc/arm-linux-musleabi/7.3.0/../../../../arm-linux-musleabi/lib/libc_kernel.a(stdout.o)
 .ARM.attributes
                0x00000000000011c8       0x33 /opt/arm-linux-musleabi/bin/../lib/gcc/arm-linux-musleabi/7.3.0/../../../../arm-linux-musleabi/lib/libc_kernel.a(vfprintf.o)
 .ARM.attributes
                0x00000000000011fb       0x33 /opt/arm-linux-musleabi/bin/../lib/gcc/arm-linux-musleabi/7.3.0/../../../../arm-linux-musleabi/lib/libc_kernel.a(vsnprintf.o)
 .ARM.attributes
                0x000000000000122e       0x33 /opt/arm-linux-musleabi/bin/../lib/gcc/arm-linux-musleabi/7.3.0/../../../../arm-linux-musleabi/lib/libc_kernel.a(atoi.o)
 .ARM.attributes
                0x0000000000001261       0x16 /opt/arm-linux-musleabi/bin/../lib/gcc/arm-linux-musleabi/7.3.0/../../../../arm-linux-musleabi/lib/libc_kernel.a(memcpy_le.o)
 .ARM.attributes
                0x0000000000001277       0x33 /opt/arm-linux-musleabi/bin/../lib/gcc/arm-linux-musleabi/7.3.0/../../../../arm-linux-musleabi/lib/libc_kernel.a(memcmp.o)
 .ARM.attributes
                0x00000000000012aa       0x33 /opt/arm-linux-musleabi/bin/../lib/gcc/arm-linux-musleabi/7.3.0/../../../../arm-linux-musleabi/lib/libc_kernel.a(memset.o)
 .ARM.attributes
                0x00000000000012dd       0x33 /opt/arm-linux-musleabi/bin/../lib/gcc/arm-linux-musleabi/7.3.0/../../../../arm-linux-musleabi/lib/libc_kernel.a(stpcpy.o)
 .ARM.attributes
                0x0000000000001310       0x33 /opt/arm-linux-musleabi/bin/../lib/gcc/arm-linux-musleabi/7.3.0/../../../../arm-linux-musleabi/lib/libc_kernel.a(strchr.o)
 .ARM.attributes
                0x0000000000001343       0x33 /opt/arm-linux-musleabi/bin/../lib/gcc/arm-linux-musleabi/7.3.0/../../../../arm-linux-musleabi/lib/libc_kernel.a(strchrnul.o)
 .ARM.attributes
                0x0000000000001376       0x33 /opt/arm-linux-musleabi/bin/../lib/gcc/arm-linux-musleabi/7.3.0/../../../../arm-linux-musleabi/lib/libc_kernel.a(strcmp.o)
 .ARM.attributes
                0x00000000000013a9       0x33 /opt/arm-linux-musleabi/bin/../lib/gcc/arm-linux-musleabi/7.3.0/../../../../arm-linux-musleabi/lib/libc_kernel.a(strcpy.o)
 .ARM.attributes
                0x00000000000013dc       0x33 /opt/arm-linux-musleabi/bin/../lib/gcc/arm-linux-musleabi/7.3.0/../../../../arm-linux-musleabi/lib/libc_kernel.a(strlen.o)
 .ARM.attributes
                0x000000000000140f       0x33 /opt/arm-linux-musleabi/bin/../lib/gcc/arm-linux-musleabi/7.3.0/../../../../arm-linux-musleabi/lib/libc_kernel.a(strncmp.o)
 .ARM.attributes
                0x0000000000001442       0x33 /opt/arm-linux-musleabi/bin/../lib/gcc/arm-linux-musleabi/7.3.0/../../../../arm-linux-musleabi/lib/libc_kernel.a(strncpy.o)
 .ARM.attributes
                0x0000000000001475       0x33 /opt/arm-linux-musleabi/bin/../lib/gcc/arm-linux-musleabi/7.3.0/../../../../arm-linux-musleabi/lib/libc_kernel.a(strnlen.o)
 .ARM.attributes
                0x00000000000014a8       0x33 /opt/arm-linux-musleabi/bin/../lib/gcc/arm-linux-musleabi/7.3.0/../../../../arm-linux-musleabi/lib/libc_kernel.a(strrchr.o)
 .ARM.attributes
                0x00000000000014db       0x33 /opt/arm-linux-musleabi/bin/../lib/gcc/arm-linux-musleabi/7.3.0/../../../../arm-linux-musleabi/lib/libc_kernel.a(strstr.o)
 .ARM.attributes
                0x000000000000150e       0x33 /opt/arm-linux-musleabi/bin/../lib/gcc/arm-linux-musleabi/7.3.0/../../../../arm-linux-musleabi/lib/libc_kernel.a(__lock.o)
 .ARM.attributes
                0x0000000000001541       0x1b /opt/arm-linux-musleabi/bin/../lib/gcc/arm-linux-musleabi/7.3.0/../../../../arm-linux-musleabi/lib/libc_kernel.a(atomics.o)
 .ARM.attributes
                0x000000000000155c       0x33 /opt/arm-linux-musleabi/bin/../lib/gcc/arm-linux-musleabi/7.3.0/../../../../arm-linux-musleabi/lib/libc_kernel.a(strerror.o)
 .ARM.attributes
                0x000000000000158f       0x33 /opt/arm-linux-musleabi/bin/../lib/gcc/arm-linux-musleabi/7.3.0/../../../../arm-linux-musleabi/lib/libc_kernel.a(rtt_syscall.o)
 .ARM.attributes
                0x00000000000015c2       0x16 /opt/arm-linux-musleabi/bin/../lib/gcc/arm-linux-musleabi/7.3.0/../../../../arm-linux-musleabi/lib/libc_kernel.a(syscall.o)
 .ARM.attributes
                0x00000000000015d8       0x33 /opt/arm-linux-musleabi/bin/../lib/gcc/arm-linux-musleabi/7.3.0/../../../../arm-linux-musleabi/lib/libc_kernel.a(libc.o)
 .ARM.attributes
                0x000000000000160b       0x33 /opt/arm-linux-musleabi/bin/../lib/gcc/arm-linux-musleabi/7.3.0/../../../../arm-linux-musleabi/lib/libc_kernel.a(syscall_ret.o)
 .ARM.attributes
                0x000000000000163e       0x33 /opt/arm-linux-musleabi/bin/../lib/gcc/arm-linux-musleabi/7.3.0/../../../../arm-linux-musleabi/lib/libc_kernel.a(__lctrans.o)
 .ARM.attributes
                0x0000000000001671       0x33 /opt/arm-linux-musleabi/bin/../lib/gcc/arm-linux-musleabi/7.3.0/../../../../arm-linux-musleabi/lib/libc_kernel.a(frexpl.o)
 .ARM.attributes
                0x00000000000016a4       0x33 /opt/arm-linux-musleabi/bin/../lib/gcc/arm-linux-musleabi/7.3.0/../../../../arm-linux-musleabi/lib/libc_kernel.a(wctomb.o)
 .ARM.attributes
                0x00000000000016d7       0x33 /opt/arm-linux-musleabi/bin/../lib/gcc/arm-linux-musleabi/7.3.0/../../../../arm-linux-musleabi/lib/libc_kernel.a(__fdopen.o)
 .ARM.attributes
                0x000000000000170a       0x33 /opt/arm-linux-musleabi/bin/../lib/gcc/arm-linux-musleabi/7.3.0/../../../../arm-linux-musleabi/lib/libc_kernel.a(__fmodeflags.o)
 .ARM.attributes
                0x000000000000173d       0x33 /opt/arm-linux-musleabi/bin/../lib/gcc/arm-linux-musleabi/7.3.0/../../../../arm-linux-musleabi/lib/libc_kernel.a(__lockfile.o)
 .ARM.attributes
                0x0000000000001770       0x33 /opt/arm-linux-musleabi/bin/../lib/gcc/arm-linux-musleabi/7.3.0/../../../../arm-linux-musleabi/lib/libc_kernel.a(__stdio_close.o)
 .ARM.attributes
                0x00000000000017a3       0x33 /opt/arm-linux-musleabi/bin/../lib/gcc/arm-linux-musleabi/7.3.0/../../../../arm-linux-musleabi/lib/libc_kernel.a(__stdio_read.o)
 .ARM.attributes
                0x00000000000017d6       0x33 /opt/arm-linux-musleabi/bin/../lib/gcc/arm-linux-musleabi/7.3.0/../../../../arm-linux-musleabi/lib/libc_kernel.a(__stdio_seek.o)
 .ARM.attributes
                0x0000000000001809       0x33 /opt/arm-linux-musleabi/bin/../lib/gcc/arm-linux-musleabi/7.3.0/../../../../arm-linux-musleabi/lib/libc_kernel.a(__stdio_write.o)
 .ARM.attributes
                0x000000000000183c       0x33 /opt/arm-linux-musleabi/bin/../lib/gcc/arm-linux-musleabi/7.3.0/../../../../arm-linux-musleabi/lib/libc_kernel.a(__stdout_write.o)
 .ARM.attributes
                0x000000000000186f       0x33 /opt/arm-linux-musleabi/bin/../lib/gcc/arm-linux-musleabi/7.3.0/../../../../arm-linux-musleabi/lib/libc_kernel.a(__towrite.o)
 .ARM.attributes
                0x00000000000018a2       0x33 /opt/arm-linux-musleabi/bin/../lib/gcc/arm-linux-musleabi/7.3.0/../../../../arm-linux-musleabi/lib/libc_kernel.a(__uflow.o)
 .ARM.attributes
                0x00000000000018d5       0x33 /opt/arm-linux-musleabi/bin/../lib/gcc/arm-linux-musleabi/7.3.0/../../../../arm-linux-musleabi/lib/libc_kernel.a(fwrite.o)
 .ARM.attributes
                0x0000000000001908       0x33 /opt/arm-linux-musleabi/bin/../lib/gcc/arm-linux-musleabi/7.3.0/../../../../arm-linux-musleabi/lib/libc_kernel.a(ofl_add.o)
 .ARM.attributes
                0x000000000000193b       0x33 /opt/arm-linux-musleabi/bin/../lib/gcc/arm-linux-musleabi/7.3.0/../../../../arm-linux-musleabi/lib/libc_kernel.a(memchr.o)
 .ARM.attributes
                0x000000000000196e       0x33 /opt/arm-linux-musleabi/bin/../lib/gcc/arm-linux-musleabi/7.3.0/../../../../arm-linux-musleabi/lib/libc_kernel.a(memrchr.o)
 .ARM.attributes
                0x00000000000019a1       0x33 /opt/arm-linux-musleabi/bin/../lib/gcc/arm-linux-musleabi/7.3.0/../../../../arm-linux-musleabi/lib/libc_kernel.a(stpncpy.o)
 .ARM.attributes
                0x00000000000019d4       0x33 /opt/arm-linux-musleabi/bin/../lib/gcc/arm-linux-musleabi/7.3.0/../../../../arm-linux-musleabi/lib/libc_kernel.a(frexp.o)
 .ARM.attributes
                0x0000000000001a07       0x33 /opt/arm-linux-musleabi/bin/../lib/gcc/arm-linux-musleabi/7.3.0/../../../../arm-linux-musleabi/lib/libc_kernel.a(wcrtomb.o)
 .ARM.attributes
                0x0000000000001a3a       0x33 /opt/arm-linux-musleabi/bin/../lib/gcc/arm-linux-musleabi/7.3.0/../../../../arm-linux-musleabi/lib/libc_kernel.a(__toread.o)
 .ARM.attributes
                0x0000000000001a6d       0x18 /opt/arm-linux-musleabi/bin/../lib/gcc/arm-linux-musleabi/7.3.0/libgcc.a(_udivsi3.o)
 .ARM.attributes
                0x0000000000001a85       0x18 /opt/arm-linux-musleabi/bin/../lib/gcc/arm-linux-musleabi/7.3.0/libgcc.a(_divsi3.o)
 .ARM.attributes
                0x0000000000001a9d       0x18 /opt/arm-linux-musleabi/bin/../lib/gcc/arm-linux-musleabi/7.3.0/libgcc.a(_arm_addsubdf3.o)
 .ARM.attributes
                0x0000000000001ab5       0x18 /opt/arm-linux-musleabi/bin/../lib/gcc/arm-linux-musleabi/7.3.0/libgcc.a(_arm_muldivdf3.o)
 .ARM.attributes
                0x0000000000001acd       0x18 /opt/arm-linux-musleabi/bin/../lib/gcc/arm-linux-musleabi/7.3.0/libgcc.a(_arm_cmpdf2.o)
 .ARM.attributes
                0x0000000000001ae5       0x18 /opt/arm-linux-musleabi/bin/../lib/gcc/arm-linux-musleabi/7.3.0/libgcc.a(_arm_fixdfsi.o)
 .ARM.attributes
                0x0000000000001afd       0x18 /opt/arm-linux-musleabi/bin/../lib/gcc/arm-linux-musleabi/7.3.0/libgcc.a(_arm_fixunsdfsi.o)
 .ARM.attributes
                0x0000000000001b15       0x18 /opt/arm-linux-musleabi/bin/../lib/gcc/arm-linux-musleabi/7.3.0/libgcc.a(_aeabi_uldivmod.o)
 .ARM.attributes
                0x0000000000001b2d       0x14 /opt/arm-linux-musleabi/bin/../lib/gcc/arm-linux-musleabi/7.3.0/libgcc.a(_dvmd_lnx.o)
 .ARM.attributes
                0x0000000000001b41       0x31 /opt/arm-linux-musleabi/bin/../lib/gcc/arm-linux-musleabi/7.3.0/libgcc.a(_udivmoddi4.o)
 .ARM.attributes
                0x0000000000001b72       0x33 /opt/arm-linux-musleabi/bin/../lib/gcc/arm-linux-musleabi/7.3.0/../../../../arm-linux-musleabi/lib/libc_kernel.a(raise.o)
 .ARM.attributes
                0x0000000000001ba5       0x33 /opt/arm-linux-musleabi/bin/../lib/gcc/arm-linux-musleabi/7.3.0/../../../../arm-linux-musleabi/lib/libc_kernel.a(block.o)

.debug_abbrev   0x0000000000000000     0x4cb7
 *(.debug_abbrev)
 .debug_abbrev  0x0000000000000000       0x5c /opt/arm-linux-musleabi/bin/../lib/gcc/arm-linux-musleabi/7.3.0/../../../../arm-linux-musleabi/lib/libc_kernel.a(__environ.o)
 .debug_abbrev  0x000000000000005c       0xc3 /opt/arm-linux-musleabi/bin/../lib/gcc/arm-linux-musleabi/7.3.0/../../../../arm-linux-musleabi/lib/libc_kernel.a(getenv.o)
 .debug_abbrev  0x000000000000011f      0x163 /opt/arm-linux-musleabi/bin/../lib/gcc/arm-linux-musleabi/7.3.0/../../../../arm-linux-musleabi/lib/libc_kernel.a(putenv.o)
 .debug_abbrev  0x0000000000000282      0x105 /opt/arm-linux-musleabi/bin/../lib/gcc/arm-linux-musleabi/7.3.0/../../../../arm-linux-musleabi/lib/libc_kernel.a(setenv.o)
 .debug_abbrev  0x0000000000000387      0x100 /opt/arm-linux-musleabi/bin/../lib/gcc/arm-linux-musleabi/7.3.0/../../../../arm-linux-musleabi/lib/libc_kernel.a(unsetenv.o)
 .debug_abbrev  0x0000000000000487      0x176 /opt/arm-linux-musleabi/bin/../lib/gcc/arm-linux-musleabi/7.3.0/../../../../arm-linux-musleabi/lib/libc_kernel.a(fclose.o)
 .debug_abbrev  0x00000000000005fd      0x172 /opt/arm-linux-musleabi/bin/../lib/gcc/arm-linux-musleabi/7.3.0/../../../../arm-linux-musleabi/lib/libc_kernel.a(fflush.o)
 .debug_abbrev  0x000000000000076f      0x16b /opt/arm-linux-musleabi/bin/../lib/gcc/arm-linux-musleabi/7.3.0/../../../../arm-linux-musleabi/lib/libc_kernel.a(fileno.o)
 .debug_abbrev  0x00000000000008da      0x1ba /opt/arm-linux-musleabi/bin/../lib/gcc/arm-linux-musleabi/7.3.0/../../../../arm-linux-musleabi/lib/libc_kernel.a(fopen.o)
 .debug_abbrev  0x0000000000000a94      0x2a9 /opt/arm-linux-musleabi/bin/../lib/gcc/arm-linux-musleabi/7.3.0/../../../../arm-linux-musleabi/lib/libc_kernel.a(getchar.o)
 .debug_abbrev  0x0000000000000d3d      0x148 /opt/arm-linux-musleabi/bin/../lib/gcc/arm-linux-musleabi/7.3.0/../../../../arm-linux-musleabi/lib/libc_kernel.a(ofl.o)
 .debug_abbrev  0x0000000000000e85      0x108 /opt/arm-linux-musleabi/bin/../lib/gcc/arm-linux-musleabi/7.3.0/../../../../arm-linux-musleabi/lib/libc_kernel.a(printf.o)
 .debug_abbrev  0x0000000000000f8d      0x109 /opt/arm-linux-musleabi/bin/../lib/gcc/arm-linux-musleabi/7.3.0/../../../../arm-linux-musleabi/lib/libc_kernel.a(setvbuf.o)
 .debug_abbrev  0x0000000000001096      0x10e /opt/arm-linux-musleabi/bin/../lib/gcc/arm-linux-musleabi/7.3.0/../../../../arm-linux-musleabi/lib/libc_kernel.a(snprintf.o)
 .debug_abbrev  0x00000000000011a4       0xe5 /opt/arm-linux-musleabi/bin/../lib/gcc/arm-linux-musleabi/7.3.0/../../../../arm-linux-musleabi/lib/libc_kernel.a(stdin.o)
 .debug_abbrev  0x0000000000001289       0xe5 /opt/arm-linux-musleabi/bin/../lib/gcc/arm-linux-musleabi/7.3.0/../../../../arm-linux-musleabi/lib/libc_kernel.a(stdout.o)
 .debug_abbrev  0x000000000000136e      0x419 /opt/arm-linux-musleabi/bin/../lib/gcc/arm-linux-musleabi/7.3.0/../../../../arm-linux-musleabi/lib/libc_kernel.a(vfprintf.o)
 .debug_abbrev  0x0000000000001787      0x1a6 /opt/arm-linux-musleabi/bin/../lib/gcc/arm-linux-musleabi/7.3.0/../../../../arm-linux-musleabi/lib/libc_kernel.a(vsnprintf.o)
 .debug_abbrev  0x000000000000192d       0xa8 /opt/arm-linux-musleabi/bin/../lib/gcc/arm-linux-musleabi/7.3.0/../../../../arm-linux-musleabi/lib/libc_kernel.a(atoi.o)
 .debug_abbrev  0x00000000000019d5       0x14 /opt/arm-linux-musleabi/bin/../lib/gcc/arm-linux-musleabi/7.3.0/../../../../arm-linux-musleabi/lib/libc_kernel.a(memcpy_le.o)
 .debug_abbrev  0x00000000000019e9       0x86 /opt/arm-linux-musleabi/bin/../lib/gcc/arm-linux-musleabi/7.3.0/../../../../arm-linux-musleabi/lib/libc_kernel.a(memcmp.o)
 .debug_abbrev  0x0000000000001a6f       0xac /opt/arm-linux-musleabi/bin/../lib/gcc/arm-linux-musleabi/7.3.0/../../../../arm-linux-musleabi/lib/libc_kernel.a(memset.o)
 .debug_abbrev  0x0000000000001b1b       0x88 /opt/arm-linux-musleabi/bin/../lib/gcc/arm-linux-musleabi/7.3.0/../../../../arm-linux-musleabi/lib/libc_kernel.a(stpcpy.o)
 .debug_abbrev  0x0000000000001ba3       0x9c /opt/arm-linux-musleabi/bin/../lib/gcc/arm-linux-musleabi/7.3.0/../../../../arm-linux-musleabi/lib/libc_kernel.a(strchr.o)
 .debug_abbrev  0x0000000000001c3f       0xd1 /opt/arm-linux-musleabi/bin/../lib/gcc/arm-linux-musleabi/7.3.0/../../../../arm-linux-musleabi/lib/libc_kernel.a(strchrnul.o)
 .debug_abbrev  0x0000000000001d10       0x65 /opt/arm-linux-musleabi/bin/../lib/gcc/arm-linux-musleabi/7.3.0/../../../../arm-linux-musleabi/lib/libc_kernel.a(strcmp.o)
 .debug_abbrev  0x0000000000001d75       0x98 /opt/arm-linux-musleabi/bin/../lib/gcc/arm-linux-musleabi/7.3.0/../../../../arm-linux-musleabi/lib/libc_kernel.a(strcpy.o)
 .debug_abbrev  0x0000000000001e0d       0x8e /opt/arm-linux-musleabi/bin/../lib/gcc/arm-linux-musleabi/7.3.0/../../../../arm-linux-musleabi/lib/libc_kernel.a(strlen.o)
 .debug_abbrev  0x0000000000001e9b       0x81 /opt/arm-linux-musleabi/bin/../lib/gcc/arm-linux-musleabi/7.3.0/../../../../arm-linux-musleabi/lib/libc_kernel.a(strncmp.o)
 .debug_abbrev  0x0000000000001f1c       0x96 /opt/arm-linux-musleabi/bin/../lib/gcc/arm-linux-musleabi/7.3.0/../../../../arm-linux-musleabi/lib/libc_kernel.a(strncpy.o)
 .debug_abbrev  0x0000000000001fb2       0x9e /opt/arm-linux-musleabi/bin/../lib/gcc/arm-linux-musleabi/7.3.0/../../../../arm-linux-musleabi/lib/libc_kernel.a(strnlen.o)
 .debug_abbrev  0x0000000000002050       0x9d /opt/arm-linux-musleabi/bin/../lib/gcc/arm-linux-musleabi/7.3.0/../../../../arm-linux-musleabi/lib/libc_kernel.a(strrchr.o)
 .debug_abbrev  0x00000000000020ed      0x1a6 /opt/arm-linux-musleabi/bin/../lib/gcc/arm-linux-musleabi/7.3.0/../../../../arm-linux-musleabi/lib/libc_kernel.a(strstr.o)
 .debug_abbrev  0x0000000000002293      0x24f /opt/arm-linux-musleabi/bin/../lib/gcc/arm-linux-musleabi/7.3.0/../../../../arm-linux-musleabi/lib/libc_kernel.a(__lock.o)
 .debug_abbrev  0x00000000000024e2       0x14 /opt/arm-linux-musleabi/bin/../lib/gcc/arm-linux-musleabi/7.3.0/../../../../arm-linux-musleabi/lib/libc_kernel.a(atomics.o)
 .debug_abbrev  0x00000000000024f6      0x1cf /opt/arm-linux-musleabi/bin/../lib/gcc/arm-linux-musleabi/7.3.0/../../../../arm-linux-musleabi/lib/libc_kernel.a(strerror.o)
 .debug_abbrev  0x00000000000026c5      0x309 /opt/arm-linux-musleabi/bin/../lib/gcc/arm-linux-musleabi/7.3.0/../../../../arm-linux-musleabi/lib/libc_kernel.a(rtt_syscall.o)
 .debug_abbrev  0x00000000000029ce       0x14 /opt/arm-linux-musleabi/bin/../lib/gcc/arm-linux-musleabi/7.3.0/../../../../arm-linux-musleabi/lib/libc_kernel.a(syscall.o)
 .debug_abbrev  0x00000000000029e2       0xd8 /opt/arm-linux-musleabi/bin/../lib/gcc/arm-linux-musleabi/7.3.0/../../../../arm-linux-musleabi/lib/libc_kernel.a(libc.o)
 .debug_abbrev  0x0000000000002aba       0x4a /opt/arm-linux-musleabi/bin/../lib/gcc/arm-linux-musleabi/7.3.0/../../../../arm-linux-musleabi/lib/libc_kernel.a(syscall_ret.o)
 .debug_abbrev  0x0000000000002b04      0x1ae /opt/arm-linux-musleabi/bin/../lib/gcc/arm-linux-musleabi/7.3.0/../../../../arm-linux-musleabi/lib/libc_kernel.a(__lctrans.o)
 .debug_abbrev  0x0000000000002cb2       0xab /opt/arm-linux-musleabi/bin/../lib/gcc/arm-linux-musleabi/7.3.0/../../../../arm-linux-musleabi/lib/libc_kernel.a(frexpl.o)
 .debug_abbrev  0x0000000000002d5d       0x96 /opt/arm-linux-musleabi/bin/../lib/gcc/arm-linux-musleabi/7.3.0/../../../../arm-linux-musleabi/lib/libc_kernel.a(wctomb.o)
 .debug_abbrev  0x0000000000002df3      0x1fa /opt/arm-linux-musleabi/bin/../lib/gcc/arm-linux-musleabi/7.3.0/../../../../arm-linux-musleabi/lib/libc_kernel.a(__fdopen.o)
 .debug_abbrev  0x0000000000002fed       0xa9 /opt/arm-linux-musleabi/bin/../lib/gcc/arm-linux-musleabi/7.3.0/../../../../arm-linux-musleabi/lib/libc_kernel.a(__fmodeflags.o)
 .debug_abbrev  0x0000000000003096      0x2b4 /opt/arm-linux-musleabi/bin/../lib/gcc/arm-linux-musleabi/7.3.0/../../../../arm-linux-musleabi/lib/libc_kernel.a(__lockfile.o)
 .debug_abbrev  0x000000000000334a      0x1b0 /opt/arm-linux-musleabi/bin/../lib/gcc/arm-linux-musleabi/7.3.0/../../../../arm-linux-musleabi/lib/libc_kernel.a(__stdio_close.o)
 .debug_abbrev  0x00000000000034fa      0x1e3 /opt/arm-linux-musleabi/bin/../lib/gcc/arm-linux-musleabi/7.3.0/../../../../arm-linux-musleabi/lib/libc_kernel.a(__stdio_read.o)
 .debug_abbrev  0x00000000000036dd      0x19c /opt/arm-linux-musleabi/bin/../lib/gcc/arm-linux-musleabi/7.3.0/../../../../arm-linux-musleabi/lib/libc_kernel.a(__stdio_seek.o)
 .debug_abbrev  0x0000000000003879      0x1e7 /opt/arm-linux-musleabi/bin/../lib/gcc/arm-linux-musleabi/7.3.0/../../../../arm-linux-musleabi/lib/libc_kernel.a(__stdio_write.o)
 .debug_abbrev  0x0000000000003a60      0x18a /opt/arm-linux-musleabi/bin/../lib/gcc/arm-linux-musleabi/7.3.0/../../../../arm-linux-musleabi/lib/libc_kernel.a(__stdout_write.o)
 .debug_abbrev  0x0000000000003bea      0x11d /opt/arm-linux-musleabi/bin/../lib/gcc/arm-linux-musleabi/7.3.0/../../../../arm-linux-musleabi/lib/libc_kernel.a(__towrite.o)
 .debug_abbrev  0x0000000000003d07      0x128 /opt/arm-linux-musleabi/bin/../lib/gcc/arm-linux-musleabi/7.3.0/../../../../arm-linux-musleabi/lib/libc_kernel.a(__uflow.o)
 .debug_abbrev  0x0000000000003e2f      0x1f8 /opt/arm-linux-musleabi/bin/../lib/gcc/arm-linux-musleabi/7.3.0/../../../../arm-linux-musleabi/lib/libc_kernel.a(fwrite.o)
 .debug_abbrev  0x0000000000004027      0x111 /opt/arm-linux-musleabi/bin/../lib/gcc/arm-linux-musleabi/7.3.0/../../../../arm-linux-musleabi/lib/libc_kernel.a(ofl_add.o)
 .debug_abbrev  0x0000000000004138       0x96 /opt/arm-linux-musleabi/bin/../lib/gcc/arm-linux-musleabi/7.3.0/../../../../arm-linux-musleabi/lib/libc_kernel.a(memchr.o)
 .debug_abbrev  0x00000000000041ce       0x8d /opt/arm-linux-musleabi/bin/../lib/gcc/arm-linux-musleabi/7.3.0/../../../../arm-linux-musleabi/lib/libc_kernel.a(memrchr.o)
 .debug_abbrev  0x000000000000425b       0xbd /opt/arm-linux-musleabi/bin/../lib/gcc/arm-linux-musleabi/7.3.0/../../../../arm-linux-musleabi/lib/libc_kernel.a(stpncpy.o)
 .debug_abbrev  0x0000000000004318       0xbc /opt/arm-linux-musleabi/bin/../lib/gcc/arm-linux-musleabi/7.3.0/../../../../arm-linux-musleabi/lib/libc_kernel.a(frexp.o)
 .debug_abbrev  0x00000000000043d4      0x1b0 /opt/arm-linux-musleabi/bin/../lib/gcc/arm-linux-musleabi/7.3.0/../../../../arm-linux-musleabi/lib/libc_kernel.a(wcrtomb.o)
 .debug_abbrev  0x0000000000004584      0x132 /opt/arm-linux-musleabi/bin/../lib/gcc/arm-linux-musleabi/7.3.0/../../../../arm-linux-musleabi/lib/libc_kernel.a(__toread.o)
 .debug_abbrev  0x00000000000046b6       0x14 /opt/arm-linux-musleabi/bin/../lib/gcc/arm-linux-musleabi/7.3.0/libgcc.a(_udivsi3.o)
 .debug_abbrev  0x00000000000046ca       0x14 /opt/arm-linux-musleabi/bin/../lib/gcc/arm-linux-musleabi/7.3.0/libgcc.a(_divsi3.o)
 .debug_abbrev  0x00000000000046de       0x14 /opt/arm-linux-musleabi/bin/../lib/gcc/arm-linux-musleabi/7.3.0/libgcc.a(_arm_addsubdf3.o)
 .debug_abbrev  0x00000000000046f2       0x14 /opt/arm-linux-musleabi/bin/../lib/gcc/arm-linux-musleabi/7.3.0/libgcc.a(_arm_muldivdf3.o)
 .debug_abbrev  0x0000000000004706       0x14 /opt/arm-linux-musleabi/bin/../lib/gcc/arm-linux-musleabi/7.3.0/libgcc.a(_arm_cmpdf2.o)
 .debug_abbrev  0x000000000000471a       0x14 /opt/arm-linux-musleabi/bin/../lib/gcc/arm-linux-musleabi/7.3.0/libgcc.a(_arm_fixdfsi.o)
 .debug_abbrev  0x000000000000472e       0x14 /opt/arm-linux-musleabi/bin/../lib/gcc/arm-linux-musleabi/7.3.0/libgcc.a(_arm_fixunsdfsi.o)
 .debug_abbrev  0x0000000000004742       0x14 /opt/arm-linux-musleabi/bin/../lib/gcc/arm-linux-musleabi/7.3.0/libgcc.a(_aeabi_uldivmod.o)
 .debug_abbrev  0x0000000000004756       0x14 /opt/arm-linux-musleabi/bin/../lib/gcc/arm-linux-musleabi/7.3.0/libgcc.a(_dvmd_lnx.o)
 .debug_abbrev  0x000000000000476a      0x153 /opt/arm-linux-musleabi/bin/../lib/gcc/arm-linux-musleabi/7.3.0/libgcc.a(_udivmoddi4.o)
 .debug_abbrev  0x00000000000048bd      0x253 /opt/arm-linux-musleabi/bin/../lib/gcc/arm-linux-musleabi/7.3.0/../../../../arm-linux-musleabi/lib/libc_kernel.a(raise.o)
 .debug_abbrev  0x0000000000004b10      0x1a7 /opt/arm-linux-musleabi/bin/../lib/gcc/arm-linux-musleabi/7.3.0/../../../../arm-linux-musleabi/lib/libc_kernel.a(block.o)

.debug_info     0x0000000000000000    0x110a0
 *(.debug_info)
 .debug_info    0x0000000000000000       0xab /opt/arm-linux-musleabi/bin/../lib/gcc/arm-linux-musleabi/7.3.0/../../../../arm-linux-musleabi/lib/libc_kernel.a(__environ.o)
 .debug_info    0x00000000000000ab      0x131 /opt/arm-linux-musleabi/bin/../lib/gcc/arm-linux-musleabi/7.3.0/../../../../arm-linux-musleabi/lib/libc_kernel.a(getenv.o)
 .debug_info    0x00000000000001dc      0x2bc /opt/arm-linux-musleabi/bin/../lib/gcc/arm-linux-musleabi/7.3.0/../../../../arm-linux-musleabi/lib/libc_kernel.a(putenv.o)
 .debug_info    0x0000000000000498      0x27c /opt/arm-linux-musleabi/bin/../lib/gcc/arm-linux-musleabi/7.3.0/../../../../arm-linux-musleabi/lib/libc_kernel.a(setenv.o)
 .debug_info    0x0000000000000714      0x190 /opt/arm-linux-musleabi/bin/../lib/gcc/arm-linux-musleabi/7.3.0/../../../../arm-linux-musleabi/lib/libc_kernel.a(unsetenv.o)
 .debug_info    0x00000000000008a4      0x462 /opt/arm-linux-musleabi/bin/../lib/gcc/arm-linux-musleabi/7.3.0/../../../../arm-linux-musleabi/lib/libc_kernel.a(fclose.o)
 .debug_info    0x0000000000000d06      0x485 /opt/arm-linux-musleabi/bin/../lib/gcc/arm-linux-musleabi/7.3.0/../../../../arm-linux-musleabi/lib/libc_kernel.a(fflush.o)
 .debug_info    0x000000000000118b      0x3d7 /opt/arm-linux-musleabi/bin/../lib/gcc/arm-linux-musleabi/7.3.0/../../../../arm-linux-musleabi/lib/libc_kernel.a(fileno.o)
 .debug_info    0x0000000000001562      0x5ff /opt/arm-linux-musleabi/bin/../lib/gcc/arm-linux-musleabi/7.3.0/../../../../arm-linux-musleabi/lib/libc_kernel.a(fopen.o)
 .debug_info    0x0000000000001b61      0xc36 /opt/arm-linux-musleabi/bin/../lib/gcc/arm-linux-musleabi/7.3.0/../../../../arm-linux-musleabi/lib/libc_kernel.a(getchar.o)
 .debug_info    0x0000000000002797      0x3b0 /opt/arm-linux-musleabi/bin/../lib/gcc/arm-linux-musleabi/7.3.0/../../../../arm-linux-musleabi/lib/libc_kernel.a(ofl.o)
 .debug_info    0x0000000000002b47      0x143 /opt/arm-linux-musleabi/bin/../lib/gcc/arm-linux-musleabi/7.3.0/../../../../arm-linux-musleabi/lib/libc_kernel.a(printf.o)
 .debug_info    0x0000000000002c8a      0x35f /opt/arm-linux-musleabi/bin/../lib/gcc/arm-linux-musleabi/7.3.0/../../../../arm-linux-musleabi/lib/libc_kernel.a(setvbuf.o)
 .debug_info    0x0000000000002fe9      0x17e /opt/arm-linux-musleabi/bin/../lib/gcc/arm-linux-musleabi/7.3.0/../../../../arm-linux-musleabi/lib/libc_kernel.a(snprintf.o)
 .debug_info    0x0000000000003167      0x348 /opt/arm-linux-musleabi/bin/../lib/gcc/arm-linux-musleabi/7.3.0/../../../../arm-linux-musleabi/lib/libc_kernel.a(stdin.o)
 .debug_info    0x00000000000034af      0x348 /opt/arm-linux-musleabi/bin/../lib/gcc/arm-linux-musleabi/7.3.0/../../../../arm-linux-musleabi/lib/libc_kernel.a(stdout.o)
 .debug_info    0x00000000000037f7     0x1fef /opt/arm-linux-musleabi/bin/../lib/gcc/arm-linux-musleabi/7.3.0/../../../../arm-linux-musleabi/lib/libc_kernel.a(vfprintf.o)
 .debug_info    0x00000000000057e6      0x545 /opt/arm-linux-musleabi/bin/../lib/gcc/arm-linux-musleabi/7.3.0/../../../../arm-linux-musleabi/lib/libc_kernel.a(vsnprintf.o)
 .debug_info    0x0000000000005d2b       0xc3 /opt/arm-linux-musleabi/bin/../lib/gcc/arm-linux-musleabi/7.3.0/../../../../arm-linux-musleabi/lib/libc_kernel.a(atoi.o)
 .debug_info    0x0000000000005dee       0x26 /opt/arm-linux-musleabi/bin/../lib/gcc/arm-linux-musleabi/7.3.0/../../../../arm-linux-musleabi/lib/libc_kernel.a(memcpy_le.o)
 .debug_info    0x0000000000005e14       0xb5 /opt/arm-linux-musleabi/bin/../lib/gcc/arm-linux-musleabi/7.3.0/../../../../arm-linux-musleabi/lib/libc_kernel.a(memcmp.o)
 .debug_info    0x0000000000005ec9      0x10e /opt/arm-linux-musleabi/bin/../lib/gcc/arm-linux-musleabi/7.3.0/../../../../arm-linux-musleabi/lib/libc_kernel.a(memset.o)
 .debug_info    0x0000000000005fd7      0x102 /opt/arm-linux-musleabi/bin/../lib/gcc/arm-linux-musleabi/7.3.0/../../../../arm-linux-musleabi/lib/libc_kernel.a(stpcpy.o)
 .debug_info    0x00000000000060d9       0xaf /opt/arm-linux-musleabi/bin/../lib/gcc/arm-linux-musleabi/7.3.0/../../../../arm-linux-musleabi/lib/libc_kernel.a(strchr.o)
 .debug_info    0x0000000000006188      0x157 /opt/arm-linux-musleabi/bin/../lib/gcc/arm-linux-musleabi/7.3.0/../../../../arm-linux-musleabi/lib/libc_kernel.a(strchrnul.o)
 .debug_info    0x00000000000062df       0x7a /opt/arm-linux-musleabi/bin/../lib/gcc/arm-linux-musleabi/7.3.0/../../../../arm-linux-musleabi/lib/libc_kernel.a(strcmp.o)
 .debug_info    0x0000000000006359       0xa9 /opt/arm-linux-musleabi/bin/../lib/gcc/arm-linux-musleabi/7.3.0/../../../../arm-linux-musleabi/lib/libc_kernel.a(strcpy.o)
 .debug_info    0x0000000000006402       0xd9 /opt/arm-linux-musleabi/bin/../lib/gcc/arm-linux-musleabi/7.3.0/../../../../arm-linux-musleabi/lib/libc_kernel.a(strlen.o)
 .debug_info    0x00000000000064db       0xc0 /opt/arm-linux-musleabi/bin/../lib/gcc/arm-linux-musleabi/7.3.0/../../../../arm-linux-musleabi/lib/libc_kernel.a(strncmp.o)
 .debug_info    0x000000000000659b       0xc4 /opt/arm-linux-musleabi/bin/../lib/gcc/arm-linux-musleabi/7.3.0/../../../../arm-linux-musleabi/lib/libc_kernel.a(strncpy.o)
 .debug_info    0x000000000000665f       0xb1 /opt/arm-linux-musleabi/bin/../lib/gcc/arm-linux-musleabi/7.3.0/../../../../arm-linux-musleabi/lib/libc_kernel.a(strnlen.o)
 .debug_info    0x0000000000006710       0xc2 /opt/arm-linux-musleabi/bin/../lib/gcc/arm-linux-musleabi/7.3.0/../../../../arm-linux-musleabi/lib/libc_kernel.a(strrchr.o)
 .debug_info    0x00000000000067d2      0x400 /opt/arm-linux-musleabi/bin/../lib/gcc/arm-linux-musleabi/7.3.0/../../../../arm-linux-musleabi/lib/libc_kernel.a(strstr.o)
 .debug_info    0x0000000000006bd2      0x9e3 /opt/arm-linux-musleabi/bin/../lib/gcc/arm-linux-musleabi/7.3.0/../../../../arm-linux-musleabi/lib/libc_kernel.a(__lock.o)
 .debug_info    0x00000000000075b5       0x26 /opt/arm-linux-musleabi/bin/../lib/gcc/arm-linux-musleabi/7.3.0/../../../../arm-linux-musleabi/lib/libc_kernel.a(atomics.o)
 .debug_info    0x00000000000075db      0x738 /opt/arm-linux-musleabi/bin/../lib/gcc/arm-linux-musleabi/7.3.0/../../../../arm-linux-musleabi/lib/libc_kernel.a(strerror.o)
 .debug_info    0x0000000000007d13     0x21e9 /opt/arm-linux-musleabi/bin/../lib/gcc/arm-linux-musleabi/7.3.0/../../../../arm-linux-musleabi/lib/libc_kernel.a(rtt_syscall.o)
 .debug_info    0x0000000000009efc       0x26 /opt/arm-linux-musleabi/bin/../lib/gcc/arm-linux-musleabi/7.3.0/../../../../arm-linux-musleabi/lib/libc_kernel.a(syscall.o)
 .debug_info    0x0000000000009f22      0x297 /opt/arm-linux-musleabi/bin/../lib/gcc/arm-linux-musleabi/7.3.0/../../../../arm-linux-musleabi/lib/libc_kernel.a(libc.o)
 .debug_info    0x000000000000a1b9       0x5b /opt/arm-linux-musleabi/bin/../lib/gcc/arm-linux-musleabi/7.3.0/../../../../arm-linux-musleabi/lib/libc_kernel.a(syscall_ret.o)
 .debug_info    0x000000000000a214      0x6fa /opt/arm-linux-musleabi/bin/../lib/gcc/arm-linux-musleabi/7.3.0/../../../../arm-linux-musleabi/lib/libc_kernel.a(__lctrans.o)
 .debug_info    0x000000000000a90e       0xee /opt/arm-linux-musleabi/bin/../lib/gcc/arm-linux-musleabi/7.3.0/../../../../arm-linux-musleabi/lib/libc_kernel.a(frexpl.o)
 .debug_info    0x000000000000a9fc       0xbe /opt/arm-linux-musleabi/bin/../lib/gcc/arm-linux-musleabi/7.3.0/../../../../arm-linux-musleabi/lib/libc_kernel.a(wctomb.o)
 .debug_info    0x000000000000aaba      0x88c /opt/arm-linux-musleabi/bin/../lib/gcc/arm-linux-musleabi/7.3.0/../../../../arm-linux-musleabi/lib/libc_kernel.a(__fdopen.o)
 .debug_info    0x000000000000b346       0xe1 /opt/arm-linux-musleabi/bin/../lib/gcc/arm-linux-musleabi/7.3.0/../../../../arm-linux-musleabi/lib/libc_kernel.a(__fmodeflags.o)
 .debug_info    0x000000000000b427      0xde5 /opt/arm-linux-musleabi/bin/../lib/gcc/arm-linux-musleabi/7.3.0/../../../../arm-linux-musleabi/lib/libc_kernel.a(__lockfile.o)
 .debug_info    0x000000000000c20c      0x40f /opt/arm-linux-musleabi/bin/../lib/gcc/arm-linux-musleabi/7.3.0/../../../../arm-linux-musleabi/lib/libc_kernel.a(__stdio_close.o)
 .debug_info    0x000000000000c61b      0x51b /opt/arm-linux-musleabi/bin/../lib/gcc/arm-linux-musleabi/7.3.0/../../../../arm-linux-musleabi/lib/libc_kernel.a(__stdio_read.o)
 .debug_info    0x000000000000cb36      0x490 /opt/arm-linux-musleabi/bin/../lib/gcc/arm-linux-musleabi/7.3.0/../../../../arm-linux-musleabi/lib/libc_kernel.a(__stdio_seek.o)
 .debug_info    0x000000000000cfc6      0x4ce /opt/arm-linux-musleabi/bin/../lib/gcc/arm-linux-musleabi/7.3.0/../../../../arm-linux-musleabi/lib/libc_kernel.a(__stdio_write.o)
 .debug_info    0x000000000000d494      0x4a3 /opt/arm-linux-musleabi/bin/../lib/gcc/arm-linux-musleabi/7.3.0/../../../../arm-linux-musleabi/lib/libc_kernel.a(__stdout_write.o)
 .debug_info    0x000000000000d937      0x358 /opt/arm-linux-musleabi/bin/../lib/gcc/arm-linux-musleabi/7.3.0/../../../../arm-linux-musleabi/lib/libc_kernel.a(__towrite.o)
 .debug_info    0x000000000000dc8f      0x370 /opt/arm-linux-musleabi/bin/../lib/gcc/arm-linux-musleabi/7.3.0/../../../../arm-linux-musleabi/lib/libc_kernel.a(__uflow.o)
 .debug_info    0x000000000000dfff      0x552 /opt/arm-linux-musleabi/bin/../lib/gcc/arm-linux-musleabi/7.3.0/../../../../arm-linux-musleabi/lib/libc_kernel.a(fwrite.o)
 .debug_info    0x000000000000e551      0x36b /opt/arm-linux-musleabi/bin/../lib/gcc/arm-linux-musleabi/7.3.0/../../../../arm-linux-musleabi/lib/libc_kernel.a(ofl_add.o)
 .debug_info    0x000000000000e8bc      0x112 /opt/arm-linux-musleabi/bin/../lib/gcc/arm-linux-musleabi/7.3.0/../../../../arm-linux-musleabi/lib/libc_kernel.a(memchr.o)
 .debug_info    0x000000000000e9ce       0xa8 /opt/arm-linux-musleabi/bin/../lib/gcc/arm-linux-musleabi/7.3.0/../../../../arm-linux-musleabi/lib/libc_kernel.a(memrchr.o)
 .debug_info    0x000000000000ea76      0x13a /opt/arm-linux-musleabi/bin/../lib/gcc/arm-linux-musleabi/7.3.0/../../../../arm-linux-musleabi/lib/libc_kernel.a(stpncpy.o)
 .debug_info    0x000000000000ebb0      0x103 /opt/arm-linux-musleabi/bin/../lib/gcc/arm-linux-musleabi/7.3.0/../../../../arm-linux-musleabi/lib/libc_kernel.a(frexp.o)
 .debug_info    0x000000000000ecb3      0x715 /opt/arm-linux-musleabi/bin/../lib/gcc/arm-linux-musleabi/7.3.0/../../../../arm-linux-musleabi/lib/libc_kernel.a(wcrtomb.o)
 .debug_info    0x000000000000f3c8      0x36e /opt/arm-linux-musleabi/bin/../lib/gcc/arm-linux-musleabi/7.3.0/../../../../arm-linux-musleabi/lib/libc_kernel.a(__toread.o)
 .debug_info    0x000000000000f736       0x26 /opt/arm-linux-musleabi/bin/../lib/gcc/arm-linux-musleabi/7.3.0/libgcc.a(_udivsi3.o)
 .debug_info    0x000000000000f75c       0x26 /opt/arm-linux-musleabi/bin/../lib/gcc/arm-linux-musleabi/7.3.0/libgcc.a(_divsi3.o)
 .debug_info    0x000000000000f782       0x26 /opt/arm-linux-musleabi/bin/../lib/gcc/arm-linux-musleabi/7.3.0/libgcc.a(_arm_addsubdf3.o)
 .debug_info    0x000000000000f7a8       0x26 /opt/arm-linux-musleabi/bin/../lib/gcc/arm-linux-musleabi/7.3.0/libgcc.a(_arm_muldivdf3.o)
 .debug_info    0x000000000000f7ce       0x26 /opt/arm-linux-musleabi/bin/../lib/gcc/arm-linux-musleabi/7.3.0/libgcc.a(_arm_cmpdf2.o)
 .debug_info    0x000000000000f7f4       0x26 /opt/arm-linux-musleabi/bin/../lib/gcc/arm-linux-musleabi/7.3.0/libgcc.a(_arm_fixdfsi.o)
 .debug_info    0x000000000000f81a       0x26 /opt/arm-linux-musleabi/bin/../lib/gcc/arm-linux-musleabi/7.3.0/libgcc.a(_arm_fixunsdfsi.o)
 .debug_info    0x000000000000f840       0x26 /opt/arm-linux-musleabi/bin/../lib/gcc/arm-linux-musleabi/7.3.0/libgcc.a(_aeabi_uldivmod.o)
 .debug_info    0x000000000000f866       0x26 /opt/arm-linux-musleabi/bin/../lib/gcc/arm-linux-musleabi/7.3.0/libgcc.a(_dvmd_lnx.o)
 .debug_info    0x000000000000f88c      0xb02 /opt/arm-linux-musleabi/bin/../lib/gcc/arm-linux-musleabi/7.3.0/libgcc.a(_udivmoddi4.o)
 .debug_info    0x000000000001038e      0x75f /opt/arm-linux-musleabi/bin/../lib/gcc/arm-linux-musleabi/7.3.0/../../../../arm-linux-musleabi/lib/libc_kernel.a(raise.o)
 .debug_info    0x0000000000010aed      0x5b3 /opt/arm-linux-musleabi/bin/../lib/gcc/arm-linux-musleabi/7.3.0/../../../../arm-linux-musleabi/lib/libc_kernel.a(block.o)

.debug_line     0x0000000000000000     0x51d0
 *(.debug_line)
 .debug_line    0x0000000000000000       0x96 /opt/arm-linux-musleabi/bin/../lib/gcc/arm-linux-musleabi/7.3.0/../../../../arm-linux-musleabi/lib/libc_kernel.a(__environ.o)
 .debug_line    0x0000000000000096       0xf8 /opt/arm-linux-musleabi/bin/../lib/gcc/arm-linux-musleabi/7.3.0/../../../../arm-linux-musleabi/lib/libc_kernel.a(getenv.o)
 .debug_line    0x000000000000018e      0x16a /opt/arm-linux-musleabi/bin/../lib/gcc/arm-linux-musleabi/7.3.0/../../../../arm-linux-musleabi/lib/libc_kernel.a(putenv.o)
 .debug_line    0x00000000000002f8      0x156 /opt/arm-linux-musleabi/bin/../lib/gcc/arm-linux-musleabi/7.3.0/../../../../arm-linux-musleabi/lib/libc_kernel.a(setenv.o)
 .debug_line    0x000000000000044e      0x126 /opt/arm-linux-musleabi/bin/../lib/gcc/arm-linux-musleabi/7.3.0/../../../../arm-linux-musleabi/lib/libc_kernel.a(unsetenv.o)
 .debug_line    0x0000000000000574      0x141 /opt/arm-linux-musleabi/bin/../lib/gcc/arm-linux-musleabi/7.3.0/../../../../arm-linux-musleabi/lib/libc_kernel.a(fclose.o)
 .debug_line    0x00000000000006b5      0x16e /opt/arm-linux-musleabi/bin/../lib/gcc/arm-linux-musleabi/7.3.0/../../../../arm-linux-musleabi/lib/libc_kernel.a(fflush.o)
 .debug_line    0x0000000000000823      0x112 /opt/arm-linux-musleabi/bin/../lib/gcc/arm-linux-musleabi/7.3.0/../../../../arm-linux-musleabi/lib/libc_kernel.a(fileno.o)
 .debug_line    0x0000000000000935      0x177 /opt/arm-linux-musleabi/bin/../lib/gcc/arm-linux-musleabi/7.3.0/../../../../arm-linux-musleabi/lib/libc_kernel.a(fopen.o)
 .debug_line    0x0000000000000aac      0x211 /opt/arm-linux-musleabi/bin/../lib/gcc/arm-linux-musleabi/7.3.0/../../../../arm-linux-musleabi/lib/libc_kernel.a(getchar.o)
 .debug_line    0x0000000000000cbd      0x101 /opt/arm-linux-musleabi/bin/../lib/gcc/arm-linux-musleabi/7.3.0/../../../../arm-linux-musleabi/lib/libc_kernel.a(ofl.o)
 .debug_line    0x0000000000000dbe       0xd2 /opt/arm-linux-musleabi/bin/../lib/gcc/arm-linux-musleabi/7.3.0/../../../../arm-linux-musleabi/lib/libc_kernel.a(printf.o)
 .debug_line    0x0000000000000e90      0x109 /opt/arm-linux-musleabi/bin/../lib/gcc/arm-linux-musleabi/7.3.0/../../../../arm-linux-musleabi/lib/libc_kernel.a(setvbuf.o)
 .debug_line    0x0000000000000f99       0xd4 /opt/arm-linux-musleabi/bin/../lib/gcc/arm-linux-musleabi/7.3.0/../../../../arm-linux-musleabi/lib/libc_kernel.a(snprintf.o)
 .debug_line    0x000000000000106d       0xda /opt/arm-linux-musleabi/bin/../lib/gcc/arm-linux-musleabi/7.3.0/../../../../arm-linux-musleabi/lib/libc_kernel.a(stdin.o)
 .debug_line    0x0000000000001147       0xdb /opt/arm-linux-musleabi/bin/../lib/gcc/arm-linux-musleabi/7.3.0/../../../../arm-linux-musleabi/lib/libc_kernel.a(stdout.o)
 .debug_line    0x0000000000001222      0x716 /opt/arm-linux-musleabi/bin/../lib/gcc/arm-linux-musleabi/7.3.0/../../../../arm-linux-musleabi/lib/libc_kernel.a(vfprintf.o)
 .debug_line    0x0000000000001938      0x156 /opt/arm-linux-musleabi/bin/../lib/gcc/arm-linux-musleabi/7.3.0/../../../../arm-linux-musleabi/lib/libc_kernel.a(vsnprintf.o)
 .debug_line    0x0000000000001a8e       0xa0 /opt/arm-linux-musleabi/bin/../lib/gcc/arm-linux-musleabi/7.3.0/../../../../arm-linux-musleabi/lib/libc_kernel.a(atoi.o)
 .debug_line    0x0000000000001b2e      0x11c /opt/arm-linux-musleabi/bin/../lib/gcc/arm-linux-musleabi/7.3.0/../../../../arm-linux-musleabi/lib/libc_kernel.a(memcpy_le.o)
 .debug_line    0x0000000000001c4a       0x7c /opt/arm-linux-musleabi/bin/../lib/gcc/arm-linux-musleabi/7.3.0/../../../../arm-linux-musleabi/lib/libc_kernel.a(memcmp.o)
 .debug_line    0x0000000000001cc6       0xcc /opt/arm-linux-musleabi/bin/../lib/gcc/arm-linux-musleabi/7.3.0/../../../../arm-linux-musleabi/lib/libc_kernel.a(memset.o)
 .debug_line    0x0000000000001d92       0x88 /opt/arm-linux-musleabi/bin/../lib/gcc/arm-linux-musleabi/7.3.0/../../../../arm-linux-musleabi/lib/libc_kernel.a(stpcpy.o)
 .debug_line    0x0000000000001e1a       0x75 /opt/arm-linux-musleabi/bin/../lib/gcc/arm-linux-musleabi/7.3.0/../../../../arm-linux-musleabi/lib/libc_kernel.a(strchr.o)
 .debug_line    0x0000000000001e8f       0xd2 /opt/arm-linux-musleabi/bin/../lib/gcc/arm-linux-musleabi/7.3.0/../../../../arm-linux-musleabi/lib/libc_kernel.a(strchrnul.o)
 .debug_line    0x0000000000001f61       0x57 /opt/arm-linux-musleabi/bin/../lib/gcc/arm-linux-musleabi/7.3.0/../../../../arm-linux-musleabi/lib/libc_kernel.a(strcmp.o)
 .debug_line    0x0000000000001fb8       0x74 /opt/arm-linux-musleabi/bin/../lib/gcc/arm-linux-musleabi/7.3.0/../../../../arm-linux-musleabi/lib/libc_kernel.a(strcpy.o)
 .debug_line    0x000000000000202c       0x92 /opt/arm-linux-musleabi/bin/../lib/gcc/arm-linux-musleabi/7.3.0/../../../../arm-linux-musleabi/lib/libc_kernel.a(strlen.o)
 .debug_line    0x00000000000020be       0x83 /opt/arm-linux-musleabi/bin/../lib/gcc/arm-linux-musleabi/7.3.0/../../../../arm-linux-musleabi/lib/libc_kernel.a(strncmp.o)
 .debug_line    0x0000000000002141       0x94 /opt/arm-linux-musleabi/bin/../lib/gcc/arm-linux-musleabi/7.3.0/../../../../arm-linux-musleabi/lib/libc_kernel.a(strncpy.o)
 .debug_line    0x00000000000021d5       0xa5 /opt/arm-linux-musleabi/bin/../lib/gcc/arm-linux-musleabi/7.3.0/../../../../arm-linux-musleabi/lib/libc_kernel.a(strnlen.o)
 .debug_line    0x000000000000227a       0xa8 /opt/arm-linux-musleabi/bin/../lib/gcc/arm-linux-musleabi/7.3.0/../../../../arm-linux-musleabi/lib/libc_kernel.a(strrchr.o)
 .debug_line    0x0000000000002322      0x1b2 /opt/arm-linux-musleabi/bin/../lib/gcc/arm-linux-musleabi/7.3.0/../../../../arm-linux-musleabi/lib/libc_kernel.a(strstr.o)
 .debug_line    0x00000000000024d4      0x1fd /opt/arm-linux-musleabi/bin/../lib/gcc/arm-linux-musleabi/7.3.0/../../../../arm-linux-musleabi/lib/libc_kernel.a(__lock.o)
 .debug_line    0x00000000000026d1       0x7b /opt/arm-linux-musleabi/bin/../lib/gcc/arm-linux-musleabi/7.3.0/../../../../arm-linux-musleabi/lib/libc_kernel.a(atomics.o)
 .debug_line    0x000000000000274c      0x19b /opt/arm-linux-musleabi/bin/../lib/gcc/arm-linux-musleabi/7.3.0/../../../../arm-linux-musleabi/lib/libc_kernel.a(strerror.o)
 .debug_line    0x00000000000028e7      0x3b8 /opt/arm-linux-musleabi/bin/../lib/gcc/arm-linux-musleabi/7.3.0/../../../../arm-linux-musleabi/lib/libc_kernel.a(rtt_syscall.o)
 .debug_line    0x0000000000002c9f       0x60 /opt/arm-linux-musleabi/bin/../lib/gcc/arm-linux-musleabi/7.3.0/../../../../arm-linux-musleabi/lib/libc_kernel.a(syscall.o)
 .debug_line    0x0000000000002cff       0xbd /opt/arm-linux-musleabi/bin/../lib/gcc/arm-linux-musleabi/7.3.0/../../../../arm-linux-musleabi/lib/libc_kernel.a(libc.o)
 .debug_line    0x0000000000002dbc       0x56 /opt/arm-linux-musleabi/bin/../lib/gcc/arm-linux-musleabi/7.3.0/../../../../arm-linux-musleabi/lib/libc_kernel.a(syscall_ret.o)
 .debug_line    0x0000000000002e12      0x188 /opt/arm-linux-musleabi/bin/../lib/gcc/arm-linux-musleabi/7.3.0/../../../../arm-linux-musleabi/lib/libc_kernel.a(__lctrans.o)
 .debug_line    0x0000000000002f9a       0x8d /opt/arm-linux-musleabi/bin/../lib/gcc/arm-linux-musleabi/7.3.0/../../../../arm-linux-musleabi/lib/libc_kernel.a(frexpl.o)
 .debug_line    0x0000000000003027       0xa2 /opt/arm-linux-musleabi/bin/../lib/gcc/arm-linux-musleabi/7.3.0/../../../../arm-linux-musleabi/lib/libc_kernel.a(wctomb.o)
 .debug_line    0x00000000000030c9      0x1d2 /opt/arm-linux-musleabi/bin/../lib/gcc/arm-linux-musleabi/7.3.0/../../../../arm-linux-musleabi/lib/libc_kernel.a(__fdopen.o)
 .debug_line    0x000000000000329b       0x9d /opt/arm-linux-musleabi/bin/../lib/gcc/arm-linux-musleabi/7.3.0/../../../../arm-linux-musleabi/lib/libc_kernel.a(__fmodeflags.o)
 .debug_line    0x0000000000003338      0x224 /opt/arm-linux-musleabi/bin/../lib/gcc/arm-linux-musleabi/7.3.0/../../../../arm-linux-musleabi/lib/libc_kernel.a(__lockfile.o)
 .debug_line    0x000000000000355c      0x149 /opt/arm-linux-musleabi/bin/../lib/gcc/arm-linux-musleabi/7.3.0/../../../../arm-linux-musleabi/lib/libc_kernel.a(__stdio_close.o)
 .debug_line    0x00000000000036a5      0x172 /opt/arm-linux-musleabi/bin/../lib/gcc/arm-linux-musleabi/7.3.0/../../../../arm-linux-musleabi/lib/libc_kernel.a(__stdio_read.o)
 .debug_line    0x0000000000003817      0x145 /opt/arm-linux-musleabi/bin/../lib/gcc/arm-linux-musleabi/7.3.0/../../../../arm-linux-musleabi/lib/libc_kernel.a(__stdio_seek.o)
 .debug_line    0x000000000000395c      0x17c /opt/arm-linux-musleabi/bin/../lib/gcc/arm-linux-musleabi/7.3.0/../../../../arm-linux-musleabi/lib/libc_kernel.a(__stdio_write.o)
 .debug_line    0x0000000000003ad8      0x16e /opt/arm-linux-musleabi/bin/../lib/gcc/arm-linux-musleabi/7.3.0/../../../../arm-linux-musleabi/lib/libc_kernel.a(__stdout_write.o)
 .debug_line    0x0000000000003c46      0x10e /opt/arm-linux-musleabi/bin/../lib/gcc/arm-linux-musleabi/7.3.0/../../../../arm-linux-musleabi/lib/libc_kernel.a(__towrite.o)
 .debug_line    0x0000000000003d54       0xf9 /opt/arm-linux-musleabi/bin/../lib/gcc/arm-linux-musleabi/7.3.0/../../../../arm-linux-musleabi/lib/libc_kernel.a(__uflow.o)
 .debug_line    0x0000000000003e4d      0x174 /opt/arm-linux-musleabi/bin/../lib/gcc/arm-linux-musleabi/7.3.0/../../../../arm-linux-musleabi/lib/libc_kernel.a(fwrite.o)
 .debug_line    0x0000000000003fc1       0xf0 /opt/arm-linux-musleabi/bin/../lib/gcc/arm-linux-musleabi/7.3.0/../../../../arm-linux-musleabi/lib/libc_kernel.a(ofl_add.o)
 .debug_line    0x00000000000040b1       0xb2 /opt/arm-linux-musleabi/bin/../lib/gcc/arm-linux-musleabi/7.3.0/../../../../arm-linux-musleabi/lib/libc_kernel.a(memchr.o)
 .debug_line    0x0000000000004163       0x7c /opt/arm-linux-musleabi/bin/../lib/gcc/arm-linux-musleabi/7.3.0/../../../../arm-linux-musleabi/lib/libc_kernel.a(memrchr.o)
 .debug_line    0x00000000000041df       0xe4 /opt/arm-linux-musleabi/bin/../lib/gcc/arm-linux-musleabi/7.3.0/../../../../arm-linux-musleabi/lib/libc_kernel.a(stpncpy.o)
 .debug_line    0x00000000000042c3       0x9c /opt/arm-linux-musleabi/bin/../lib/gcc/arm-linux-musleabi/7.3.0/../../../../arm-linux-musleabi/lib/libc_kernel.a(frexp.o)
 .debug_line    0x000000000000435f      0x1c0 /opt/arm-linux-musleabi/bin/../lib/gcc/arm-linux-musleabi/7.3.0/../../../../arm-linux-musleabi/lib/libc_kernel.a(wcrtomb.o)
 .debug_line    0x000000000000451f      0x115 /opt/arm-linux-musleabi/bin/../lib/gcc/arm-linux-musleabi/7.3.0/../../../../arm-linux-musleabi/lib/libc_kernel.a(__toread.o)
 .debug_line    0x0000000000004634       0x7c /opt/arm-linux-musleabi/bin/../lib/gcc/arm-linux-musleabi/7.3.0/libgcc.a(_udivsi3.o)
 .debug_line    0x00000000000046b0       0x88 /opt/arm-linux-musleabi/bin/../lib/gcc/arm-linux-musleabi/7.3.0/libgcc.a(_divsi3.o)
 .debug_line    0x0000000000004738      0x161 /opt/arm-linux-musleabi/bin/../lib/gcc/arm-linux-musleabi/7.3.0/libgcc.a(_arm_addsubdf3.o)
 .debug_line    0x0000000000004899      0x180 /opt/arm-linux-musleabi/bin/../lib/gcc/arm-linux-musleabi/7.3.0/libgcc.a(_arm_muldivdf3.o)
 .debug_line    0x0000000000004a19       0xb0 /opt/arm-linux-musleabi/bin/../lib/gcc/arm-linux-musleabi/7.3.0/libgcc.a(_arm_cmpdf2.o)
 .debug_line    0x0000000000004ac9       0x76 /opt/arm-linux-musleabi/bin/../lib/gcc/arm-linux-musleabi/7.3.0/libgcc.a(_arm_fixdfsi.o)
 .debug_line    0x0000000000004b3f       0x74 /opt/arm-linux-musleabi/bin/../lib/gcc/arm-linux-musleabi/7.3.0/libgcc.a(_arm_fixunsdfsi.o)
 .debug_line    0x0000000000004bb3       0x5f /opt/arm-linux-musleabi/bin/../lib/gcc/arm-linux-musleabi/7.3.0/libgcc.a(_aeabi_uldivmod.o)
 .debug_line    0x0000000000004c12       0x64 /opt/arm-linux-musleabi/bin/../lib/gcc/arm-linux-musleabi/7.3.0/libgcc.a(_dvmd_lnx.o)
 .debug_line    0x0000000000004c76      0x235 /opt/arm-linux-musleabi/bin/../lib/gcc/arm-linux-musleabi/7.3.0/libgcc.a(_udivmoddi4.o)
 .debug_line    0x0000000000004eab      0x190 /opt/arm-linux-musleabi/bin/../lib/gcc/arm-linux-musleabi/7.3.0/../../../../arm-linux-musleabi/lib/libc_kernel.a(raise.o)
 .debug_line    0x000000000000503b      0x195 /opt/arm-linux-musleabi/bin/../lib/gcc/arm-linux-musleabi/7.3.0/../../../../arm-linux-musleabi/lib/libc_kernel.a(block.o)

.debug_pubnames
 *(.debug_pubnames)

.debug_aranges  0x0000000000000000      0xa78
 *(.debug_aranges)
 .debug_aranges
                0x0000000000000000       0x18 /opt/arm-linux-musleabi/bin/../lib/gcc/arm-linux-musleabi/7.3.0/../../../../arm-linux-musleabi/lib/libc_kernel.a(__environ.o)
 .debug_aranges
                0x0000000000000018       0x20 /opt/arm-linux-musleabi/bin/../lib/gcc/arm-linux-musleabi/7.3.0/../../../../arm-linux-musleabi/lib/libc_kernel.a(getenv.o)
 .debug_aranges
                0x0000000000000038       0x30 /opt/arm-linux-musleabi/bin/../lib/gcc/arm-linux-musleabi/7.3.0/../../../../arm-linux-musleabi/lib/libc_kernel.a(putenv.o)
 .debug_aranges
                0x0000000000000068       0x28 /opt/arm-linux-musleabi/bin/../lib/gcc/arm-linux-musleabi/7.3.0/../../../../arm-linux-musleabi/lib/libc_kernel.a(setenv.o)
 .debug_aranges
                0x0000000000000090       0x28 /opt/arm-linux-musleabi/bin/../lib/gcc/arm-linux-musleabi/7.3.0/../../../../arm-linux-musleabi/lib/libc_kernel.a(unsetenv.o)
 .debug_aranges
                0x00000000000000b8       0x28 /opt/arm-linux-musleabi/bin/../lib/gcc/arm-linux-musleabi/7.3.0/../../../../arm-linux-musleabi/lib/libc_kernel.a(fclose.o)
 .debug_aranges
                0x00000000000000e0       0x20 /opt/arm-linux-musleabi/bin/../lib/gcc/arm-linux-musleabi/7.3.0/../../../../arm-linux-musleabi/lib/libc_kernel.a(fflush.o)
 .debug_aranges
                0x0000000000000100       0x20 /opt/arm-linux-musleabi/bin/../lib/gcc/arm-linux-musleabi/7.3.0/../../../../arm-linux-musleabi/lib/libc_kernel.a(fileno.o)
 .debug_aranges
                0x0000000000000120       0x20 /opt/arm-linux-musleabi/bin/../lib/gcc/arm-linux-musleabi/7.3.0/../../../../arm-linux-musleabi/lib/libc_kernel.a(fopen.o)
 .debug_aranges
                0x0000000000000140       0x28 /opt/arm-linux-musleabi/bin/../lib/gcc/arm-linux-musleabi/7.3.0/../../../../arm-linux-musleabi/lib/libc_kernel.a(getchar.o)
 .debug_aranges
                0x0000000000000168       0x28 /opt/arm-linux-musleabi/bin/../lib/gcc/arm-linux-musleabi/7.3.0/../../../../arm-linux-musleabi/lib/libc_kernel.a(ofl.o)
 .debug_aranges
                0x0000000000000190       0x20 /opt/arm-linux-musleabi/bin/../lib/gcc/arm-linux-musleabi/7.3.0/../../../../arm-linux-musleabi/lib/libc_kernel.a(printf.o)
 .debug_aranges
                0x00000000000001b0       0x20 /opt/arm-linux-musleabi/bin/../lib/gcc/arm-linux-musleabi/7.3.0/../../../../arm-linux-musleabi/lib/libc_kernel.a(setvbuf.o)
 .debug_aranges
                0x00000000000001d0       0x20 /opt/arm-linux-musleabi/bin/../lib/gcc/arm-linux-musleabi/7.3.0/../../../../arm-linux-musleabi/lib/libc_kernel.a(snprintf.o)
 .debug_aranges
                0x00000000000001f0       0x18 /opt/arm-linux-musleabi/bin/../lib/gcc/arm-linux-musleabi/7.3.0/../../../../arm-linux-musleabi/lib/libc_kernel.a(stdin.o)
 .debug_aranges
                0x0000000000000208       0x18 /opt/arm-linux-musleabi/bin/../lib/gcc/arm-linux-musleabi/7.3.0/../../../../arm-linux-musleabi/lib/libc_kernel.a(stdout.o)
 .debug_aranges
                0x0000000000000220       0x38 /opt/arm-linux-musleabi/bin/../lib/gcc/arm-linux-musleabi/7.3.0/../../../../arm-linux-musleabi/lib/libc_kernel.a(vfprintf.o)
 .debug_aranges
                0x0000000000000258       0x28 /opt/arm-linux-musleabi/bin/../lib/gcc/arm-linux-musleabi/7.3.0/../../../../arm-linux-musleabi/lib/libc_kernel.a(vsnprintf.o)
 .debug_aranges
                0x0000000000000280       0x20 /opt/arm-linux-musleabi/bin/../lib/gcc/arm-linux-musleabi/7.3.0/../../../../arm-linux-musleabi/lib/libc_kernel.a(atoi.o)
 .debug_aranges
                0x00000000000002a0       0x20 /opt/arm-linux-musleabi/bin/../lib/gcc/arm-linux-musleabi/7.3.0/../../../../arm-linux-musleabi/lib/libc_kernel.a(memcpy_le.o)
 .debug_aranges
                0x00000000000002c0       0x20 /opt/arm-linux-musleabi/bin/../lib/gcc/arm-linux-musleabi/7.3.0/../../../../arm-linux-musleabi/lib/libc_kernel.a(memcmp.o)
 .debug_aranges
                0x00000000000002e0       0x20 /opt/arm-linux-musleabi/bin/../lib/gcc/arm-linux-musleabi/7.3.0/../../../../arm-linux-musleabi/lib/libc_kernel.a(memset.o)
 .debug_aranges
                0x0000000000000300       0x20 /opt/arm-linux-musleabi/bin/../lib/gcc/arm-linux-musleabi/7.3.0/../../../../arm-linux-musleabi/lib/libc_kernel.a(stpcpy.o)
 .debug_aranges
                0x0000000000000320       0x20 /opt/arm-linux-musleabi/bin/../lib/gcc/arm-linux-musleabi/7.3.0/../../../../arm-linux-musleabi/lib/libc_kernel.a(strchr.o)
 .debug_aranges
                0x0000000000000340       0x20 /opt/arm-linux-musleabi/bin/../lib/gcc/arm-linux-musleabi/7.3.0/../../../../arm-linux-musleabi/lib/libc_kernel.a(strchrnul.o)
 .debug_aranges
                0x0000000000000360       0x20 /opt/arm-linux-musleabi/bin/../lib/gcc/arm-linux-musleabi/7.3.0/../../../../arm-linux-musleabi/lib/libc_kernel.a(strcmp.o)
 .debug_aranges
                0x0000000000000380       0x20 /opt/arm-linux-musleabi/bin/../lib/gcc/arm-linux-musleabi/7.3.0/../../../../arm-linux-musleabi/lib/libc_kernel.a(strcpy.o)
 .debug_aranges
                0x00000000000003a0       0x20 /opt/arm-linux-musleabi/bin/../lib/gcc/arm-linux-musleabi/7.3.0/../../../../arm-linux-musleabi/lib/libc_kernel.a(strlen.o)
 .debug_aranges
                0x00000000000003c0       0x20 /opt/arm-linux-musleabi/bin/../lib/gcc/arm-linux-musleabi/7.3.0/../../../../arm-linux-musleabi/lib/libc_kernel.a(strncmp.o)
 .debug_aranges
                0x00000000000003e0       0x20 /opt/arm-linux-musleabi/bin/../lib/gcc/arm-linux-musleabi/7.3.0/../../../../arm-linux-musleabi/lib/libc_kernel.a(strncpy.o)
 .debug_aranges
                0x0000000000000400       0x20 /opt/arm-linux-musleabi/bin/../lib/gcc/arm-linux-musleabi/7.3.0/../../../../arm-linux-musleabi/lib/libc_kernel.a(strnlen.o)
 .debug_aranges
                0x0000000000000420       0x20 /opt/arm-linux-musleabi/bin/../lib/gcc/arm-linux-musleabi/7.3.0/../../../../arm-linux-musleabi/lib/libc_kernel.a(strrchr.o)
 .debug_aranges
                0x0000000000000440       0x28 /opt/arm-linux-musleabi/bin/../lib/gcc/arm-linux-musleabi/7.3.0/../../../../arm-linux-musleabi/lib/libc_kernel.a(strstr.o)
 .debug_aranges
                0x0000000000000468       0x28 /opt/arm-linux-musleabi/bin/../lib/gcc/arm-linux-musleabi/7.3.0/../../../../arm-linux-musleabi/lib/libc_kernel.a(__lock.o)
 .debug_aranges
                0x0000000000000490       0x20 /opt/arm-linux-musleabi/bin/../lib/gcc/arm-linux-musleabi/7.3.0/../../../../arm-linux-musleabi/lib/libc_kernel.a(atomics.o)
 .debug_aranges
                0x00000000000004b0       0x28 /opt/arm-linux-musleabi/bin/../lib/gcc/arm-linux-musleabi/7.3.0/../../../../arm-linux-musleabi/lib/libc_kernel.a(strerror.o)
 .debug_aranges
                0x00000000000004d8       0xe0 /opt/arm-linux-musleabi/bin/../lib/gcc/arm-linux-musleabi/7.3.0/../../../../arm-linux-musleabi/lib/libc_kernel.a(rtt_syscall.o)
 .debug_aranges
                0x00000000000005b8       0x20 /opt/arm-linux-musleabi/bin/../lib/gcc/arm-linux-musleabi/7.3.0/../../../../arm-linux-musleabi/lib/libc_kernel.a(syscall.o)
 .debug_aranges
                0x00000000000005d8       0x18 /opt/arm-linux-musleabi/bin/../lib/gcc/arm-linux-musleabi/7.3.0/../../../../arm-linux-musleabi/lib/libc_kernel.a(libc.o)
 .debug_aranges
                0x00000000000005f0       0x20 /opt/arm-linux-musleabi/bin/../lib/gcc/arm-linux-musleabi/7.3.0/../../../../arm-linux-musleabi/lib/libc_kernel.a(syscall_ret.o)
 .debug_aranges
                0x0000000000000610       0x30 /opt/arm-linux-musleabi/bin/../lib/gcc/arm-linux-musleabi/7.3.0/../../../../arm-linux-musleabi/lib/libc_kernel.a(__lctrans.o)
 .debug_aranges
                0x0000000000000640       0x20 /opt/arm-linux-musleabi/bin/../lib/gcc/arm-linux-musleabi/7.3.0/../../../../arm-linux-musleabi/lib/libc_kernel.a(frexpl.o)
 .debug_aranges
                0x0000000000000660       0x20 /opt/arm-linux-musleabi/bin/../lib/gcc/arm-linux-musleabi/7.3.0/../../../../arm-linux-musleabi/lib/libc_kernel.a(wctomb.o)
 .debug_aranges
                0x0000000000000680       0x20 /opt/arm-linux-musleabi/bin/../lib/gcc/arm-linux-musleabi/7.3.0/../../../../arm-linux-musleabi/lib/libc_kernel.a(__fdopen.o)
 .debug_aranges
                0x00000000000006a0       0x20 /opt/arm-linux-musleabi/bin/../lib/gcc/arm-linux-musleabi/7.3.0/../../../../arm-linux-musleabi/lib/libc_kernel.a(__fmodeflags.o)
 .debug_aranges
                0x00000000000006c0       0x28 /opt/arm-linux-musleabi/bin/../lib/gcc/arm-linux-musleabi/7.3.0/../../../../arm-linux-musleabi/lib/libc_kernel.a(__lockfile.o)
 .debug_aranges
                0x00000000000006e8       0x28 /opt/arm-linux-musleabi/bin/../lib/gcc/arm-linux-musleabi/7.3.0/../../../../arm-linux-musleabi/lib/libc_kernel.a(__stdio_close.o)
 .debug_aranges
                0x0000000000000710       0x20 /opt/arm-linux-musleabi/bin/../lib/gcc/arm-linux-musleabi/7.3.0/../../../../arm-linux-musleabi/lib/libc_kernel.a(__stdio_read.o)
 .debug_aranges
                0x0000000000000730       0x20 /opt/arm-linux-musleabi/bin/../lib/gcc/arm-linux-musleabi/7.3.0/../../../../arm-linux-musleabi/lib/libc_kernel.a(__stdio_seek.o)
 .debug_aranges
                0x0000000000000750       0x20 /opt/arm-linux-musleabi/bin/../lib/gcc/arm-linux-musleabi/7.3.0/../../../../arm-linux-musleabi/lib/libc_kernel.a(__stdio_write.o)
 .debug_aranges
                0x0000000000000770       0x20 /opt/arm-linux-musleabi/bin/../lib/gcc/arm-linux-musleabi/7.3.0/../../../../arm-linux-musleabi/lib/libc_kernel.a(__stdout_write.o)
 .debug_aranges
                0x0000000000000790       0x28 /opt/arm-linux-musleabi/bin/../lib/gcc/arm-linux-musleabi/7.3.0/../../../../arm-linux-musleabi/lib/libc_kernel.a(__towrite.o)
 .debug_aranges
                0x00000000000007b8       0x20 /opt/arm-linux-musleabi/bin/../lib/gcc/arm-linux-musleabi/7.3.0/../../../../arm-linux-musleabi/lib/libc_kernel.a(__uflow.o)
 .debug_aranges
                0x00000000000007d8       0x28 /opt/arm-linux-musleabi/bin/../lib/gcc/arm-linux-musleabi/7.3.0/../../../../arm-linux-musleabi/lib/libc_kernel.a(fwrite.o)
 .debug_aranges
                0x0000000000000800       0x20 /opt/arm-linux-musleabi/bin/../lib/gcc/arm-linux-musleabi/7.3.0/../../../../arm-linux-musleabi/lib/libc_kernel.a(ofl_add.o)
 .debug_aranges
                0x0000000000000820       0x20 /opt/arm-linux-musleabi/bin/../lib/gcc/arm-linux-musleabi/7.3.0/../../../../arm-linux-musleabi/lib/libc_kernel.a(memchr.o)
 .debug_aranges
                0x0000000000000840       0x20 /opt/arm-linux-musleabi/bin/../lib/gcc/arm-linux-musleabi/7.3.0/../../../../arm-linux-musleabi/lib/libc_kernel.a(memrchr.o)
 .debug_aranges
                0x0000000000000860       0x20 /opt/arm-linux-musleabi/bin/../lib/gcc/arm-linux-musleabi/7.3.0/../../../../arm-linux-musleabi/lib/libc_kernel.a(stpncpy.o)
 .debug_aranges
                0x0000000000000880       0x20 /opt/arm-linux-musleabi/bin/../lib/gcc/arm-linux-musleabi/7.3.0/../../../../arm-linux-musleabi/lib/libc_kernel.a(frexp.o)
 .debug_aranges
                0x00000000000008a0       0x20 /opt/arm-linux-musleabi/bin/../lib/gcc/arm-linux-musleabi/7.3.0/../../../../arm-linux-musleabi/lib/libc_kernel.a(wcrtomb.o)
 .debug_aranges
                0x00000000000008c0       0x28 /opt/arm-linux-musleabi/bin/../lib/gcc/arm-linux-musleabi/7.3.0/../../../../arm-linux-musleabi/lib/libc_kernel.a(__toread.o)
 .debug_aranges
                0x00000000000008e8       0x20 /opt/arm-linux-musleabi/bin/../lib/gcc/arm-linux-musleabi/7.3.0/libgcc.a(_udivsi3.o)
 .debug_aranges
                0x0000000000000908       0x20 /opt/arm-linux-musleabi/bin/../lib/gcc/arm-linux-musleabi/7.3.0/libgcc.a(_divsi3.o)
 .debug_aranges
                0x0000000000000928       0x20 /opt/arm-linux-musleabi/bin/../lib/gcc/arm-linux-musleabi/7.3.0/libgcc.a(_arm_addsubdf3.o)
 .debug_aranges
                0x0000000000000948       0x20 /opt/arm-linux-musleabi/bin/../lib/gcc/arm-linux-musleabi/7.3.0/libgcc.a(_arm_muldivdf3.o)
 .debug_aranges
                0x0000000000000968       0x20 /opt/arm-linux-musleabi/bin/../lib/gcc/arm-linux-musleabi/7.3.0/libgcc.a(_arm_cmpdf2.o)
 .debug_aranges
                0x0000000000000988       0x20 /opt/arm-linux-musleabi/bin/../lib/gcc/arm-linux-musleabi/7.3.0/libgcc.a(_arm_fixdfsi.o)
 .debug_aranges
                0x00000000000009a8       0x20 /opt/arm-linux-musleabi/bin/../lib/gcc/arm-linux-musleabi/7.3.0/libgcc.a(_arm_fixunsdfsi.o)
 .debug_aranges
                0x00000000000009c8       0x20 /opt/arm-linux-musleabi/bin/../lib/gcc/arm-linux-musleabi/7.3.0/libgcc.a(_aeabi_uldivmod.o)
 .debug_aranges
                0x00000000000009e8       0x20 /opt/arm-linux-musleabi/bin/../lib/gcc/arm-linux-musleabi/7.3.0/libgcc.a(_dvmd_lnx.o)
 .debug_aranges
                0x0000000000000a08       0x20 /opt/arm-linux-musleabi/bin/../lib/gcc/arm-linux-musleabi/7.3.0/libgcc.a(_udivmoddi4.o)
 .debug_aranges
                0x0000000000000a28       0x20 /opt/arm-linux-musleabi/bin/../lib/gcc/arm-linux-musleabi/7.3.0/../../../../arm-linux-musleabi/lib/libc_kernel.a(raise.o)
 .debug_aranges
                0x0000000000000a48       0x30 /opt/arm-linux-musleabi/bin/../lib/gcc/arm-linux-musleabi/7.3.0/../../../../arm-linux-musleabi/lib/libc_kernel.a(block.o)
                0x0000000000000a78                _end = .
                0x000000000004c1d8                PROVIDE (image_size = (__image_end - __image_start))
OUTPUT(rtthread.elf elf32-littlearm)

.debug_str      0x0000000000000000     0x4ebf
 .debug_str     0x0000000000000000      0x18d /opt/arm-linux-musleabi/bin/../lib/gcc/arm-linux-musleabi/7.3.0/../../../../arm-linux-musleabi/lib/libc_kernel.a(__environ.o)
                                        0x1ba (size before relaxing)
 .debug_str     0x000000000000018d       0x38 /opt/arm-linux-musleabi/bin/../lib/gcc/arm-linux-musleabi/7.3.0/../../../../arm-linux-musleabi/lib/libc_kernel.a(getenv.o)
                                        0x1cb (size before relaxing)
 .debug_str     0x00000000000001c5       0x59 /opt/arm-linux-musleabi/bin/../lib/gcc/arm-linux-musleabi/7.3.0/../../../../arm-linux-musleabi/lib/libc_kernel.a(putenv.o)
                                        0x207 (size before relaxing)
 .debug_str     0x000000000000021e       0x6d /opt/arm-linux-musleabi/bin/../lib/gcc/arm-linux-musleabi/7.3.0/../../../../arm-linux-musleabi/lib/libc_kernel.a(setenv.o)
                                        0x213 (size before relaxing)
 .debug_str     0x000000000000028b       0x1f /opt/arm-linux-musleabi/bin/../lib/gcc/arm-linux-musleabi/7.3.0/../../../../arm-linux-musleabi/lib/libc_kernel.a(unsetenv.o)
                                        0x1e7 (size before relaxing)
 .debug_str     0x00000000000002aa      0x187 /opt/arm-linux-musleabi/bin/../lib/gcc/arm-linux-musleabi/7.3.0/../../../../arm-linux-musleabi/lib/libc_kernel.a(fclose.o)
                                        0x344 (size before relaxing)
 .debug_str     0x0000000000000431       0x1f /opt/arm-linux-musleabi/bin/../lib/gcc/arm-linux-musleabi/7.3.0/../../../../arm-linux-musleabi/lib/libc_kernel.a(fflush.o)
                                        0x333 (size before relaxing)
 .debug_str     0x0000000000000450       0x26 /opt/arm-linux-musleabi/bin/../lib/gcc/arm-linux-musleabi/7.3.0/../../../../arm-linux-musleabi/lib/libc_kernel.a(fileno.o)
                                        0x327 (size before relaxing)
 .debug_str     0x0000000000000476       0x99 /opt/arm-linux-musleabi/bin/../lib/gcc/arm-linux-musleabi/7.3.0/../../../../arm-linux-musleabi/lib/libc_kernel.a(fopen.o)
                                        0x37f (size before relaxing)
 .debug_str     0x000000000000050f      0x341 /opt/arm-linux-musleabi/bin/../lib/gcc/arm-linux-musleabi/7.3.0/../../../../arm-linux-musleabi/lib/libc_kernel.a(getchar.o)
                                        0x6a9 (size before relaxing)
 .debug_str     0x0000000000000850       0x25 /opt/arm-linux-musleabi/bin/../lib/gcc/arm-linux-musleabi/7.3.0/../../../../arm-linux-musleabi/lib/libc_kernel.a(ofl.o)
                                        0x31f (size before relaxing)
 .debug_str     0x0000000000000875       0x37 /opt/arm-linux-musleabi/bin/../lib/gcc/arm-linux-musleabi/7.3.0/../../../../arm-linux-musleabi/lib/libc_kernel.a(printf.o)
                                        0x1f0 (size before relaxing)
 .debug_str     0x00000000000008ac       0x28 /opt/arm-linux-musleabi/bin/../lib/gcc/arm-linux-musleabi/7.3.0/../../../../arm-linux-musleabi/lib/libc_kernel.a(setvbuf.o)
                                        0x2fb (size before relaxing)
 .debug_str     0x00000000000008d4       0x2b /opt/arm-linux-musleabi/bin/../lib/gcc/arm-linux-musleabi/7.3.0/../../../../arm-linux-musleabi/lib/libc_kernel.a(snprintf.o)
                                        0x1fc (size before relaxing)
 .debug_str     0x00000000000008ff       0x1e /opt/arm-linux-musleabi/bin/../lib/gcc/arm-linux-musleabi/7.3.0/../../../../arm-linux-musleabi/lib/libc_kernel.a(stdin.o)
                                        0x2e7 (size before relaxing)
 .debug_str     0x000000000000091d       0x1f /opt/arm-linux-musleabi/bin/../lib/gcc/arm-linux-musleabi/7.3.0/../../../../arm-linux-musleabi/lib/libc_kernel.a(stdout.o)
                                        0x2e8 (size before relaxing)
 .debug_str     0x000000000000093c      0x1da /opt/arm-linux-musleabi/bin/../lib/gcc/arm-linux-musleabi/7.3.0/../../../../arm-linux-musleabi/lib/libc_kernel.a(vfprintf.o)
                                        0x591 (size before relaxing)
 .debug_str     0x0000000000000b16       0x2b /opt/arm-linux-musleabi/bin/../lib/gcc/arm-linux-musleabi/7.3.0/../../../../arm-linux-musleabi/lib/libc_kernel.a(vsnprintf.o)
                                        0x395 (size before relaxing)
 .debug_str     0x0000000000000b41       0x2d /opt/arm-linux-musleabi/bin/../lib/gcc/arm-linux-musleabi/7.3.0/../../../../arm-linux-musleabi/lib/libc_kernel.a(atoi.o)
                                        0x18e (size before relaxing)
 .debug_str     0x0000000000000b6e       0x33 /opt/arm-linux-musleabi/bin/../lib/gcc/arm-linux-musleabi/7.3.0/../../../../arm-linux-musleabi/lib/libc_kernel.a(memcpy_le.o)
                                         0x98 (size before relaxing)
 .debug_str     0x0000000000000ba1      0x11d /opt/arm-linux-musleabi/bin/../lib/gcc/arm-linux-musleabi/7.3.0/../../../../arm-linux-musleabi/lib/libc_kernel.a(memcmp.o)
                                        0x1a4 (size before relaxing)
 .debug_str     0x0000000000000cbe      0x130 /opt/arm-linux-musleabi/bin/../lib/gcc/arm-linux-musleabi/7.3.0/../../../../arm-linux-musleabi/lib/libc_kernel.a(memset.o)
                                        0x216 (size before relaxing)
 .debug_str     0x0000000000000dee       0x2e /opt/arm-linux-musleabi/bin/../lib/gcc/arm-linux-musleabi/7.3.0/../../../../arm-linux-musleabi/lib/libc_kernel.a(stpcpy.o)
                                        0x1e5 (size before relaxing)
 .debug_str     0x0000000000000e1c       0x20 /opt/arm-linux-musleabi/bin/../lib/gcc/arm-linux-musleabi/7.3.0/../../../../arm-linux-musleabi/lib/libc_kernel.a(strchr.o)
                                        0x17d (size before relaxing)
 .debug_str     0x0000000000000e3c       0x23 /opt/arm-linux-musleabi/bin/../lib/gcc/arm-linux-musleabi/7.3.0/../../../../arm-linux-musleabi/lib/libc_kernel.a(strchrnul.o)
                                        0x1f2 (size before relaxing)
 .debug_str     0x0000000000000e5f       0x27 /opt/arm-linux-musleabi/bin/../lib/gcc/arm-linux-musleabi/7.3.0/../../../../arm-linux-musleabi/lib/libc_kernel.a(strcmp.o)
                                        0x171 (size before relaxing)
 .debug_str     0x0000000000000e86       0x27 /opt/arm-linux-musleabi/bin/../lib/gcc/arm-linux-musleabi/7.3.0/../../../../arm-linux-musleabi/lib/libc_kernel.a(strcpy.o)
                                        0x17f (size before relaxing)
 .debug_str     0x0000000000000ead       0x20 /opt/arm-linux-musleabi/bin/../lib/gcc/arm-linux-musleabi/7.3.0/../../../../arm-linux-musleabi/lib/libc_kernel.a(strlen.o)
                                        0x1e3 (size before relaxing)
 .debug_str     0x0000000000000ecd       0x21 /opt/arm-linux-musleabi/bin/../lib/gcc/arm-linux-musleabi/7.3.0/../../../../arm-linux-musleabi/lib/libc_kernel.a(strncmp.o)
                                        0x188 (size before relaxing)
 .debug_str     0x0000000000000eee       0x33 /opt/arm-linux-musleabi/bin/../lib/gcc/arm-linux-musleabi/7.3.0/../../../../arm-linux-musleabi/lib/libc_kernel.a(strncpy.o)
                                        0x184 (size before relaxing)
 .debug_str     0x0000000000000f21       0x28 /opt/arm-linux-musleabi/bin/../lib/gcc/arm-linux-musleabi/7.3.0/../../../../arm-linux-musleabi/lib/libc_kernel.a(strnlen.o)
                                        0x181 (size before relaxing)
 .debug_str     0x0000000000000f49       0x33 /opt/arm-linux-musleabi/bin/../lib/gcc/arm-linux-musleabi/7.3.0/../../../../arm-linux-musleabi/lib/libc_kernel.a(strrchr.o)
                                        0x184 (size before relaxing)
 .debug_str     0x0000000000000f7c       0x7f /opt/arm-linux-musleabi/bin/../lib/gcc/arm-linux-musleabi/7.3.0/../../../../arm-linux-musleabi/lib/libc_kernel.a(strstr.o)
                                        0x269 (size before relaxing)
 .debug_str     0x0000000000000ffb       0x59 /opt/arm-linux-musleabi/bin/../lib/gcc/arm-linux-musleabi/7.3.0/../../../../arm-linux-musleabi/lib/libc_kernel.a(__lock.o)
                                        0x484 (size before relaxing)
 .debug_str     0x0000000000001054       0x25 /opt/arm-linux-musleabi/bin/../lib/gcc/arm-linux-musleabi/7.3.0/../../../../arm-linux-musleabi/lib/libc_kernel.a(atomics.o)
                                         0x96 (size before relaxing)
 .debug_str     0x0000000000001079       0x71 /opt/arm-linux-musleabi/bin/../lib/gcc/arm-linux-musleabi/7.3.0/../../../../arm-linux-musleabi/lib/libc_kernel.a(strerror.o)
                                        0x5b1 (size before relaxing)
 .debug_str     0x00000000000010ea     0x24ed /opt/arm-linux-musleabi/bin/../lib/gcc/arm-linux-musleabi/7.3.0/../../../../arm-linux-musleabi/lib/libc_kernel.a(rtt_syscall.o)
                                       0x27d8 (size before relaxing)
 .debug_str     0x00000000000035d7       0x27 /opt/arm-linux-musleabi/bin/../lib/gcc/arm-linux-musleabi/7.3.0/../../../../arm-linux-musleabi/lib/libc_kernel.a(syscall.o)
                                         0x98 (size before relaxing)
 .debug_str     0x00000000000035fe       0x56 /opt/arm-linux-musleabi/bin/../lib/gcc/arm-linux-musleabi/7.3.0/../../../../arm-linux-musleabi/lib/libc_kernel.a(libc.o)
                                        0x308 (size before relaxing)
 .debug_str     0x0000000000003654       0x27 /opt/arm-linux-musleabi/bin/../lib/gcc/arm-linux-musleabi/7.3.0/../../../../arm-linux-musleabi/lib/libc_kernel.a(syscall_ret.o)
                                        0x188 (size before relaxing)
 .debug_str     0x000000000000367b       0x31 /opt/arm-linux-musleabi/bin/../lib/gcc/arm-linux-musleabi/7.3.0/../../../../arm-linux-musleabi/lib/libc_kernel.a(__lctrans.o)
                                        0x5a4 (size before relaxing)
 .debug_str     0x00000000000036ac       0x2e /opt/arm-linux-musleabi/bin/../lib/gcc/arm-linux-musleabi/7.3.0/../../../../arm-linux-musleabi/lib/libc_kernel.a(frexpl.o)
                                        0x1f7 (size before relaxing)
 .debug_str     0x00000000000036da       0x2b /opt/arm-linux-musleabi/bin/../lib/gcc/arm-linux-musleabi/7.3.0/../../../../arm-linux-musleabi/lib/libc_kernel.a(wctomb.o)
                                        0x1ad (size before relaxing)
 .debug_str     0x0000000000003705       0x6e /opt/arm-linux-musleabi/bin/../lib/gcc/arm-linux-musleabi/7.3.0/../../../../arm-linux-musleabi/lib/libc_kernel.a(__fdopen.o)
                                        0x490 (size before relaxing)
 .debug_str     0x0000000000003773       0x25 /opt/arm-linux-musleabi/bin/../lib/gcc/arm-linux-musleabi/7.3.0/../../../../arm-linux-musleabi/lib/libc_kernel.a(__fmodeflags.o)
                                        0x1a6 (size before relaxing)
 .debug_str     0x0000000000003798       0x29 /opt/arm-linux-musleabi/bin/../lib/gcc/arm-linux-musleabi/7.3.0/../../../../arm-linux-musleabi/lib/libc_kernel.a(__lockfile.o)
                                        0x6bf (size before relaxing)
 .debug_str     0x00000000000037c1       0x34 /opt/arm-linux-musleabi/bin/../lib/gcc/arm-linux-musleabi/7.3.0/../../../../arm-linux-musleabi/lib/libc_kernel.a(__stdio_close.o)
                                        0x33a (size before relaxing)
 .debug_str     0x00000000000037f5       0x32 /opt/arm-linux-musleabi/bin/../lib/gcc/arm-linux-musleabi/7.3.0/../../../../arm-linux-musleabi/lib/libc_kernel.a(__stdio_read.o)
                                        0x351 (size before relaxing)
 .debug_str     0x0000000000003827       0x4b /opt/arm-linux-musleabi/bin/../lib/gcc/arm-linux-musleabi/7.3.0/../../../../arm-linux-musleabi/lib/libc_kernel.a(__stdio_seek.o)
                                        0x350 (size before relaxing)
 .debug_str     0x0000000000003872       0x39 /opt/arm-linux-musleabi/bin/../lib/gcc/arm-linux-musleabi/7.3.0/../../../../arm-linux-musleabi/lib/libc_kernel.a(__stdio_write.o)
                                        0x35f (size before relaxing)
 .debug_str     0x00000000000038ab       0x36 /opt/arm-linux-musleabi/bin/../lib/gcc/arm-linux-musleabi/7.3.0/../../../../arm-linux-musleabi/lib/libc_kernel.a(__stdout_write.o)
                                        0x373 (size before relaxing)
 .debug_str     0x00000000000038e1       0x51 /opt/arm-linux-musleabi/bin/../lib/gcc/arm-linux-musleabi/7.3.0/../../../../arm-linux-musleabi/lib/libc_kernel.a(__towrite.o)
                                        0x324 (size before relaxing)
 .debug_str     0x0000000000003932       0x29 /opt/arm-linux-musleabi/bin/../lib/gcc/arm-linux-musleabi/7.3.0/../../../../arm-linux-musleabi/lib/libc_kernel.a(__uflow.o)
                                        0x2fa (size before relaxing)
 .debug_str     0x000000000000395b       0x2c /opt/arm-linux-musleabi/bin/../lib/gcc/arm-linux-musleabi/7.3.0/../../../../arm-linux-musleabi/lib/libc_kernel.a(fwrite.o)
                                        0x33b (size before relaxing)
 .debug_str     0x0000000000003987       0x20 /opt/arm-linux-musleabi/bin/../lib/gcc/arm-linux-musleabi/7.3.0/../../../../arm-linux-musleabi/lib/libc_kernel.a(ofl_add.o)
                                        0x310 (size before relaxing)
 .debug_str     0x00000000000039a7       0x20 /opt/arm-linux-musleabi/bin/../lib/gcc/arm-linux-musleabi/7.3.0/../../../../arm-linux-musleabi/lib/libc_kernel.a(memchr.o)
                                        0x1de (size before relaxing)
 .debug_str     0x00000000000039c7       0x21 /opt/arm-linux-musleabi/bin/../lib/gcc/arm-linux-musleabi/7.3.0/../../../../arm-linux-musleabi/lib/libc_kernel.a(memrchr.o)
                                        0x185 (size before relaxing)
 .debug_str     0x00000000000039e8       0x26 /opt/arm-linux-musleabi/bin/../lib/gcc/arm-linux-musleabi/7.3.0/../../../../arm-linux-musleabi/lib/libc_kernel.a(stpncpy.o)
                                        0x1f3 (size before relaxing)
 .debug_str     0x0000000000003a0e       0x1d /opt/arm-linux-musleabi/bin/../lib/gcc/arm-linux-musleabi/7.3.0/../../../../arm-linux-musleabi/lib/libc_kernel.a(frexp.o)
                                        0x1e2 (size before relaxing)
 .debug_str     0x0000000000003a2b       0x4c /opt/arm-linux-musleabi/bin/../lib/gcc/arm-linux-musleabi/7.3.0/../../../../arm-linux-musleabi/lib/libc_kernel.a(wcrtomb.o)
                                        0x5e4 (size before relaxing)
 .debug_str     0x0000000000003a77       0x3b /opt/arm-linux-musleabi/bin/../lib/gcc/arm-linux-musleabi/7.3.0/../../../../arm-linux-musleabi/lib/libc_kernel.a(__toread.o)
                                        0x321 (size before relaxing)
 .debug_str     0x0000000000003ab2       0xa2 /opt/arm-linux-musleabi/bin/../lib/gcc/arm-linux-musleabi/7.3.0/libgcc.a(_udivsi3.o)
                                         0xae (size before relaxing)
 .debug_str     0x0000000000003b54       0xae /opt/arm-linux-musleabi/bin/../lib/gcc/arm-linux-musleabi/7.3.0/libgcc.a(_divsi3.o)
 .debug_str     0x0000000000003b54       0x30 /opt/arm-linux-musleabi/bin/../lib/gcc/arm-linux-musleabi/7.3.0/libgcc.a(_arm_addsubdf3.o)
                                         0xaf (size before relaxing)
 .debug_str     0x0000000000003b84       0xaf /opt/arm-linux-musleabi/bin/../lib/gcc/arm-linux-musleabi/7.3.0/libgcc.a(_arm_muldivdf3.o)
 .debug_str     0x0000000000003b84       0xaf /opt/arm-linux-musleabi/bin/../lib/gcc/arm-linux-musleabi/7.3.0/libgcc.a(_arm_cmpdf2.o)
 .debug_str     0x0000000000003b84       0xaf /opt/arm-linux-musleabi/bin/../lib/gcc/arm-linux-musleabi/7.3.0/libgcc.a(_arm_fixdfsi.o)
 .debug_str     0x0000000000003b84       0xaf /opt/arm-linux-musleabi/bin/../lib/gcc/arm-linux-musleabi/7.3.0/libgcc.a(_arm_fixunsdfsi.o)
 .debug_str     0x0000000000003b84       0x2b /opt/arm-linux-musleabi/bin/../lib/gcc/arm-linux-musleabi/7.3.0/libgcc.a(_aeabi_uldivmod.o)
                                         0xaa (size before relaxing)
 .debug_str     0x0000000000003baf       0xae /opt/arm-linux-musleabi/bin/../lib/gcc/arm-linux-musleabi/7.3.0/libgcc.a(_dvmd_lnx.o)
 .debug_str     0x0000000000003baf     0x1277 /opt/arm-linux-musleabi/bin/../lib/gcc/arm-linux-musleabi/7.3.0/libgcc.a(_udivmoddi4.o)
                                       0x1432 (size before relaxing)
 .debug_str     0x0000000000004e26       0x57 /opt/arm-linux-musleabi/bin/../lib/gcc/arm-linux-musleabi/7.3.0/../../../../arm-linux-musleabi/lib/libc_kernel.a(raise.o)
                                        0x5c9 (size before relaxing)
 .debug_str     0x0000000000004e7d       0x42 /opt/arm-linux-musleabi/bin/../lib/gcc/arm-linux-musleabi/7.3.0/../../../../arm-linux-musleabi/lib/libc_kernel.a(block.o)
                                        0x466 (size before relaxing)

.debug_loc      0x0000000000000000     0x845c
 .debug_loc     0x0000000000000000       0x79 /opt/arm-linux-musleabi/bin/../lib/gcc/arm-linux-musleabi/7.3.0/../../../../arm-linux-musleabi/lib/libc_kernel.a(getenv.o)
 .debug_loc     0x0000000000000079      0x2ae /opt/arm-linux-musleabi/bin/../lib/gcc/arm-linux-musleabi/7.3.0/../../../../arm-linux-musleabi/lib/libc_kernel.a(putenv.o)
 .debug_loc     0x0000000000000327      0x25f /opt/arm-linux-musleabi/bin/../lib/gcc/arm-linux-musleabi/7.3.0/../../../../arm-linux-musleabi/lib/libc_kernel.a(setenv.o)
 .debug_loc     0x0000000000000586       0xaf /opt/arm-linux-musleabi/bin/../lib/gcc/arm-linux-musleabi/7.3.0/../../../../arm-linux-musleabi/lib/libc_kernel.a(unsetenv.o)
 .debug_loc     0x0000000000000635       0xa5 /opt/arm-linux-musleabi/bin/../lib/gcc/arm-linux-musleabi/7.3.0/../../../../arm-linux-musleabi/lib/libc_kernel.a(fclose.o)
 .debug_loc     0x00000000000006da      0x122 /opt/arm-linux-musleabi/bin/../lib/gcc/arm-linux-musleabi/7.3.0/../../../../arm-linux-musleabi/lib/libc_kernel.a(fflush.o)
 .debug_loc     0x00000000000007fc       0x84 /opt/arm-linux-musleabi/bin/../lib/gcc/arm-linux-musleabi/7.3.0/../../../../arm-linux-musleabi/lib/libc_kernel.a(fileno.o)
 .debug_loc     0x0000000000000880      0x28d /opt/arm-linux-musleabi/bin/../lib/gcc/arm-linux-musleabi/7.3.0/../../../../arm-linux-musleabi/lib/libc_kernel.a(fopen.o)
 .debug_loc     0x0000000000000b0d      0x218 /opt/arm-linux-musleabi/bin/../lib/gcc/arm-linux-musleabi/7.3.0/../../../../arm-linux-musleabi/lib/libc_kernel.a(getchar.o)
 .debug_loc     0x0000000000000d25       0x60 /opt/arm-linux-musleabi/bin/../lib/gcc/arm-linux-musleabi/7.3.0/../../../../arm-linux-musleabi/lib/libc_kernel.a(setvbuf.o)
 .debug_loc     0x0000000000000d85       0x42 /opt/arm-linux-musleabi/bin/../lib/gcc/arm-linux-musleabi/7.3.0/../../../../arm-linux-musleabi/lib/libc_kernel.a(snprintf.o)
 .debug_loc     0x0000000000000dc7     0x37cb /opt/arm-linux-musleabi/bin/../lib/gcc/arm-linux-musleabi/7.3.0/../../../../arm-linux-musleabi/lib/libc_kernel.a(vfprintf.o)
 .debug_loc     0x0000000000004592      0x16c /opt/arm-linux-musleabi/bin/../lib/gcc/arm-linux-musleabi/7.3.0/../../../../arm-linux-musleabi/lib/libc_kernel.a(vsnprintf.o)
 .debug_loc     0x00000000000046fe       0xc6 /opt/arm-linux-musleabi/bin/../lib/gcc/arm-linux-musleabi/7.3.0/../../../../arm-linux-musleabi/lib/libc_kernel.a(atoi.o)
 .debug_loc     0x00000000000047c4      0x13f /opt/arm-linux-musleabi/bin/../lib/gcc/arm-linux-musleabi/7.3.0/../../../../arm-linux-musleabi/lib/libc_kernel.a(memcmp.o)
 .debug_loc     0x0000000000004903      0x17c /opt/arm-linux-musleabi/bin/../lib/gcc/arm-linux-musleabi/7.3.0/../../../../arm-linux-musleabi/lib/libc_kernel.a(memset.o)
 .debug_loc     0x0000000000004a7f       0xeb /opt/arm-linux-musleabi/bin/../lib/gcc/arm-linux-musleabi/7.3.0/../../../../arm-linux-musleabi/lib/libc_kernel.a(stpcpy.o)
 .debug_loc     0x0000000000004b6a       0x60 /opt/arm-linux-musleabi/bin/../lib/gcc/arm-linux-musleabi/7.3.0/../../../../arm-linux-musleabi/lib/libc_kernel.a(strchr.o)
 .debug_loc     0x0000000000004bca      0x129 /opt/arm-linux-musleabi/bin/../lib/gcc/arm-linux-musleabi/7.3.0/../../../../arm-linux-musleabi/lib/libc_kernel.a(strchrnul.o)
 .debug_loc     0x0000000000004cf3       0x8b /opt/arm-linux-musleabi/bin/../lib/gcc/arm-linux-musleabi/7.3.0/../../../../arm-linux-musleabi/lib/libc_kernel.a(strcmp.o)
 .debug_loc     0x0000000000004d7e       0x3f /opt/arm-linux-musleabi/bin/../lib/gcc/arm-linux-musleabi/7.3.0/../../../../arm-linux-musleabi/lib/libc_kernel.a(strcpy.o)
 .debug_loc     0x0000000000004dbd       0x79 /opt/arm-linux-musleabi/bin/../lib/gcc/arm-linux-musleabi/7.3.0/../../../../arm-linux-musleabi/lib/libc_kernel.a(strlen.o)
 .debug_loc     0x0000000000004e36      0x129 /opt/arm-linux-musleabi/bin/../lib/gcc/arm-linux-musleabi/7.3.0/../../../../arm-linux-musleabi/lib/libc_kernel.a(strncmp.o)
 .debug_loc     0x0000000000004f5f       0x60 /opt/arm-linux-musleabi/bin/../lib/gcc/arm-linux-musleabi/7.3.0/../../../../arm-linux-musleabi/lib/libc_kernel.a(strncpy.o)
 .debug_loc     0x0000000000004fbf       0x4f /opt/arm-linux-musleabi/bin/../lib/gcc/arm-linux-musleabi/7.3.0/../../../../arm-linux-musleabi/lib/libc_kernel.a(strnlen.o)
 .debug_loc     0x000000000000500e       0x6e /opt/arm-linux-musleabi/bin/../lib/gcc/arm-linux-musleabi/7.3.0/../../../../arm-linux-musleabi/lib/libc_kernel.a(strrchr.o)
 .debug_loc     0x000000000000507c      0x86e /opt/arm-linux-musleabi/bin/../lib/gcc/arm-linux-musleabi/7.3.0/../../../../arm-linux-musleabi/lib/libc_kernel.a(strstr.o)
 .debug_loc     0x00000000000058ea      0x54a /opt/arm-linux-musleabi/bin/../lib/gcc/arm-linux-musleabi/7.3.0/../../../../arm-linux-musleabi/lib/libc_kernel.a(__lock.o)
 .debug_loc     0x0000000000005e34       0xdd /opt/arm-linux-musleabi/bin/../lib/gcc/arm-linux-musleabi/7.3.0/../../../../arm-linux-musleabi/lib/libc_kernel.a(strerror.o)
 .debug_loc     0x0000000000005f11      0x6f6 /opt/arm-linux-musleabi/bin/../lib/gcc/arm-linux-musleabi/7.3.0/../../../../arm-linux-musleabi/lib/libc_kernel.a(rtt_syscall.o)
 .debug_loc     0x0000000000006607       0x21 /opt/arm-linux-musleabi/bin/../lib/gcc/arm-linux-musleabi/7.3.0/../../../../arm-linux-musleabi/lib/libc_kernel.a(syscall_ret.o)
 .debug_loc     0x0000000000006628       0x6e /opt/arm-linux-musleabi/bin/../lib/gcc/arm-linux-musleabi/7.3.0/../../../../arm-linux-musleabi/lib/libc_kernel.a(__lctrans.o)
 .debug_loc     0x0000000000006696       0x49 /opt/arm-linux-musleabi/bin/../lib/gcc/arm-linux-musleabi/7.3.0/../../../../arm-linux-musleabi/lib/libc_kernel.a(frexpl.o)
 .debug_loc     0x00000000000066df       0x42 /opt/arm-linux-musleabi/bin/../lib/gcc/arm-linux-musleabi/7.3.0/../../../../arm-linux-musleabi/lib/libc_kernel.a(wctomb.o)
 .debug_loc     0x0000000000006721      0x270 /opt/arm-linux-musleabi/bin/../lib/gcc/arm-linux-musleabi/7.3.0/../../../../arm-linux-musleabi/lib/libc_kernel.a(__fdopen.o)
 .debug_loc     0x0000000000006991       0x4c /opt/arm-linux-musleabi/bin/../lib/gcc/arm-linux-musleabi/7.3.0/../../../../arm-linux-musleabi/lib/libc_kernel.a(__fmodeflags.o)
 .debug_loc     0x00000000000069dd      0x3c7 /opt/arm-linux-musleabi/bin/../lib/gcc/arm-linux-musleabi/7.3.0/../../../../arm-linux-musleabi/lib/libc_kernel.a(__lockfile.o)
 .debug_loc     0x0000000000006da4       0x9e /opt/arm-linux-musleabi/bin/../lib/gcc/arm-linux-musleabi/7.3.0/../../../../arm-linux-musleabi/lib/libc_kernel.a(__stdio_close.o)
 .debug_loc     0x0000000000006e42      0x20d /opt/arm-linux-musleabi/bin/../lib/gcc/arm-linux-musleabi/7.3.0/../../../../arm-linux-musleabi/lib/libc_kernel.a(__stdio_read.o)
 .debug_loc     0x000000000000704f      0x153 /opt/arm-linux-musleabi/bin/../lib/gcc/arm-linux-musleabi/7.3.0/../../../../arm-linux-musleabi/lib/libc_kernel.a(__stdio_seek.o)
 .debug_loc     0x00000000000071a2      0x175 /opt/arm-linux-musleabi/bin/../lib/gcc/arm-linux-musleabi/7.3.0/../../../../arm-linux-musleabi/lib/libc_kernel.a(__stdio_write.o)
 .debug_loc     0x0000000000007317       0xf5 /opt/arm-linux-musleabi/bin/../lib/gcc/arm-linux-musleabi/7.3.0/../../../../arm-linux-musleabi/lib/libc_kernel.a(__stdout_write.o)
 .debug_loc     0x000000000000740c       0x1e /opt/arm-linux-musleabi/bin/../lib/gcc/arm-linux-musleabi/7.3.0/../../../../arm-linux-musleabi/lib/libc_kernel.a(__towrite.o)
 .debug_loc     0x000000000000742a       0x1e /opt/arm-linux-musleabi/bin/../lib/gcc/arm-linux-musleabi/7.3.0/../../../../arm-linux-musleabi/lib/libc_kernel.a(__uflow.o)
 .debug_loc     0x0000000000007448      0x299 /opt/arm-linux-musleabi/bin/../lib/gcc/arm-linux-musleabi/7.3.0/../../../../arm-linux-musleabi/lib/libc_kernel.a(fwrite.o)
 .debug_loc     0x00000000000076e1       0x31 /opt/arm-linux-musleabi/bin/../lib/gcc/arm-linux-musleabi/7.3.0/../../../../arm-linux-musleabi/lib/libc_kernel.a(ofl_add.o)
 .debug_loc     0x0000000000007712      0x11e /opt/arm-linux-musleabi/bin/../lib/gcc/arm-linux-musleabi/7.3.0/../../../../arm-linux-musleabi/lib/libc_kernel.a(memchr.o)
 .debug_loc     0x0000000000007830       0x9f /opt/arm-linux-musleabi/bin/../lib/gcc/arm-linux-musleabi/7.3.0/../../../../arm-linux-musleabi/lib/libc_kernel.a(memrchr.o)
 .debug_loc     0x00000000000078cf      0x1c8 /opt/arm-linux-musleabi/bin/../lib/gcc/arm-linux-musleabi/7.3.0/../../../../arm-linux-musleabi/lib/libc_kernel.a(stpncpy.o)
 .debug_loc     0x0000000000007a97      0x11c /opt/arm-linux-musleabi/bin/../lib/gcc/arm-linux-musleabi/7.3.0/../../../../arm-linux-musleabi/lib/libc_kernel.a(frexp.o)
 .debug_loc     0x0000000000007bb3      0x161 /opt/arm-linux-musleabi/bin/../lib/gcc/arm-linux-musleabi/7.3.0/../../../../arm-linux-musleabi/lib/libc_kernel.a(wcrtomb.o)
 .debug_loc     0x0000000000007d14       0x1e /opt/arm-linux-musleabi/bin/../lib/gcc/arm-linux-musleabi/7.3.0/../../../../arm-linux-musleabi/lib/libc_kernel.a(__toread.o)
 .debug_loc     0x0000000000007d32      0x4b8 /opt/arm-linux-musleabi/bin/../lib/gcc/arm-linux-musleabi/7.3.0/libgcc.a(_udivmoddi4.o)
 .debug_loc     0x00000000000081ea       0xce /opt/arm-linux-musleabi/bin/../lib/gcc/arm-linux-musleabi/7.3.0/../../../../arm-linux-musleabi/lib/libc_kernel.a(raise.o)
 .debug_loc     0x00000000000082b8      0x1a4 /opt/arm-linux-musleabi/bin/../lib/gcc/arm-linux-musleabi/7.3.0/../../../../arm-linux-musleabi/lib/libc_kernel.a(block.o)

.debug_ranges   0x0000000000000000      0xd38
 .debug_ranges  0x0000000000000000       0x28 /opt/arm-linux-musleabi/bin/../lib/gcc/arm-linux-musleabi/7.3.0/../../../../arm-linux-musleabi/lib/libc_kernel.a(getenv.o)
 .debug_ranges  0x0000000000000028       0x48 /opt/arm-linux-musleabi/bin/../lib/gcc/arm-linux-musleabi/7.3.0/../../../../arm-linux-musleabi/lib/libc_kernel.a(putenv.o)
 .debug_ranges  0x0000000000000070       0x40 /opt/arm-linux-musleabi/bin/../lib/gcc/arm-linux-musleabi/7.3.0/../../../../arm-linux-musleabi/lib/libc_kernel.a(setenv.o)
 .debug_ranges  0x00000000000000b0       0x38 /opt/arm-linux-musleabi/bin/../lib/gcc/arm-linux-musleabi/7.3.0/../../../../arm-linux-musleabi/lib/libc_kernel.a(unsetenv.o)
 .debug_ranges  0x00000000000000e8       0x18 /opt/arm-linux-musleabi/bin/../lib/gcc/arm-linux-musleabi/7.3.0/../../../../arm-linux-musleabi/lib/libc_kernel.a(fclose.o)
 .debug_ranges  0x0000000000000100       0x50 /opt/arm-linux-musleabi/bin/../lib/gcc/arm-linux-musleabi/7.3.0/../../../../arm-linux-musleabi/lib/libc_kernel.a(fflush.o)
 .debug_ranges  0x0000000000000150       0x10 /opt/arm-linux-musleabi/bin/../lib/gcc/arm-linux-musleabi/7.3.0/../../../../arm-linux-musleabi/lib/libc_kernel.a(fileno.o)
 .debug_ranges  0x0000000000000160       0x30 /opt/arm-linux-musleabi/bin/../lib/gcc/arm-linux-musleabi/7.3.0/../../../../arm-linux-musleabi/lib/libc_kernel.a(fopen.o)
 .debug_ranges  0x0000000000000190       0x80 /opt/arm-linux-musleabi/bin/../lib/gcc/arm-linux-musleabi/7.3.0/../../../../arm-linux-musleabi/lib/libc_kernel.a(getchar.o)
 .debug_ranges  0x0000000000000210       0x18 /opt/arm-linux-musleabi/bin/../lib/gcc/arm-linux-musleabi/7.3.0/../../../../arm-linux-musleabi/lib/libc_kernel.a(ofl.o)
 .debug_ranges  0x0000000000000228       0x10 /opt/arm-linux-musleabi/bin/../lib/gcc/arm-linux-musleabi/7.3.0/../../../../arm-linux-musleabi/lib/libc_kernel.a(printf.o)
 .debug_ranges  0x0000000000000238       0x10 /opt/arm-linux-musleabi/bin/../lib/gcc/arm-linux-musleabi/7.3.0/../../../../arm-linux-musleabi/lib/libc_kernel.a(setvbuf.o)
 .debug_ranges  0x0000000000000248       0x10 /opt/arm-linux-musleabi/bin/../lib/gcc/arm-linux-musleabi/7.3.0/../../../../arm-linux-musleabi/lib/libc_kernel.a(snprintf.o)
 .debug_ranges  0x0000000000000258      0x488 /opt/arm-linux-musleabi/bin/../lib/gcc/arm-linux-musleabi/7.3.0/../../../../arm-linux-musleabi/lib/libc_kernel.a(vfprintf.o)
 .debug_ranges  0x00000000000006e0       0x18 /opt/arm-linux-musleabi/bin/../lib/gcc/arm-linux-musleabi/7.3.0/../../../../arm-linux-musleabi/lib/libc_kernel.a(vsnprintf.o)
 .debug_ranges  0x00000000000006f8       0x28 /opt/arm-linux-musleabi/bin/../lib/gcc/arm-linux-musleabi/7.3.0/../../../../arm-linux-musleabi/lib/libc_kernel.a(atoi.o)
 .debug_ranges  0x0000000000000720       0x10 /opt/arm-linux-musleabi/bin/../lib/gcc/arm-linux-musleabi/7.3.0/../../../../arm-linux-musleabi/lib/libc_kernel.a(memcmp.o)
 .debug_ranges  0x0000000000000730       0x10 /opt/arm-linux-musleabi/bin/../lib/gcc/arm-linux-musleabi/7.3.0/../../../../arm-linux-musleabi/lib/libc_kernel.a(memset.o)
 .debug_ranges  0x0000000000000740       0x10 /opt/arm-linux-musleabi/bin/../lib/gcc/arm-linux-musleabi/7.3.0/../../../../arm-linux-musleabi/lib/libc_kernel.a(stpcpy.o)
 .debug_ranges  0x0000000000000750       0x10 /opt/arm-linux-musleabi/bin/../lib/gcc/arm-linux-musleabi/7.3.0/../../../../arm-linux-musleabi/lib/libc_kernel.a(strchr.o)
 .debug_ranges  0x0000000000000760       0x10 /opt/arm-linux-musleabi/bin/../lib/gcc/arm-linux-musleabi/7.3.0/../../../../arm-linux-musleabi/lib/libc_kernel.a(strchrnul.o)
 .debug_ranges  0x0000000000000770       0x10 /opt/arm-linux-musleabi/bin/../lib/gcc/arm-linux-musleabi/7.3.0/../../../../arm-linux-musleabi/lib/libc_kernel.a(strcmp.o)
 .debug_ranges  0x0000000000000780       0x10 /opt/arm-linux-musleabi/bin/../lib/gcc/arm-linux-musleabi/7.3.0/../../../../arm-linux-musleabi/lib/libc_kernel.a(strcpy.o)
 .debug_ranges  0x0000000000000790       0x10 /opt/arm-linux-musleabi/bin/../lib/gcc/arm-linux-musleabi/7.3.0/../../../../arm-linux-musleabi/lib/libc_kernel.a(strlen.o)
 .debug_ranges  0x00000000000007a0       0x10 /opt/arm-linux-musleabi/bin/../lib/gcc/arm-linux-musleabi/7.3.0/../../../../arm-linux-musleabi/lib/libc_kernel.a(strncmp.o)
 .debug_ranges  0x00000000000007b0       0x10 /opt/arm-linux-musleabi/bin/../lib/gcc/arm-linux-musleabi/7.3.0/../../../../arm-linux-musleabi/lib/libc_kernel.a(strncpy.o)
 .debug_ranges  0x00000000000007c0       0x10 /opt/arm-linux-musleabi/bin/../lib/gcc/arm-linux-musleabi/7.3.0/../../../../arm-linux-musleabi/lib/libc_kernel.a(strnlen.o)
 .debug_ranges  0x00000000000007d0       0x10 /opt/arm-linux-musleabi/bin/../lib/gcc/arm-linux-musleabi/7.3.0/../../../../arm-linux-musleabi/lib/libc_kernel.a(strrchr.o)
 .debug_ranges  0x00000000000007e0       0x68 /opt/arm-linux-musleabi/bin/../lib/gcc/arm-linux-musleabi/7.3.0/../../../../arm-linux-musleabi/lib/libc_kernel.a(strstr.o)
 .debug_ranges  0x0000000000000848       0x90 /opt/arm-linux-musleabi/bin/../lib/gcc/arm-linux-musleabi/7.3.0/../../../../arm-linux-musleabi/lib/libc_kernel.a(__lock.o)
 .debug_ranges  0x00000000000008d8       0x30 /opt/arm-linux-musleabi/bin/../lib/gcc/arm-linux-musleabi/7.3.0/../../../../arm-linux-musleabi/lib/libc_kernel.a(strerror.o)
 .debug_ranges  0x0000000000000908       0xf0 /opt/arm-linux-musleabi/bin/../lib/gcc/arm-linux-musleabi/7.3.0/../../../../arm-linux-musleabi/lib/libc_kernel.a(rtt_syscall.o)
 .debug_ranges  0x00000000000009f8       0x10 /opt/arm-linux-musleabi/bin/../lib/gcc/arm-linux-musleabi/7.3.0/../../../../arm-linux-musleabi/lib/libc_kernel.a(syscall_ret.o)
 .debug_ranges  0x0000000000000a08       0x38 /opt/arm-linux-musleabi/bin/../lib/gcc/arm-linux-musleabi/7.3.0/../../../../arm-linux-musleabi/lib/libc_kernel.a(__lctrans.o)
 .debug_ranges  0x0000000000000a40       0x10 /opt/arm-linux-musleabi/bin/../lib/gcc/arm-linux-musleabi/7.3.0/../../../../arm-linux-musleabi/lib/libc_kernel.a(frexpl.o)
 .debug_ranges  0x0000000000000a50       0x10 /opt/arm-linux-musleabi/bin/../lib/gcc/arm-linux-musleabi/7.3.0/../../../../arm-linux-musleabi/lib/libc_kernel.a(wctomb.o)
 .debug_ranges  0x0000000000000a60       0x28 /opt/arm-linux-musleabi/bin/../lib/gcc/arm-linux-musleabi/7.3.0/../../../../arm-linux-musleabi/lib/libc_kernel.a(__fdopen.o)
 .debug_ranges  0x0000000000000a88       0x10 /opt/arm-linux-musleabi/bin/../lib/gcc/arm-linux-musleabi/7.3.0/../../../../arm-linux-musleabi/lib/libc_kernel.a(__fmodeflags.o)
 .debug_ranges  0x0000000000000a98       0x60 /opt/arm-linux-musleabi/bin/../lib/gcc/arm-linux-musleabi/7.3.0/../../../../arm-linux-musleabi/lib/libc_kernel.a(__lockfile.o)
 .debug_ranges  0x0000000000000af8       0x30 /opt/arm-linux-musleabi/bin/../lib/gcc/arm-linux-musleabi/7.3.0/../../../../arm-linux-musleabi/lib/libc_kernel.a(__stdio_close.o)
 .debug_ranges  0x0000000000000b28       0x28 /opt/arm-linux-musleabi/bin/../lib/gcc/arm-linux-musleabi/7.3.0/../../../../arm-linux-musleabi/lib/libc_kernel.a(__stdio_read.o)
 .debug_ranges  0x0000000000000b50       0x30 /opt/arm-linux-musleabi/bin/../lib/gcc/arm-linux-musleabi/7.3.0/../../../../arm-linux-musleabi/lib/libc_kernel.a(__stdio_seek.o)
 .debug_ranges  0x0000000000000b80       0x30 /opt/arm-linux-musleabi/bin/../lib/gcc/arm-linux-musleabi/7.3.0/../../../../arm-linux-musleabi/lib/libc_kernel.a(__stdio_write.o)
 .debug_ranges  0x0000000000000bb0       0x28 /opt/arm-linux-musleabi/bin/../lib/gcc/arm-linux-musleabi/7.3.0/../../../../arm-linux-musleabi/lib/libc_kernel.a(__stdout_write.o)
 .debug_ranges  0x0000000000000bd8       0x18 /opt/arm-linux-musleabi/bin/../lib/gcc/arm-linux-musleabi/7.3.0/../../../../arm-linux-musleabi/lib/libc_kernel.a(__towrite.o)
 .debug_ranges  0x0000000000000bf0       0x10 /opt/arm-linux-musleabi/bin/../lib/gcc/arm-linux-musleabi/7.3.0/../../../../arm-linux-musleabi/lib/libc_kernel.a(__uflow.o)
 .debug_ranges  0x0000000000000c00       0x18 /opt/arm-linux-musleabi/bin/../lib/gcc/arm-linux-musleabi/7.3.0/../../../../arm-linux-musleabi/lib/libc_kernel.a(fwrite.o)
 .debug_ranges  0x0000000000000c18       0x10 /opt/arm-linux-musleabi/bin/../lib/gcc/arm-linux-musleabi/7.3.0/../../../../arm-linux-musleabi/lib/libc_kernel.a(ofl_add.o)
 .debug_ranges  0x0000000000000c28       0x10 /opt/arm-linux-musleabi/bin/../lib/gcc/arm-linux-musleabi/7.3.0/../../../../arm-linux-musleabi/lib/libc_kernel.a(memchr.o)
 .debug_ranges  0x0000000000000c38       0x10 /opt/arm-linux-musleabi/bin/../lib/gcc/arm-linux-musleabi/7.3.0/../../../../arm-linux-musleabi/lib/libc_kernel.a(memrchr.o)
 .debug_ranges  0x0000000000000c48       0x10 /opt/arm-linux-musleabi/bin/../lib/gcc/arm-linux-musleabi/7.3.0/../../../../arm-linux-musleabi/lib/libc_kernel.a(stpncpy.o)
 .debug_ranges  0x0000000000000c58       0x10 /opt/arm-linux-musleabi/bin/../lib/gcc/arm-linux-musleabi/7.3.0/../../../../arm-linux-musleabi/lib/libc_kernel.a(frexp.o)
 .debug_ranges  0x0000000000000c68       0x28 /opt/arm-linux-musleabi/bin/../lib/gcc/arm-linux-musleabi/7.3.0/../../../../arm-linux-musleabi/lib/libc_kernel.a(wcrtomb.o)
 .debug_ranges  0x0000000000000c90       0x18 /opt/arm-linux-musleabi/bin/../lib/gcc/arm-linux-musleabi/7.3.0/../../../../arm-linux-musleabi/lib/libc_kernel.a(__toread.o)
 .debug_ranges  0x0000000000000ca8       0x28 /opt/arm-linux-musleabi/bin/../lib/gcc/arm-linux-musleabi/7.3.0/../../../../arm-linux-musleabi/lib/libc_kernel.a(raise.o)
 .debug_ranges  0x0000000000000cd0       0x68 /opt/arm-linux-musleabi/bin/../lib/gcc/arm-linux-musleabi/7.3.0/../../../../arm-linux-musleabi/lib/libc_kernel.a(block.o)

.debug_frame    0x0000000000000000     0x26a0
 .debug_frame   0x0000000000000000       0x2c /opt/arm-linux-musleabi/bin/../lib/gcc/arm-linux-musleabi/7.3.0/../../../../arm-linux-musleabi/lib/libc_kernel.a(getenv.o)
 .debug_frame   0x000000000000002c       0x6c /opt/arm-linux-musleabi/bin/../lib/gcc/arm-linux-musleabi/7.3.0/../../../../arm-linux-musleabi/lib/libc_kernel.a(putenv.o)
 .debug_frame   0x0000000000000098       0x64 /opt/arm-linux-musleabi/bin/../lib/gcc/arm-linux-musleabi/7.3.0/../../../../arm-linux-musleabi/lib/libc_kernel.a(setenv.o)
 .debug_frame   0x00000000000000fc       0x40 /opt/arm-linux-musleabi/bin/../lib/gcc/arm-linux-musleabi/7.3.0/../../../../arm-linux-musleabi/lib/libc_kernel.a(unsetenv.o)
 .debug_frame   0x000000000000013c       0x3c /opt/arm-linux-musleabi/bin/../lib/gcc/arm-linux-musleabi/7.3.0/../../../../arm-linux-musleabi/lib/libc_kernel.a(fclose.o)
 .debug_frame   0x0000000000000178       0x44 /opt/arm-linux-musleabi/bin/../lib/gcc/arm-linux-musleabi/7.3.0/../../../../arm-linux-musleabi/lib/libc_kernel.a(fflush.o)
 .debug_frame   0x00000000000001bc       0x2c /opt/arm-linux-musleabi/bin/../lib/gcc/arm-linux-musleabi/7.3.0/../../../../arm-linux-musleabi/lib/libc_kernel.a(fileno.o)
 .debug_frame   0x00000000000001e8       0x2c /opt/arm-linux-musleabi/bin/../lib/gcc/arm-linux-musleabi/7.3.0/../../../../arm-linux-musleabi/lib/libc_kernel.a(fopen.o)
 .debug_frame   0x0000000000000214       0x5c /opt/arm-linux-musleabi/bin/../lib/gcc/arm-linux-musleabi/7.3.0/../../../../arm-linux-musleabi/lib/libc_kernel.a(getchar.o)
 .debug_frame   0x0000000000000270       0x38 /opt/arm-linux-musleabi/bin/../lib/gcc/arm-linux-musleabi/7.3.0/../../../../arm-linux-musleabi/lib/libc_kernel.a(ofl.o)
 .debug_frame   0x00000000000002a8       0x44 /opt/arm-linux-musleabi/bin/../lib/gcc/arm-linux-musleabi/7.3.0/../../../../arm-linux-musleabi/lib/libc_kernel.a(printf.o)
 .debug_frame   0x00000000000002ec       0x20 /opt/arm-linux-musleabi/bin/../lib/gcc/arm-linux-musleabi/7.3.0/../../../../arm-linux-musleabi/lib/libc_kernel.a(setvbuf.o)
 .debug_frame   0x000000000000030c       0x3c /opt/arm-linux-musleabi/bin/../lib/gcc/arm-linux-musleabi/7.3.0/../../../../arm-linux-musleabi/lib/libc_kernel.a(snprintf.o)
 .debug_frame   0x0000000000000348       0xe0 /opt/arm-linux-musleabi/bin/../lib/gcc/arm-linux-musleabi/7.3.0/../../../../arm-linux-musleabi/lib/libc_kernel.a(vfprintf.o)
 .debug_frame   0x0000000000000428       0x5c /opt/arm-linux-musleabi/bin/../lib/gcc/arm-linux-musleabi/7.3.0/../../../../arm-linux-musleabi/lib/libc_kernel.a(vsnprintf.o)
 .debug_frame   0x0000000000000484       0x20 /opt/arm-linux-musleabi/bin/../lib/gcc/arm-linux-musleabi/7.3.0/../../../../arm-linux-musleabi/lib/libc_kernel.a(atoi.o)
 .debug_frame   0x00000000000004a4       0x20 /opt/arm-linux-musleabi/bin/../lib/gcc/arm-linux-musleabi/7.3.0/../../../../arm-linux-musleabi/lib/libc_kernel.a(memcmp.o)
 .debug_frame   0x00000000000004c4       0x30 /opt/arm-linux-musleabi/bin/../lib/gcc/arm-linux-musleabi/7.3.0/../../../../arm-linux-musleabi/lib/libc_kernel.a(memset.o)
 .debug_frame   0x00000000000004f4       0x28 /opt/arm-linux-musleabi/bin/../lib/gcc/arm-linux-musleabi/7.3.0/../../../../arm-linux-musleabi/lib/libc_kernel.a(stpcpy.o)
 .debug_frame   0x000000000000051c       0x28 /opt/arm-linux-musleabi/bin/../lib/gcc/arm-linux-musleabi/7.3.0/../../../../arm-linux-musleabi/lib/libc_kernel.a(strchr.o)
 .debug_frame   0x0000000000000544       0x2c /opt/arm-linux-musleabi/bin/../lib/gcc/arm-linux-musleabi/7.3.0/../../../../arm-linux-musleabi/lib/libc_kernel.a(strchrnul.o)
 .debug_frame   0x0000000000000570       0x20 /opt/arm-linux-musleabi/bin/../lib/gcc/arm-linux-musleabi/7.3.0/../../../../arm-linux-musleabi/lib/libc_kernel.a(strcmp.o)
 .debug_frame   0x0000000000000590       0x28 /opt/arm-linux-musleabi/bin/../lib/gcc/arm-linux-musleabi/7.3.0/../../../../arm-linux-musleabi/lib/libc_kernel.a(strcpy.o)
 .debug_frame   0x00000000000005b8       0x2c /opt/arm-linux-musleabi/bin/../lib/gcc/arm-linux-musleabi/7.3.0/../../../../arm-linux-musleabi/lib/libc_kernel.a(strlen.o)
 .debug_frame   0x00000000000005e4       0x34 /opt/arm-linux-musleabi/bin/../lib/gcc/arm-linux-musleabi/7.3.0/../../../../arm-linux-musleabi/lib/libc_kernel.a(strncmp.o)
 .debug_frame   0x0000000000000618       0x28 /opt/arm-linux-musleabi/bin/../lib/gcc/arm-linux-musleabi/7.3.0/../../../../arm-linux-musleabi/lib/libc_kernel.a(strncpy.o)
 .debug_frame   0x0000000000000640       0x2c /opt/arm-linux-musleabi/bin/../lib/gcc/arm-linux-musleabi/7.3.0/../../../../arm-linux-musleabi/lib/libc_kernel.a(strnlen.o)
 .debug_frame   0x000000000000066c       0x34 /opt/arm-linux-musleabi/bin/../lib/gcc/arm-linux-musleabi/7.3.0/../../../../arm-linux-musleabi/lib/libc_kernel.a(strrchr.o)
 .debug_frame   0x00000000000006a0       0x74 /opt/arm-linux-musleabi/bin/../lib/gcc/arm-linux-musleabi/7.3.0/../../../../arm-linux-musleabi/lib/libc_kernel.a(strstr.o)
 .debug_frame   0x0000000000000714       0x5c /opt/arm-linux-musleabi/bin/../lib/gcc/arm-linux-musleabi/7.3.0/../../../../arm-linux-musleabi/lib/libc_kernel.a(__lock.o)
 .debug_frame   0x0000000000000770       0x3c /opt/arm-linux-musleabi/bin/../lib/gcc/arm-linux-musleabi/7.3.0/../../../../arm-linux-musleabi/lib/libc_kernel.a(strerror.o)
 .debug_frame   0x00000000000007ac     0x16c4 /opt/arm-linux-musleabi/bin/../lib/gcc/arm-linux-musleabi/7.3.0/../../../../arm-linux-musleabi/lib/libc_kernel.a(rtt_syscall.o)
 .debug_frame   0x0000000000001e70       0x20 /opt/arm-linux-musleabi/bin/../lib/gcc/arm-linux-musleabi/7.3.0/../../../../arm-linux-musleabi/lib/libc_kernel.a(syscall_ret.o)
 .debug_frame   0x0000000000001e90       0x4c /opt/arm-linux-musleabi/bin/../lib/gcc/arm-linux-musleabi/7.3.0/../../../../arm-linux-musleabi/lib/libc_kernel.a(__lctrans.o)
 .debug_frame   0x0000000000001edc       0x20 /opt/arm-linux-musleabi/bin/../lib/gcc/arm-linux-musleabi/7.3.0/../../../../arm-linux-musleabi/lib/libc_kernel.a(frexpl.o)
 .debug_frame   0x0000000000001efc       0x20 /opt/arm-linux-musleabi/bin/../lib/gcc/arm-linux-musleabi/7.3.0/../../../../arm-linux-musleabi/lib/libc_kernel.a(wctomb.o)
 .debug_frame   0x0000000000001f1c       0x38 /opt/arm-linux-musleabi/bin/../lib/gcc/arm-linux-musleabi/7.3.0/../../../../arm-linux-musleabi/lib/libc_kernel.a(__fdopen.o)
 .debug_frame   0x0000000000001f54       0x2c /opt/arm-linux-musleabi/bin/../lib/gcc/arm-linux-musleabi/7.3.0/../../../../arm-linux-musleabi/lib/libc_kernel.a(__fmodeflags.o)
 .debug_frame   0x0000000000001f80       0x60 /opt/arm-linux-musleabi/bin/../lib/gcc/arm-linux-musleabi/7.3.0/../../../../arm-linux-musleabi/lib/libc_kernel.a(__lockfile.o)
 .debug_frame   0x0000000000001fe0       0x40 /opt/arm-linux-musleabi/bin/../lib/gcc/arm-linux-musleabi/7.3.0/../../../../arm-linux-musleabi/lib/libc_kernel.a(__stdio_close.o)
 .debug_frame   0x0000000000002020       0x44 /opt/arm-linux-musleabi/bin/../lib/gcc/arm-linux-musleabi/7.3.0/../../../../arm-linux-musleabi/lib/libc_kernel.a(__stdio_read.o)
 .debug_frame   0x0000000000002064       0x38 /opt/arm-linux-musleabi/bin/../lib/gcc/arm-linux-musleabi/7.3.0/../../../../arm-linux-musleabi/lib/libc_kernel.a(__stdio_seek.o)
 .debug_frame   0x000000000000209c       0x44 /opt/arm-linux-musleabi/bin/../lib/gcc/arm-linux-musleabi/7.3.0/../../../../arm-linux-musleabi/lib/libc_kernel.a(__stdio_write.o)
 .debug_frame   0x00000000000020e0       0x38 /opt/arm-linux-musleabi/bin/../lib/gcc/arm-linux-musleabi/7.3.0/../../../../arm-linux-musleabi/lib/libc_kernel.a(__stdout_write.o)
 .debug_frame   0x0000000000002118       0x30 /opt/arm-linux-musleabi/bin/../lib/gcc/arm-linux-musleabi/7.3.0/../../../../arm-linux-musleabi/lib/libc_kernel.a(__towrite.o)
 .debug_frame   0x0000000000002148       0x30 /opt/arm-linux-musleabi/bin/../lib/gcc/arm-linux-musleabi/7.3.0/../../../../arm-linux-musleabi/lib/libc_kernel.a(__uflow.o)
 .debug_frame   0x0000000000002178       0x60 /opt/arm-linux-musleabi/bin/../lib/gcc/arm-linux-musleabi/7.3.0/../../../../arm-linux-musleabi/lib/libc_kernel.a(fwrite.o)
 .debug_frame   0x00000000000021d8       0x28 /opt/arm-linux-musleabi/bin/../lib/gcc/arm-linux-musleabi/7.3.0/../../../../arm-linux-musleabi/lib/libc_kernel.a(ofl_add.o)
 .debug_frame   0x0000000000002200       0x44 /opt/arm-linux-musleabi/bin/../lib/gcc/arm-linux-musleabi/7.3.0/../../../../arm-linux-musleabi/lib/libc_kernel.a(memchr.o)
 .debug_frame   0x0000000000002244       0x20 /opt/arm-linux-musleabi/bin/../lib/gcc/arm-linux-musleabi/7.3.0/../../../../arm-linux-musleabi/lib/libc_kernel.a(memrchr.o)
 .debug_frame   0x0000000000002264       0x2c /opt/arm-linux-musleabi/bin/../lib/gcc/arm-linux-musleabi/7.3.0/../../../../arm-linux-musleabi/lib/libc_kernel.a(stpncpy.o)
 .debug_frame   0x0000000000002290       0x30 /opt/arm-linux-musleabi/bin/../lib/gcc/arm-linux-musleabi/7.3.0/../../../../arm-linux-musleabi/lib/libc_kernel.a(frexp.o)
 .debug_frame   0x00000000000022c0       0x34 /opt/arm-linux-musleabi/bin/../lib/gcc/arm-linux-musleabi/7.3.0/../../../../arm-linux-musleabi/lib/libc_kernel.a(wcrtomb.o)
 .debug_frame   0x00000000000022f4       0x38 /opt/arm-linux-musleabi/bin/../lib/gcc/arm-linux-musleabi/7.3.0/../../../../arm-linux-musleabi/lib/libc_kernel.a(__toread.o)
 .debug_frame   0x000000000000232c       0x20 /opt/arm-linux-musleabi/bin/../lib/gcc/arm-linux-musleabi/7.3.0/libgcc.a(_udivsi3.o)
 .debug_frame   0x000000000000234c       0x20 /opt/arm-linux-musleabi/bin/../lib/gcc/arm-linux-musleabi/7.3.0/libgcc.a(_divsi3.o)
 .debug_frame   0x000000000000236c       0xac /opt/arm-linux-musleabi/bin/../lib/gcc/arm-linux-musleabi/7.3.0/libgcc.a(_arm_addsubdf3.o)
 .debug_frame   0x0000000000002418       0x50 /opt/arm-linux-musleabi/bin/../lib/gcc/arm-linux-musleabi/7.3.0/libgcc.a(_arm_muldivdf3.o)
 .debug_frame   0x0000000000002468       0xc4 /opt/arm-linux-musleabi/bin/../lib/gcc/arm-linux-musleabi/7.3.0/libgcc.a(_arm_cmpdf2.o)
 .debug_frame   0x000000000000252c       0x24 /opt/arm-linux-musleabi/bin/../lib/gcc/arm-linux-musleabi/7.3.0/libgcc.a(_arm_fixdfsi.o)
 .debug_frame   0x0000000000002550       0x24 /opt/arm-linux-musleabi/bin/../lib/gcc/arm-linux-musleabi/7.3.0/libgcc.a(_arm_fixunsdfsi.o)
 .debug_frame   0x0000000000002574       0x2c /opt/arm-linux-musleabi/bin/../lib/gcc/arm-linux-musleabi/7.3.0/libgcc.a(_aeabi_uldivmod.o)
 .debug_frame   0x00000000000025a0       0x28 /opt/arm-linux-musleabi/bin/../lib/gcc/arm-linux-musleabi/7.3.0/libgcc.a(_dvmd_lnx.o)
 .debug_frame   0x00000000000025c8       0x40 /opt/arm-linux-musleabi/bin/../lib/gcc/arm-linux-musleabi/7.3.0/libgcc.a(_udivmoddi4.o)
 .debug_frame   0x0000000000002608       0x34 /opt/arm-linux-musleabi/bin/../lib/gcc/arm-linux-musleabi/7.3.0/../../../../arm-linux-musleabi/lib/libc_kernel.a(raise.o)
 .debug_frame   0x000000000000263c       0x64 /opt/arm-linux-musleabi/bin/../lib/gcc/arm-linux-musleabi/7.3.0/../../../../arm-linux-musleabi/lib/libc_kernel.a(block.o)

Cross Reference Table

Symbol                                            File
MMUTable                                          build/libcpu/mmu.o
                                                  build/kernel/components/lwp/arch/arm/arm926/arch_user_space_init.o
                                                  build/drivers/board.o
                                                  build/libcpu/start_gcc.o
___environ                                        /opt/arm-linux-musleabi/bin/../lib/gcc/arm-linux-musleabi/7.3.0/../../../../arm-linux-musleabi/lib/libc_kernel.a(__environ.o)
___errno_location                                 build/kernel/src/kservice.o
                                                  /opt/arm-linux-musleabi/bin/../lib/gcc/arm-linux-musleabi/7.3.0/../../../../arm-linux-musleabi/lib/libc_kernel.a(wcrtomb.o)
                                                  /opt/arm-linux-musleabi/bin/../lib/gcc/arm-linux-musleabi/7.3.0/../../../../arm-linux-musleabi/lib/libc_kernel.a(__fdopen.o)
                                                  /opt/arm-linux-musleabi/bin/../lib/gcc/arm-linux-musleabi/7.3.0/../../../../arm-linux-musleabi/lib/libc_kernel.a(vsnprintf.o)
                                                  /opt/arm-linux-musleabi/bin/../lib/gcc/arm-linux-musleabi/7.3.0/../../../../arm-linux-musleabi/lib/libc_kernel.a(vfprintf.o)
                                                  /opt/arm-linux-musleabi/bin/../lib/gcc/arm-linux-musleabi/7.3.0/../../../../arm-linux-musleabi/lib/libc_kernel.a(fopen.o)
                                                  /opt/arm-linux-musleabi/bin/../lib/gcc/arm-linux-musleabi/7.3.0/../../../../arm-linux-musleabi/lib/libc_kernel.a(fileno.o)
                                                  /opt/arm-linux-musleabi/bin/../lib/gcc/arm-linux-musleabi/7.3.0/../../../../arm-linux-musleabi/lib/libc_kernel.a(unsetenv.o)
                                                  /opt/arm-linux-musleabi/bin/../lib/gcc/arm-linux-musleabi/7.3.0/../../../../arm-linux-musleabi/lib/libc_kernel.a(setenv.o)
___syscall                                        /opt/arm-linux-musleabi/bin/../lib/gcc/arm-linux-musleabi/7.3.0/../../../../arm-linux-musleabi/lib/libc_kernel.a(rtt_syscall.o)
                                                  /opt/arm-linux-musleabi/bin/../lib/gcc/arm-linux-musleabi/7.3.0/../../../../arm-linux-musleabi/lib/libc_kernel.a(syscall.o)
__a_barrier_dummy                                 /opt/arm-linux-musleabi/bin/../lib/gcc/arm-linux-musleabi/7.3.0/../../../../arm-linux-musleabi/lib/libc_kernel.a(atomics.o)
__a_barrier_oldkuser                              /opt/arm-linux-musleabi/bin/../lib/gcc/arm-linux-musleabi/7.3.0/../../../../arm-linux-musleabi/lib/libc_kernel.a(atomics.o)
__a_barrier_ptr                                   /opt/arm-linux-musleabi/bin/../lib/gcc/arm-linux-musleabi/7.3.0/../../../../arm-linux-musleabi/lib/libc_kernel.a(atomics.o)
__a_barrier_v6                                    /opt/arm-linux-musleabi/bin/../lib/gcc/arm-linux-musleabi/7.3.0/../../../../arm-linux-musleabi/lib/libc_kernel.a(atomics.o)
__a_barrier_v7                                    /opt/arm-linux-musleabi/bin/../lib/gcc/arm-linux-musleabi/7.3.0/../../../../arm-linux-musleabi/lib/libc_kernel.a(atomics.o)
__a_cas_dummy                                     /opt/arm-linux-musleabi/bin/../lib/gcc/arm-linux-musleabi/7.3.0/../../../../arm-linux-musleabi/lib/libc_kernel.a(atomics.o)
__a_cas_ptr                                       /opt/arm-linux-musleabi/bin/../lib/gcc/arm-linux-musleabi/7.3.0/../../../../arm-linux-musleabi/lib/libc_kernel.a(atomics.o)
                                                  /opt/arm-linux-musleabi/bin/../lib/gcc/arm-linux-musleabi/7.3.0/../../../../arm-linux-musleabi/lib/libc_kernel.a(__lockfile.o)
                                                  /opt/arm-linux-musleabi/bin/../lib/gcc/arm-linux-musleabi/7.3.0/../../../../arm-linux-musleabi/lib/libc_kernel.a(__lock.o)
                                                  /opt/arm-linux-musleabi/bin/../lib/gcc/arm-linux-musleabi/7.3.0/../../../../arm-linux-musleabi/lib/libc_kernel.a(getchar.o)
__a_cas_v6                                        /opt/arm-linux-musleabi/bin/../lib/gcc/arm-linux-musleabi/7.3.0/../../../../arm-linux-musleabi/lib/libc_kernel.a(atomics.o)
__a_cas_v7                                        /opt/arm-linux-musleabi/bin/../lib/gcc/arm-linux-musleabi/7.3.0/../../../../arm-linux-musleabi/lib/libc_kernel.a(atomics.o)
__a_gettp_cp15                                    /opt/arm-linux-musleabi/bin/../lib/gcc/arm-linux-musleabi/7.3.0/../../../../arm-linux-musleabi/lib/libc_kernel.a(atomics.o)
__a_gettp_ptr                                     /opt/arm-linux-musleabi/bin/../lib/gcc/arm-linux-musleabi/7.3.0/../../../../arm-linux-musleabi/lib/libc_kernel.a(atomics.o)
                                                  /opt/arm-linux-musleabi/bin/../lib/gcc/arm-linux-musleabi/7.3.0/../../../../arm-linux-musleabi/lib/libc_kernel.a(raise.o)
                                                  /opt/arm-linux-musleabi/bin/../lib/gcc/arm-linux-musleabi/7.3.0/../../../../arm-linux-musleabi/lib/libc_kernel.a(wcrtomb.o)
                                                  /opt/arm-linux-musleabi/bin/../lib/gcc/arm-linux-musleabi/7.3.0/../../../../arm-linux-musleabi/lib/libc_kernel.a(__lockfile.o)
                                                  /opt/arm-linux-musleabi/bin/../lib/gcc/arm-linux-musleabi/7.3.0/../../../../arm-linux-musleabi/lib/libc_kernel.a(__lctrans.o)
                                                  /opt/arm-linux-musleabi/bin/../lib/gcc/arm-linux-musleabi/7.3.0/../../../../arm-linux-musleabi/lib/libc_kernel.a(strerror.o)
                                                  /opt/arm-linux-musleabi/bin/../lib/gcc/arm-linux-musleabi/7.3.0/../../../../arm-linux-musleabi/lib/libc_kernel.a(getchar.o)
__adddf3                                          /opt/arm-linux-musleabi/bin/../lib/gcc/arm-linux-musleabi/7.3.0/libgcc.a(_arm_addsubdf3.o)
__aeabi_cdcmpeq                                   /opt/arm-linux-musleabi/bin/../lib/gcc/arm-linux-musleabi/7.3.0/libgcc.a(_arm_cmpdf2.o)
__aeabi_cdcmple                                   /opt/arm-linux-musleabi/bin/../lib/gcc/arm-linux-musleabi/7.3.0/libgcc.a(_arm_cmpdf2.o)
__aeabi_cdrcmple                                  /opt/arm-linux-musleabi/bin/../lib/gcc/arm-linux-musleabi/7.3.0/libgcc.a(_arm_cmpdf2.o)
__aeabi_d2iz                                      /opt/arm-linux-musleabi/bin/../lib/gcc/arm-linux-musleabi/7.3.0/libgcc.a(_arm_fixdfsi.o)
                                                  /opt/arm-linux-musleabi/bin/../lib/gcc/arm-linux-musleabi/7.3.0/../../../../arm-linux-musleabi/lib/libc_kernel.a(vfprintf.o)
__aeabi_d2uiz                                     /opt/arm-linux-musleabi/bin/../lib/gcc/arm-linux-musleabi/7.3.0/libgcc.a(_arm_fixunsdfsi.o)
                                                  /opt/arm-linux-musleabi/bin/../lib/gcc/arm-linux-musleabi/7.3.0/../../../../arm-linux-musleabi/lib/libc_kernel.a(vfprintf.o)
__aeabi_dadd                                      /opt/arm-linux-musleabi/bin/../lib/gcc/arm-linux-musleabi/7.3.0/libgcc.a(_arm_addsubdf3.o)
                                                  /opt/arm-linux-musleabi/bin/../lib/gcc/arm-linux-musleabi/7.3.0/../../../../arm-linux-musleabi/lib/libc_kernel.a(vfprintf.o)
__aeabi_dcmpeq                                    /opt/arm-linux-musleabi/bin/../lib/gcc/arm-linux-musleabi/7.3.0/libgcc.a(_arm_cmpdf2.o)
                                                  /opt/arm-linux-musleabi/bin/../lib/gcc/arm-linux-musleabi/7.3.0/../../../../arm-linux-musleabi/lib/libc_kernel.a(frexp.o)
                                                  /opt/arm-linux-musleabi/bin/../lib/gcc/arm-linux-musleabi/7.3.0/../../../../arm-linux-musleabi/lib/libc_kernel.a(vfprintf.o)
__aeabi_dcmpge                                    /opt/arm-linux-musleabi/bin/../lib/gcc/arm-linux-musleabi/7.3.0/libgcc.a(_arm_cmpdf2.o)
__aeabi_dcmpgt                                    /opt/arm-linux-musleabi/bin/../lib/gcc/arm-linux-musleabi/7.3.0/libgcc.a(_arm_cmpdf2.o)
__aeabi_dcmple                                    /opt/arm-linux-musleabi/bin/../lib/gcc/arm-linux-musleabi/7.3.0/libgcc.a(_arm_cmpdf2.o)
__aeabi_dcmplt                                    /opt/arm-linux-musleabi/bin/../lib/gcc/arm-linux-musleabi/7.3.0/libgcc.a(_arm_cmpdf2.o)
__aeabi_ddiv                                      /opt/arm-linux-musleabi/bin/../lib/gcc/arm-linux-musleabi/7.3.0/libgcc.a(_arm_muldivdf3.o)
__aeabi_dmul                                      /opt/arm-linux-musleabi/bin/../lib/gcc/arm-linux-musleabi/7.3.0/libgcc.a(_arm_muldivdf3.o)
                                                  /opt/arm-linux-musleabi/bin/../lib/gcc/arm-linux-musleabi/7.3.0/../../../../arm-linux-musleabi/lib/libc_kernel.a(frexp.o)
                                                  /opt/arm-linux-musleabi/bin/../lib/gcc/arm-linux-musleabi/7.3.0/../../../../arm-linux-musleabi/lib/libc_kernel.a(vfprintf.o)
__aeabi_drsub                                     /opt/arm-linux-musleabi/bin/../lib/gcc/arm-linux-musleabi/7.3.0/libgcc.a(_arm_addsubdf3.o)
__aeabi_dsub                                      /opt/arm-linux-musleabi/bin/../lib/gcc/arm-linux-musleabi/7.3.0/libgcc.a(_arm_addsubdf3.o)
                                                  /opt/arm-linux-musleabi/bin/../lib/gcc/arm-linux-musleabi/7.3.0/../../../../arm-linux-musleabi/lib/libc_kernel.a(vfprintf.o)
__aeabi_f2d                                       /opt/arm-linux-musleabi/bin/../lib/gcc/arm-linux-musleabi/7.3.0/libgcc.a(_arm_addsubdf3.o)
__aeabi_i2d                                       /opt/arm-linux-musleabi/bin/../lib/gcc/arm-linux-musleabi/7.3.0/libgcc.a(_arm_addsubdf3.o)
                                                  /opt/arm-linux-musleabi/bin/../lib/gcc/arm-linux-musleabi/7.3.0/../../../../arm-linux-musleabi/lib/libc_kernel.a(vfprintf.o)
__aeabi_idiv                                      /opt/arm-linux-musleabi/bin/../lib/gcc/arm-linux-musleabi/7.3.0/libgcc.a(_divsi3.o)
                                                  build/drivers/drv_clock.o
__aeabi_idiv0                                     /opt/arm-linux-musleabi/bin/../lib/gcc/arm-linux-musleabi/7.3.0/libgcc.a(_dvmd_lnx.o)
                                                  /opt/arm-linux-musleabi/bin/../lib/gcc/arm-linux-musleabi/7.3.0/libgcc.a(_divsi3.o)
                                                  /opt/arm-linux-musleabi/bin/../lib/gcc/arm-linux-musleabi/7.3.0/libgcc.a(_udivsi3.o)
__aeabi_idivmod                                   /opt/arm-linux-musleabi/bin/../lib/gcc/arm-linux-musleabi/7.3.0/libgcc.a(_divsi3.o)
                                                  build/drivers/drv_clock.o
__aeabi_l2d                                       /opt/arm-linux-musleabi/bin/../lib/gcc/arm-linux-musleabi/7.3.0/libgcc.a(_arm_addsubdf3.o)
__aeabi_ldiv0                                     /opt/arm-linux-musleabi/bin/../lib/gcc/arm-linux-musleabi/7.3.0/libgcc.a(_dvmd_lnx.o)
                                                  /opt/arm-linux-musleabi/bin/../lib/gcc/arm-linux-musleabi/7.3.0/libgcc.a(_aeabi_uldivmod.o)
                                                  /opt/arm-linux-musleabi/bin/../lib/gcc/arm-linux-musleabi/7.3.0/libgcc.a(_aeabi_ldivmod.o)
__aeabi_ldivmod                                   /opt/arm-linux-musleabi/bin/../lib/gcc/arm-linux-musleabi/7.3.0/libgcc.a(_aeabi_ldivmod.o)
                                                  /opt/arm-linux-musleabi/bin/../lib/gcc/arm-linux-musleabi/7.3.0/../../../../arm-linux-musleabi/lib/libc_kernel.a(vfprintf.o)
__aeabi_ui2d                                      /opt/arm-linux-musleabi/bin/../lib/gcc/arm-linux-musleabi/7.3.0/libgcc.a(_arm_addsubdf3.o)
                                                  /opt/arm-linux-musleabi/bin/../lib/gcc/arm-linux-musleabi/7.3.0/../../../../arm-linux-musleabi/lib/libc_kernel.a(vfprintf.o)
__aeabi_uidiv                                     /opt/arm-linux-musleabi/bin/../lib/gcc/arm-linux-musleabi/7.3.0/libgcc.a(_udivsi3.o)
                                                  /opt/arm-linux-musleabi/bin/../lib/gcc/arm-linux-musleabi/7.3.0/../../../../arm-linux-musleabi/lib/libc_kernel.a(fwrite.o)
                                                  build/kernel/components/finsh/cmd.o
                                                  build/kernel/components/lwp/lwp_pid.o
                                                  build/kernel/src/slab.o
                                                  build/kernel/src/mempool.o
                                                  build/kernel/src/ipc.o
                                                  build/drivers/drv_uart.o
                                                  build/drivers/drv_clock.o
__aeabi_uidivmod                                  /opt/arm-linux-musleabi/bin/../lib/gcc/arm-linux-musleabi/7.3.0/libgcc.a(_udivsi3.o)
                                                  /opt/arm-linux-musleabi/bin/../lib/gcc/arm-linux-musleabi/7.3.0/../../../../arm-linux-musleabi/lib/libc_kernel.a(vfprintf.o)
                                                  build/drivers/drv_clock.o
__aeabi_ul2d                                      /opt/arm-linux-musleabi/bin/../lib/gcc/arm-linux-musleabi/7.3.0/libgcc.a(_arm_addsubdf3.o)
__aeabi_uldivmod                                  /opt/arm-linux-musleabi/bin/../lib/gcc/arm-linux-musleabi/7.3.0/libgcc.a(_aeabi_uldivmod.o)
                                                  /opt/arm-linux-musleabi/bin/../lib/gcc/arm-linux-musleabi/7.3.0/../../../../arm-linux-musleabi/lib/libc_kernel.a(vfprintf.o)
                                                  build/kernel/components/lwp/lwp_syscall.o
__aeabi_unwind_cpp_pr0                            build/libcpu/backtrace.o
__aeabi_unwind_cpp_pr1                            build/libcpu/backtrace.o
__aeabi_unwind_cpp_pr2                            build/libcpu/backtrace.o
__aio_close                                       /opt/arm-linux-musleabi/bin/../lib/gcc/arm-linux-musleabi/7.3.0/../../../../arm-linux-musleabi/lib/libc_kernel.a(__stdio_close.o)
__block_all_sigs                                  /opt/arm-linux-musleabi/bin/../lib/gcc/arm-linux-musleabi/7.3.0/../../../../arm-linux-musleabi/lib/libc_kernel.a(block.o)
__block_app_sigs                                  /opt/arm-linux-musleabi/bin/../lib/gcc/arm-linux-musleabi/7.3.0/../../../../arm-linux-musleabi/lib/libc_kernel.a(block.o)
                                                  /opt/arm-linux-musleabi/bin/../lib/gcc/arm-linux-musleabi/7.3.0/../../../../arm-linux-musleabi/lib/libc_kernel.a(raise.o)
__bss_end                                         build/drivers/board.o
                                                  build/libcpu/start_gcc.o
__bss_start                                       build/libcpu/start_gcc.o
__cmpdf2                                          /opt/arm-linux-musleabi/bin/../lib/gcc/arm-linux-musleabi/7.3.0/libgcc.a(_arm_cmpdf2.o)
__ctors_end__                                     build/libcpu/start_gcc.o
__ctors_start__                                   build/libcpu/start_gcc.o
__divdf3                                          /opt/arm-linux-musleabi/bin/../lib/gcc/arm-linux-musleabi/7.3.0/libgcc.a(_arm_muldivdf3.o)
__divsi3                                          /opt/arm-linux-musleabi/bin/../lib/gcc/arm-linux-musleabi/7.3.0/libgcc.a(_divsi3.o)
__env_rm_add                                      /opt/arm-linux-musleabi/bin/../lib/gcc/arm-linux-musleabi/7.3.0/../../../../arm-linux-musleabi/lib/libc_kernel.a(setenv.o)
                                                  /opt/arm-linux-musleabi/bin/../lib/gcc/arm-linux-musleabi/7.3.0/../../../../arm-linux-musleabi/lib/libc_kernel.a(putenv.o)
__environ                                         /opt/arm-linux-musleabi/bin/../lib/gcc/arm-linux-musleabi/7.3.0/../../../../arm-linux-musleabi/lib/libc_kernel.a(__environ.o)
                                                  /opt/arm-linux-musleabi/bin/../lib/gcc/arm-linux-musleabi/7.3.0/../../../../arm-linux-musleabi/lib/libc_kernel.a(unsetenv.o)
                                                  /opt/arm-linux-musleabi/bin/../lib/gcc/arm-linux-musleabi/7.3.0/../../../../arm-linux-musleabi/lib/libc_kernel.a(putenv.o)
                                                  /opt/arm-linux-musleabi/bin/../lib/gcc/arm-linux-musleabi/7.3.0/../../../../arm-linux-musleabi/lib/libc_kernel.a(getenv.o)
                                                  build/kernel/components/libc/compilers/musl/libc.o
__eqdf2                                           /opt/arm-linux-musleabi/bin/../lib/gcc/arm-linux-musleabi/7.3.0/libgcc.a(_arm_cmpdf2.o)
__exidx_end                                       build/libcpu/backtrace.o
__exidx_start                                     build/libcpu/backtrace.o
__extendsfdf2                                     /opt/arm-linux-musleabi/bin/../lib/gcc/arm-linux-musleabi/7.3.0/libgcc.a(_arm_addsubdf3.o)
__fdopen                                          /opt/arm-linux-musleabi/bin/../lib/gcc/arm-linux-musleabi/7.3.0/../../../../arm-linux-musleabi/lib/libc_kernel.a(__fdopen.o)
                                                  /opt/arm-linux-musleabi/bin/../lib/gcc/arm-linux-musleabi/7.3.0/../../../../arm-linux-musleabi/lib/libc_kernel.a(fopen.o)
__fixdfsi                                         /opt/arm-linux-musleabi/bin/../lib/gcc/arm-linux-musleabi/7.3.0/libgcc.a(_arm_fixdfsi.o)
__fixunsdfsi                                      /opt/arm-linux-musleabi/bin/../lib/gcc/arm-linux-musleabi/7.3.0/libgcc.a(_arm_fixunsdfsi.o)
__floatdidf                                       /opt/arm-linux-musleabi/bin/../lib/gcc/arm-linux-musleabi/7.3.0/libgcc.a(_arm_addsubdf3.o)
__floatsidf                                       /opt/arm-linux-musleabi/bin/../lib/gcc/arm-linux-musleabi/7.3.0/libgcc.a(_arm_addsubdf3.o)
__floatundidf                                     /opt/arm-linux-musleabi/bin/../lib/gcc/arm-linux-musleabi/7.3.0/libgcc.a(_arm_addsubdf3.o)
__floatunsidf                                     /opt/arm-linux-musleabi/bin/../lib/gcc/arm-linux-musleabi/7.3.0/libgcc.a(_arm_addsubdf3.o)
__fmodeflags                                      /opt/arm-linux-musleabi/bin/../lib/gcc/arm-linux-musleabi/7.3.0/../../../../arm-linux-musleabi/lib/libc_kernel.a(__fmodeflags.o)
                                                  /opt/arm-linux-musleabi/bin/../lib/gcc/arm-linux-musleabi/7.3.0/../../../../arm-linux-musleabi/lib/libc_kernel.a(fopen.o)
__fsym___cmd_cat                                  build/kernel/components/finsh/msh_file.o
__fsym___cmd_cat_desc                             build/kernel/components/finsh/msh_file.o
__fsym___cmd_cat_name                             build/kernel/components/finsh/msh_file.o
__fsym___cmd_cd                                   build/kernel/components/finsh/msh_file.o
__fsym___cmd_cd_desc                              build/kernel/components/finsh/msh_file.o
__fsym___cmd_cd_name                              build/kernel/components/finsh/msh_file.o
__fsym___cmd_clear                                build/kernel/components/finsh/cmd.o
__fsym___cmd_clear_desc                           build/kernel/components/finsh/cmd.o
__fsym___cmd_clear_name                           build/kernel/components/finsh/cmd.o
__fsym___cmd_cp                                   build/kernel/components/finsh/msh_file.o
__fsym___cmd_cp_desc                              build/kernel/components/finsh/msh_file.o
__fsym___cmd_cp_name                              build/kernel/components/finsh/msh_file.o
__fsym___cmd_df                                   build/kernel/components/finsh/msh_file.o
__fsym___cmd_df_desc                              build/kernel/components/finsh/msh_file.o
__fsym___cmd_df_name                              build/kernel/components/finsh/msh_file.o
__fsym___cmd_echo                                 build/kernel/components/finsh/msh_file.o
__fsym___cmd_echo_desc                            build/kernel/components/finsh/msh_file.o
__fsym___cmd_echo_name                            build/kernel/components/finsh/msh_file.o
__fsym___cmd_free                                 build/kernel/components/finsh/msh.o
__fsym___cmd_free_desc                            build/kernel/components/finsh/msh.o
__fsym___cmd_free_name                            build/kernel/components/finsh/msh.o
__fsym___cmd_hello                                build/kernel/components/finsh/cmd.o
__fsym___cmd_hello_desc                           build/kernel/components/finsh/cmd.o
__fsym___cmd_hello_name                           build/kernel/components/finsh/cmd.o
__fsym___cmd_help                                 build/kernel/components/finsh/msh.o
__fsym___cmd_help_desc                            build/kernel/components/finsh/msh.o
__fsym___cmd_help_name                            build/kernel/components/finsh/msh.o
__fsym___cmd_kill                                 build/kernel/components/lwp/lwp_pid.o
__fsym___cmd_kill_desc                            build/kernel/components/lwp/lwp_pid.o
__fsym___cmd_kill_name                            build/kernel/components/lwp/lwp_pid.o
__fsym___cmd_killall                              build/kernel/components/lwp/lwp_pid.o
__fsym___cmd_killall_desc                         build/kernel/components/lwp/lwp_pid.o
__fsym___cmd_killall_name                         build/kernel/components/lwp/lwp_pid.o
__fsym___cmd_list                                 build/kernel/components/finsh/cmd.o
__fsym___cmd_list_channel                         build/kernel/components/lwp/lwp_ipc.o
__fsym___cmd_list_channel_desc                    build/kernel/components/lwp/lwp_ipc.o
__fsym___cmd_list_channel_name                    build/kernel/components/lwp/lwp_ipc.o
__fsym___cmd_list_desc                            build/kernel/components/finsh/cmd.o
__fsym___cmd_list_device                          build/kernel/components/finsh/cmd.o
__fsym___cmd_list_device_desc                     build/kernel/components/finsh/cmd.o
__fsym___cmd_list_device_name                     build/kernel/components/finsh/cmd.o
__fsym___cmd_list_event                           build/kernel/components/finsh/cmd.o
__fsym___cmd_list_event_desc                      build/kernel/components/finsh/cmd.o
__fsym___cmd_list_event_name                      build/kernel/components/finsh/cmd.o
__fsym___cmd_list_fd                              build/kernel/components/dfs/src/dfs.o
__fsym___cmd_list_fd_desc                         build/kernel/components/dfs/src/dfs.o
__fsym___cmd_list_fd_name                         build/kernel/components/dfs/src/dfs.o
__fsym___cmd_list_mailbox                         build/kernel/components/finsh/cmd.o
__fsym___cmd_list_mailbox_desc                    build/kernel/components/finsh/cmd.o
__fsym___cmd_list_mailbox_name                    build/kernel/components/finsh/cmd.o
__fsym___cmd_list_memheap                         build/kernel/components/finsh/cmd.o
__fsym___cmd_list_memheap_desc                    build/kernel/components/finsh/cmd.o
__fsym___cmd_list_memheap_name                    build/kernel/components/finsh/cmd.o
__fsym___cmd_list_mempool                         build/kernel/components/finsh/cmd.o
__fsym___cmd_list_mempool_desc                    build/kernel/components/finsh/cmd.o
__fsym___cmd_list_mempool_name                    build/kernel/components/finsh/cmd.o
__fsym___cmd_list_msgqueue                        build/kernel/components/finsh/cmd.o
__fsym___cmd_list_msgqueue_desc                   build/kernel/components/finsh/cmd.o
__fsym___cmd_list_msgqueue_name                   build/kernel/components/finsh/cmd.o
__fsym___cmd_list_mutex                           build/kernel/components/finsh/cmd.o
__fsym___cmd_list_mutex_desc                      build/kernel/components/finsh/cmd.o
__fsym___cmd_list_mutex_name                      build/kernel/components/finsh/cmd.o
__fsym___cmd_list_name                            build/kernel/components/finsh/cmd.o
__fsym___cmd_list_page                            build/libcpu/page.o
__fsym___cmd_list_page_desc                       build/libcpu/page.o
__fsym___cmd_list_page_name                       build/libcpu/page.o
__fsym___cmd_list_process                         build/kernel/components/lwp/lwp_pid.o
__fsym___cmd_list_process_desc                    build/kernel/components/lwp/lwp_pid.o
__fsym___cmd_list_process_name                    build/kernel/components/lwp/lwp_pid.o
__fsym___cmd_list_sem                             build/kernel/components/finsh/cmd.o
__fsym___cmd_list_sem_desc                        build/kernel/components/finsh/cmd.o
__fsym___cmd_list_sem_name                        build/kernel/components/finsh/cmd.o
__fsym___cmd_list_shm                             build/kernel/components/lwp/lwp_shm.o
__fsym___cmd_list_shm_desc                        build/kernel/components/lwp/lwp_shm.o
__fsym___cmd_list_shm_name                        build/kernel/components/lwp/lwp_shm.o
__fsym___cmd_list_thread                          build/kernel/components/finsh/cmd.o
__fsym___cmd_list_thread_desc                     build/kernel/components/finsh/cmd.o
__fsym___cmd_list_thread_name                     build/kernel/components/finsh/cmd.o
__fsym___cmd_list_timer                           build/kernel/components/finsh/cmd.o
__fsym___cmd_list_timer_desc                      build/kernel/components/finsh/cmd.o
__fsym___cmd_list_timer_name                      build/kernel/components/finsh/cmd.o
__fsym___cmd_ls                                   build/kernel/components/finsh/msh_file.o
__fsym___cmd_ls_desc                              build/kernel/components/finsh/msh_file.o
__fsym___cmd_ls_name                              build/kernel/components/finsh/msh_file.o
__fsym___cmd_lsof                                 build/kernel/components/dfs/src/dfs.o
__fsym___cmd_lsof_desc                            build/kernel/components/dfs/src/dfs.o
__fsym___cmd_lsof_name                            build/kernel/components/dfs/src/dfs.o
__fsym___cmd_mkdir                                build/kernel/components/finsh/msh_file.o
__fsym___cmd_mkdir_desc                           build/kernel/components/finsh/msh_file.o
__fsym___cmd_mkdir_name                           build/kernel/components/finsh/msh_file.o
__fsym___cmd_mkfs                                 build/kernel/components/finsh/msh_file.o
__fsym___cmd_mkfs_desc                            build/kernel/components/finsh/msh_file.o
__fsym___cmd_mkfs_name                            build/kernel/components/finsh/msh_file.o
__fsym___cmd_mount                                build/kernel/components/dfs/src/dfs.o
__fsym___cmd_mount_desc                           build/kernel/components/dfs/src/dfs.o
__fsym___cmd_mount_name                           build/kernel/components/dfs/src/dfs.o
__fsym___cmd_mv                                   build/kernel/components/finsh/msh_file.o
__fsym___cmd_mv_desc                              build/kernel/components/finsh/msh_file.o
__fsym___cmd_mv_name                              build/kernel/components/finsh/msh_file.o
__fsym___cmd_ps                                   build/kernel/components/finsh/msh.o
__fsym___cmd_ps_desc                              build/kernel/components/finsh/msh.o
__fsym___cmd_ps_name                              build/kernel/components/finsh/msh.o
__fsym___cmd_pwd                                  build/kernel/components/finsh/msh_file.o
__fsym___cmd_pwd_desc                             build/kernel/components/finsh/msh_file.o
__fsym___cmd_pwd_name                             build/kernel/components/finsh/msh_file.o
__fsym___cmd_reboot                               build/libcpu/cpu.o
__fsym___cmd_reboot_desc                          build/libcpu/cpu.o
__fsym___cmd_reboot_name                          build/libcpu/cpu.o
__fsym___cmd_rm                                   build/kernel/components/finsh/msh_file.o
__fsym___cmd_rm_desc                              build/kernel/components/finsh/msh_file.o
__fsym___cmd_rm_name                              build/kernel/components/finsh/msh_file.o
__fsym___cmd_set                                  build/kernel/components/libc/compilers/musl/libc.o
__fsym___cmd_set_desc                             build/kernel/components/libc/compilers/musl/libc.o
__fsym___cmd_set_name                             build/kernel/components/libc/compilers/musl/libc.o
__fsym___cmd_sys_log                              build/kernel/components/lwp/lwp_syscall.o
__fsym___cmd_sys_log_desc                         build/kernel/components/lwp/lwp_syscall.o
__fsym___cmd_sys_log_name                         build/kernel/components/lwp/lwp_syscall.o
__fsym___cmd_top                                  build/kernel/components/finsh/cmd.o
__fsym___cmd_top_desc                             build/kernel/components/finsh/cmd.o
__fsym___cmd_top_name                             build/kernel/components/finsh/cmd.o
__fsym___cmd_unmount                              build/kernel/components/dfs/src/dfs.o
__fsym___cmd_unmount_desc                         build/kernel/components/dfs/src/dfs.o
__fsym___cmd_unmount_name                         build/kernel/components/dfs/src/dfs.o
__fsym___cmd_version                              build/kernel/components/finsh/cmd.o
__fsym___cmd_version_desc                         build/kernel/components/finsh/cmd.o
__fsym___cmd_version_name                         build/kernel/components/finsh/cmd.o
__fsym_cat                                        build/kernel/components/dfs/src/dfs_file.o
__fsym_cat_desc                                   build/kernel/components/dfs/src/dfs_file.o
__fsym_cat_name                                   build/kernel/components/dfs/src/dfs_file.o
__fsym_cd                                         build/kernel/components/dfs/src/dfs_posix.o
__fsym_cd_desc                                    build/kernel/components/dfs/src/dfs_posix.o
__fsym_cd_name                                    build/kernel/components/dfs/src/dfs_posix.o
__fsym_copy                                       build/kernel/components/dfs/src/dfs_file.o
__fsym_copy_desc                                  build/kernel/components/dfs/src/dfs_file.o
__fsym_copy_name                                  build/kernel/components/dfs/src/dfs_file.o
__fsym_df                                         build/kernel/components/dfs/src/dfs_fs.o
__fsym_df_desc                                    build/kernel/components/dfs/src/dfs_fs.o
__fsym_df_name                                    build/kernel/components/dfs/src/dfs_fs.o
__fsym_list_mem                                   build/kernel/src/slab.o
__fsym_list_mem_desc                              build/kernel/src/slab.o
__fsym_list_mem_name                              build/kernel/src/slab.o
__fsym_ls                                         build/kernel/components/dfs/src/dfs_file.o
__fsym_ls_desc                                    build/kernel/components/dfs/src/dfs_file.o
__fsym_ls_name                                    build/kernel/components/dfs/src/dfs_file.o
__fsym_mkdir                                      build/kernel/components/dfs/src/dfs_posix.o
__fsym_mkdir_desc                                 build/kernel/components/dfs/src/dfs_posix.o
__fsym_mkdir_name                                 build/kernel/components/dfs/src/dfs_posix.o
__fsym_mkfs                                       build/kernel/components/dfs/src/dfs_fs.o
__fsym_mkfs_desc                                  build/kernel/components/dfs/src/dfs_fs.o
__fsym_mkfs_name                                  build/kernel/components/dfs/src/dfs_fs.o
__fsym_rm                                         build/kernel/components/dfs/src/dfs_file.o
__fsym_rm_desc                                    build/kernel/components/dfs/src/dfs_file.o
__fsym_rm_name                                    build/kernel/components/dfs/src/dfs_file.o
__fsymtab_end                                     build/kernel/components/finsh/shell.o
__fsymtab_start                                   build/kernel/components/finsh/shell.o
__fwritex                                         /opt/arm-linux-musleabi/bin/../lib/gcc/arm-linux-musleabi/7.3.0/../../../../arm-linux-musleabi/lib/libc_kernel.a(fwrite.o)
                                                  /opt/arm-linux-musleabi/bin/../lib/gcc/arm-linux-musleabi/7.3.0/../../../../arm-linux-musleabi/lib/libc_kernel.a(vfprintf.o)
__gedf2                                           /opt/arm-linux-musleabi/bin/../lib/gcc/arm-linux-musleabi/7.3.0/libgcc.a(_arm_cmpdf2.o)
__gtdf2                                           /opt/arm-linux-musleabi/bin/../lib/gcc/arm-linux-musleabi/7.3.0/libgcc.a(_arm_cmpdf2.o)
__hwcap                                           /opt/arm-linux-musleabi/bin/../lib/gcc/arm-linux-musleabi/7.3.0/../../../../arm-linux-musleabi/lib/libc_kernel.a(libc.o)
__kuser_helper_end                                build/kernel/components/lwp/arch/arm/arm926/lwp_gcc.o
                                                  build/kernel/components/lwp/arch/arm/arm926/arch_user_space_init.o
__kuser_helper_start                              build/kernel/components/lwp/arch/arm/arm926/lwp_gcc.o
                                                  build/kernel/components/lwp/arch/arm/arm926/arch_user_space_init.o
__lctrans                                         /opt/arm-linux-musleabi/bin/../lib/gcc/arm-linux-musleabi/7.3.0/../../../../arm-linux-musleabi/lib/libc_kernel.a(__lctrans.o)
                                                  /opt/arm-linux-musleabi/bin/../lib/gcc/arm-linux-musleabi/7.3.0/../../../../arm-linux-musleabi/lib/libc_kernel.a(strerror.o)
__lctrans_cur                                     /opt/arm-linux-musleabi/bin/../lib/gcc/arm-linux-musleabi/7.3.0/../../../../arm-linux-musleabi/lib/libc_kernel.a(__lctrans.o)
__lctrans_impl                                    /opt/arm-linux-musleabi/bin/../lib/gcc/arm-linux-musleabi/7.3.0/../../../../arm-linux-musleabi/lib/libc_kernel.a(__lctrans.o)
__ledf2                                           /opt/arm-linux-musleabi/bin/../lib/gcc/arm-linux-musleabi/7.3.0/libgcc.a(_arm_cmpdf2.o)
__libc                                            /opt/arm-linux-musleabi/bin/../lib/gcc/arm-linux-musleabi/7.3.0/../../../../arm-linux-musleabi/lib/libc_kernel.a(libc.o)
                                                  /opt/arm-linux-musleabi/bin/../lib/gcc/arm-linux-musleabi/7.3.0/../../../../arm-linux-musleabi/lib/libc_kernel.a(__fdopen.o)
                                                  /opt/arm-linux-musleabi/bin/../lib/gcc/arm-linux-musleabi/7.3.0/../../../../arm-linux-musleabi/lib/libc_kernel.a(__lock.o)
__lock                                            /opt/arm-linux-musleabi/bin/../lib/gcc/arm-linux-musleabi/7.3.0/../../../../arm-linux-musleabi/lib/libc_kernel.a(__lock.o)
                                                  /opt/arm-linux-musleabi/bin/../lib/gcc/arm-linux-musleabi/7.3.0/../../../../arm-linux-musleabi/lib/libc_kernel.a(ofl.o)
__lockfile                                        /opt/arm-linux-musleabi/bin/../lib/gcc/arm-linux-musleabi/7.3.0/../../../../arm-linux-musleabi/lib/libc_kernel.a(__lockfile.o)
                                                  /opt/arm-linux-musleabi/bin/../lib/gcc/arm-linux-musleabi/7.3.0/../../../../arm-linux-musleabi/lib/libc_kernel.a(__stdio_exit.o)
                                                  /opt/arm-linux-musleabi/bin/../lib/gcc/arm-linux-musleabi/7.3.0/../../../../arm-linux-musleabi/lib/libc_kernel.a(fwrite.o)
                                                  /opt/arm-linux-musleabi/bin/../lib/gcc/arm-linux-musleabi/7.3.0/../../../../arm-linux-musleabi/lib/libc_kernel.a(vfprintf.o)
                                                  /opt/arm-linux-musleabi/bin/../lib/gcc/arm-linux-musleabi/7.3.0/../../../../arm-linux-musleabi/lib/libc_kernel.a(getchar.o)
                                                  /opt/arm-linux-musleabi/bin/../lib/gcc/arm-linux-musleabi/7.3.0/../../../../arm-linux-musleabi/lib/libc_kernel.a(fileno.o)
                                                  /opt/arm-linux-musleabi/bin/../lib/gcc/arm-linux-musleabi/7.3.0/../../../../arm-linux-musleabi/lib/libc_kernel.a(fflush.o)
                                                  /opt/arm-linux-musleabi/bin/../lib/gcc/arm-linux-musleabi/7.3.0/../../../../arm-linux-musleabi/lib/libc_kernel.a(fclose.o)
__lowest_bit_bitmap                               build/kernel/src/kservice.o
__ltdf2                                           /opt/arm-linux-musleabi/bin/../lib/gcc/arm-linux-musleabi/7.3.0/libgcc.a(_arm_cmpdf2.o)
__memrchr                                         /opt/arm-linux-musleabi/bin/../lib/gcc/arm-linux-musleabi/7.3.0/../../../../arm-linux-musleabi/lib/libc_kernel.a(memrchr.o)
                                                  /opt/arm-linux-musleabi/bin/../lib/gcc/arm-linux-musleabi/7.3.0/../../../../arm-linux-musleabi/lib/libc_kernel.a(strrchr.o)
__muldf3                                          /opt/arm-linux-musleabi/bin/../lib/gcc/arm-linux-musleabi/7.3.0/libgcc.a(_arm_muldivdf3.o)
__nedf2                                           /opt/arm-linux-musleabi/bin/../lib/gcc/arm-linux-musleabi/7.3.0/libgcc.a(_arm_cmpdf2.o)
__ofl_add                                         /opt/arm-linux-musleabi/bin/../lib/gcc/arm-linux-musleabi/7.3.0/../../../../arm-linux-musleabi/lib/libc_kernel.a(ofl_add.o)
                                                  /opt/arm-linux-musleabi/bin/../lib/gcc/arm-linux-musleabi/7.3.0/../../../../arm-linux-musleabi/lib/libc_kernel.a(__fdopen.o)
__ofl_lock                                        /opt/arm-linux-musleabi/bin/../lib/gcc/arm-linux-musleabi/7.3.0/../../../../arm-linux-musleabi/lib/libc_kernel.a(ofl.o)
                                                  /opt/arm-linux-musleabi/bin/../lib/gcc/arm-linux-musleabi/7.3.0/../../../../arm-linux-musleabi/lib/libc_kernel.a(__stdio_exit.o)
                                                  /opt/arm-linux-musleabi/bin/../lib/gcc/arm-linux-musleabi/7.3.0/../../../../arm-linux-musleabi/lib/libc_kernel.a(ofl_add.o)
                                                  /opt/arm-linux-musleabi/bin/../lib/gcc/arm-linux-musleabi/7.3.0/../../../../arm-linux-musleabi/lib/libc_kernel.a(fflush.o)
                                                  /opt/arm-linux-musleabi/bin/../lib/gcc/arm-linux-musleabi/7.3.0/../../../../arm-linux-musleabi/lib/libc_kernel.a(fclose.o)
__ofl_unlock                                      /opt/arm-linux-musleabi/bin/../lib/gcc/arm-linux-musleabi/7.3.0/../../../../arm-linux-musleabi/lib/libc_kernel.a(ofl.o)
                                                  /opt/arm-linux-musleabi/bin/../lib/gcc/arm-linux-musleabi/7.3.0/../../../../arm-linux-musleabi/lib/libc_kernel.a(ofl_add.o)
                                                  /opt/arm-linux-musleabi/bin/../lib/gcc/arm-linux-musleabi/7.3.0/../../../../arm-linux-musleabi/lib/libc_kernel.a(fflush.o)
                                                  /opt/arm-linux-musleabi/bin/../lib/gcc/arm-linux-musleabi/7.3.0/../../../../arm-linux-musleabi/lib/libc_kernel.a(fclose.o)
__progname                                        /opt/arm-linux-musleabi/bin/../lib/gcc/arm-linux-musleabi/7.3.0/../../../../arm-linux-musleabi/lib/libc_kernel.a(libc.o)
__progname_full                                   /opt/arm-linux-musleabi/bin/../lib/gcc/arm-linux-musleabi/7.3.0/../../../../arm-linux-musleabi/lib/libc_kernel.a(libc.o)
__putenv                                          /opt/arm-linux-musleabi/bin/../lib/gcc/arm-linux-musleabi/7.3.0/../../../../arm-linux-musleabi/lib/libc_kernel.a(putenv.o)
                                                  /opt/arm-linux-musleabi/bin/../lib/gcc/arm-linux-musleabi/7.3.0/../../../../arm-linux-musleabi/lib/libc_kernel.a(setenv.o)
__restore_sigs                                    /opt/arm-linux-musleabi/bin/../lib/gcc/arm-linux-musleabi/7.3.0/../../../../arm-linux-musleabi/lib/libc_kernel.a(block.o)
                                                  /opt/arm-linux-musleabi/bin/../lib/gcc/arm-linux-musleabi/7.3.0/../../../../arm-linux-musleabi/lib/libc_kernel.a(raise.o)
__rt_ffs                                          build/kernel/src/kservice.o
                                                  build/kernel/src/scheduler.o
__rt_init_aio_system_init                         build/kernel/components/libc/aio/posix_aio.o
__rt_init_clock_time_system_init                  build/kernel/components/libc/time/clock_time.o
__rt_init_critical_init                           build/kernel/components/lwp/lwp_syscall.o
__rt_init_dfs_init                                build/kernel/components/dfs/src/dfs.o
__rt_init_dfs_romfs_init                          build/kernel/components/dfs/filesystems/romfs/dfs_romfs.o
__rt_init_finsh_system_init                       build/kernel/components/finsh/shell.o
__rt_init_futex_system_init                       build/kernel/components/lwp/lwp_futex.o
__rt_init_libc_system_init                        build/kernel/components/libc/compilers/musl/libc.o
__rt_init_pmutex_system_init                      build/kernel/components/lwp/lwp_pmutex.o
__rt_init_rt_hw_wdt_init                          build/drivers/drv_wdg.o
__rt_init_rt_work_sys_workqueue_init              build/kernel/components/drivers/src/workqueue.o
__rt_init_rti_board_end                           build/kernel/src/components.o
__rt_init_rti_board_start                         build/kernel/src/components.o
__rt_init_rti_end                                 build/kernel/src/components.o
__rt_init_rti_start                               build/kernel/src/components.o
__stderr_used                                     /opt/arm-linux-musleabi/bin/../lib/gcc/arm-linux-musleabi/7.3.0/../../../../arm-linux-musleabi/lib/libc_kernel.a(fflush.o)
__stdin_FILE                                      /opt/arm-linux-musleabi/bin/../lib/gcc/arm-linux-musleabi/7.3.0/../../../../arm-linux-musleabi/lib/libc_kernel.a(stdin.o)
                                                  /opt/arm-linux-musleabi/bin/../lib/gcc/arm-linux-musleabi/7.3.0/../../../../arm-linux-musleabi/lib/libc_kernel.a(getchar.o)
__stdin_used                                      /opt/arm-linux-musleabi/bin/../lib/gcc/arm-linux-musleabi/7.3.0/../../../../arm-linux-musleabi/lib/libc_kernel.a(stdin.o)
__stdio_close                                     /opt/arm-linux-musleabi/bin/../lib/gcc/arm-linux-musleabi/7.3.0/../../../../arm-linux-musleabi/lib/libc_kernel.a(__stdio_close.o)
                                                  /opt/arm-linux-musleabi/bin/../lib/gcc/arm-linux-musleabi/7.3.0/../../../../arm-linux-musleabi/lib/libc_kernel.a(__fdopen.o)
                                                  /opt/arm-linux-musleabi/bin/../lib/gcc/arm-linux-musleabi/7.3.0/../../../../arm-linux-musleabi/lib/libc_kernel.a(stdout.o)
                                                  /opt/arm-linux-musleabi/bin/../lib/gcc/arm-linux-musleabi/7.3.0/../../../../arm-linux-musleabi/lib/libc_kernel.a(stdin.o)
__stdio_exit                                      /opt/arm-linux-musleabi/bin/../lib/gcc/arm-linux-musleabi/7.3.0/../../../../arm-linux-musleabi/lib/libc_kernel.a(__stdio_exit.o)
__stdio_exit_needed                               /opt/arm-linux-musleabi/bin/../lib/gcc/arm-linux-musleabi/7.3.0/../../../../arm-linux-musleabi/lib/libc_kernel.a(__stdio_exit.o)
                                                  /opt/arm-linux-musleabi/bin/../lib/gcc/arm-linux-musleabi/7.3.0/../../../../arm-linux-musleabi/lib/libc_kernel.a(__toread.o)
                                                  /opt/arm-linux-musleabi/bin/../lib/gcc/arm-linux-musleabi/7.3.0/../../../../arm-linux-musleabi/lib/libc_kernel.a(__towrite.o)
__stdio_read                                      /opt/arm-linux-musleabi/bin/../lib/gcc/arm-linux-musleabi/7.3.0/../../../../arm-linux-musleabi/lib/libc_kernel.a(__stdio_read.o)
                                                  /opt/arm-linux-musleabi/bin/../lib/gcc/arm-linux-musleabi/7.3.0/../../../../arm-linux-musleabi/lib/libc_kernel.a(__fdopen.o)
                                                  /opt/arm-linux-musleabi/bin/../lib/gcc/arm-linux-musleabi/7.3.0/../../../../arm-linux-musleabi/lib/libc_kernel.a(stdin.o)
__stdio_seek                                      /opt/arm-linux-musleabi/bin/../lib/gcc/arm-linux-musleabi/7.3.0/../../../../arm-linux-musleabi/lib/libc_kernel.a(__stdio_seek.o)
                                                  /opt/arm-linux-musleabi/bin/../lib/gcc/arm-linux-musleabi/7.3.0/../../../../arm-linux-musleabi/lib/libc_kernel.a(__fdopen.o)
                                                  /opt/arm-linux-musleabi/bin/../lib/gcc/arm-linux-musleabi/7.3.0/../../../../arm-linux-musleabi/lib/libc_kernel.a(stdout.o)
                                                  /opt/arm-linux-musleabi/bin/../lib/gcc/arm-linux-musleabi/7.3.0/../../../../arm-linux-musleabi/lib/libc_kernel.a(stdin.o)
__stdio_write                                     /opt/arm-linux-musleabi/bin/../lib/gcc/arm-linux-musleabi/7.3.0/../../../../arm-linux-musleabi/lib/libc_kernel.a(__stdio_write.o)
                                                  /opt/arm-linux-musleabi/bin/../lib/gcc/arm-linux-musleabi/7.3.0/../../../../arm-linux-musleabi/lib/libc_kernel.a(__stdout_write.o)
                                                  /opt/arm-linux-musleabi/bin/../lib/gcc/arm-linux-musleabi/7.3.0/../../../../arm-linux-musleabi/lib/libc_kernel.a(__fdopen.o)
__stdout_FILE                                     /opt/arm-linux-musleabi/bin/../lib/gcc/arm-linux-musleabi/7.3.0/../../../../arm-linux-musleabi/lib/libc_kernel.a(stdout.o)
                                                  /opt/arm-linux-musleabi/bin/../lib/gcc/arm-linux-musleabi/7.3.0/../../../../arm-linux-musleabi/lib/libc_kernel.a(printf.o)
__stdout_used                                     /opt/arm-linux-musleabi/bin/../lib/gcc/arm-linux-musleabi/7.3.0/../../../../arm-linux-musleabi/lib/libc_kernel.a(stdout.o)
                                                  /opt/arm-linux-musleabi/bin/../lib/gcc/arm-linux-musleabi/7.3.0/../../../../arm-linux-musleabi/lib/libc_kernel.a(fflush.o)
__stdout_write                                    /opt/arm-linux-musleabi/bin/../lib/gcc/arm-linux-musleabi/7.3.0/../../../../arm-linux-musleabi/lib/libc_kernel.a(__stdout_write.o)
                                                  /opt/arm-linux-musleabi/bin/../lib/gcc/arm-linux-musleabi/7.3.0/../../../../arm-linux-musleabi/lib/libc_kernel.a(stdout.o)
__stpcpy                                          /opt/arm-linux-musleabi/bin/../lib/gcc/arm-linux-musleabi/7.3.0/../../../../arm-linux-musleabi/lib/libc_kernel.a(stpcpy.o)
                                                  /opt/arm-linux-musleabi/bin/../lib/gcc/arm-linux-musleabi/7.3.0/../../../../arm-linux-musleabi/lib/libc_kernel.a(strcpy.o)
__stpncpy                                         /opt/arm-linux-musleabi/bin/../lib/gcc/arm-linux-musleabi/7.3.0/../../../../arm-linux-musleabi/lib/libc_kernel.a(stpncpy.o)
                                                  /opt/arm-linux-musleabi/bin/../lib/gcc/arm-linux-musleabi/7.3.0/../../../../arm-linux-musleabi/lib/libc_kernel.a(strncpy.o)
__strchrnul                                       /opt/arm-linux-musleabi/bin/../lib/gcc/arm-linux-musleabi/7.3.0/../../../../arm-linux-musleabi/lib/libc_kernel.a(strchrnul.o)
                                                  /opt/arm-linux-musleabi/bin/../lib/gcc/arm-linux-musleabi/7.3.0/../../../../arm-linux-musleabi/lib/libc_kernel.a(strchr.o)
                                                  /opt/arm-linux-musleabi/bin/../lib/gcc/arm-linux-musleabi/7.3.0/../../../../arm-linux-musleabi/lib/libc_kernel.a(unsetenv.o)
                                                  /opt/arm-linux-musleabi/bin/../lib/gcc/arm-linux-musleabi/7.3.0/../../../../arm-linux-musleabi/lib/libc_kernel.a(setenv.o)
                                                  /opt/arm-linux-musleabi/bin/../lib/gcc/arm-linux-musleabi/7.3.0/../../../../arm-linux-musleabi/lib/libc_kernel.a(putenv.o)
                                                  /opt/arm-linux-musleabi/bin/../lib/gcc/arm-linux-musleabi/7.3.0/../../../../arm-linux-musleabi/lib/libc_kernel.a(getenv.o)
__strerror_l                                      /opt/arm-linux-musleabi/bin/../lib/gcc/arm-linux-musleabi/7.3.0/../../../../arm-linux-musleabi/lib/libc_kernel.a(strerror.o)
__subdf3                                          /opt/arm-linux-musleabi/bin/../lib/gcc/arm-linux-musleabi/7.3.0/libgcc.a(_arm_addsubdf3.o)
__syscall                                         /opt/arm-linux-musleabi/bin/../lib/gcc/arm-linux-musleabi/7.3.0/../../../../arm-linux-musleabi/lib/libc_kernel.a(syscall.o)
__syscall_ret                                     /opt/arm-linux-musleabi/bin/../lib/gcc/arm-linux-musleabi/7.3.0/../../../../arm-linux-musleabi/lib/libc_kernel.a(syscall_ret.o)
                                                  /opt/arm-linux-musleabi/bin/../lib/gcc/arm-linux-musleabi/7.3.0/../../../../arm-linux-musleabi/lib/libc_kernel.a(raise.o)
                                                  /opt/arm-linux-musleabi/bin/../lib/gcc/arm-linux-musleabi/7.3.0/../../../../arm-linux-musleabi/lib/libc_kernel.a(__stdio_write.o)
                                                  /opt/arm-linux-musleabi/bin/../lib/gcc/arm-linux-musleabi/7.3.0/../../../../arm-linux-musleabi/lib/libc_kernel.a(__stdio_seek.o)
                                                  /opt/arm-linux-musleabi/bin/../lib/gcc/arm-linux-musleabi/7.3.0/../../../../arm-linux-musleabi/lib/libc_kernel.a(__stdio_read.o)
                                                  /opt/arm-linux-musleabi/bin/../lib/gcc/arm-linux-musleabi/7.3.0/../../../../arm-linux-musleabi/lib/libc_kernel.a(__stdio_close.o)
                                                  /opt/arm-linux-musleabi/bin/../lib/gcc/arm-linux-musleabi/7.3.0/../../../../arm-linux-musleabi/lib/libc_kernel.a(fopen.o)
__sysinfo                                         /opt/arm-linux-musleabi/bin/../lib/gcc/arm-linux-musleabi/7.3.0/../../../../arm-linux-musleabi/lib/libc_kernel.a(libc.o)
__toread                                          /opt/arm-linux-musleabi/bin/../lib/gcc/arm-linux-musleabi/7.3.0/../../../../arm-linux-musleabi/lib/libc_kernel.a(__toread.o)
                                                  /opt/arm-linux-musleabi/bin/../lib/gcc/arm-linux-musleabi/7.3.0/../../../../arm-linux-musleabi/lib/libc_kernel.a(__uflow.o)
__toread_needs_stdio_exit                         /opt/arm-linux-musleabi/bin/../lib/gcc/arm-linux-musleabi/7.3.0/../../../../arm-linux-musleabi/lib/libc_kernel.a(__toread.o)
__towrite                                         /opt/arm-linux-musleabi/bin/../lib/gcc/arm-linux-musleabi/7.3.0/../../../../arm-linux-musleabi/lib/libc_kernel.a(__towrite.o)
                                                  /opt/arm-linux-musleabi/bin/../lib/gcc/arm-linux-musleabi/7.3.0/../../../../arm-linux-musleabi/lib/libc_kernel.a(fwrite.o)
                                                  /opt/arm-linux-musleabi/bin/../lib/gcc/arm-linux-musleabi/7.3.0/../../../../arm-linux-musleabi/lib/libc_kernel.a(vfprintf.o)
__towrite_needs_stdio_exit                        /opt/arm-linux-musleabi/bin/../lib/gcc/arm-linux-musleabi/7.3.0/../../../../arm-linux-musleabi/lib/libc_kernel.a(__towrite.o)
__udivmoddi4                                      /opt/arm-linux-musleabi/bin/../lib/gcc/arm-linux-musleabi/7.3.0/libgcc.a(_udivmoddi4.o)
                                                  /opt/arm-linux-musleabi/bin/../lib/gcc/arm-linux-musleabi/7.3.0/libgcc.a(_aeabi_uldivmod.o)
                                                  /opt/arm-linux-musleabi/bin/../lib/gcc/arm-linux-musleabi/7.3.0/libgcc.a(_aeabi_ldivmod.o)
__udivsi3                                         /opt/arm-linux-musleabi/bin/../lib/gcc/arm-linux-musleabi/7.3.0/libgcc.a(_udivsi3.o)
__uflow                                           /opt/arm-linux-musleabi/bin/../lib/gcc/arm-linux-musleabi/7.3.0/../../../../arm-linux-musleabi/lib/libc_kernel.a(__uflow.o)
                                                  /opt/arm-linux-musleabi/bin/../lib/gcc/arm-linux-musleabi/7.3.0/../../../../arm-linux-musleabi/lib/libc_kernel.a(getchar.o)
__unlist_locked_file                              /opt/arm-linux-musleabi/bin/../lib/gcc/arm-linux-musleabi/7.3.0/../../../../arm-linux-musleabi/lib/libc_kernel.a(fclose.o)
__unlock                                          /opt/arm-linux-musleabi/bin/../lib/gcc/arm-linux-musleabi/7.3.0/../../../../arm-linux-musleabi/lib/libc_kernel.a(__lock.o)
                                                  /opt/arm-linux-musleabi/bin/../lib/gcc/arm-linux-musleabi/7.3.0/../../../../arm-linux-musleabi/lib/libc_kernel.a(ofl.o)
__unlockfile                                      /opt/arm-linux-musleabi/bin/../lib/gcc/arm-linux-musleabi/7.3.0/../../../../arm-linux-musleabi/lib/libc_kernel.a(__lockfile.o)
                                                  /opt/arm-linux-musleabi/bin/../lib/gcc/arm-linux-musleabi/7.3.0/../../../../arm-linux-musleabi/lib/libc_kernel.a(fwrite.o)
                                                  /opt/arm-linux-musleabi/bin/../lib/gcc/arm-linux-musleabi/7.3.0/../../../../arm-linux-musleabi/lib/libc_kernel.a(vfprintf.o)
                                                  /opt/arm-linux-musleabi/bin/../lib/gcc/arm-linux-musleabi/7.3.0/../../../../arm-linux-musleabi/lib/libc_kernel.a(fileno.o)
                                                  /opt/arm-linux-musleabi/bin/../lib/gcc/arm-linux-musleabi/7.3.0/../../../../arm-linux-musleabi/lib/libc_kernel.a(fflush.o)
                                                  /opt/arm-linux-musleabi/bin/../lib/gcc/arm-linux-musleabi/7.3.0/../../../../arm-linux-musleabi/lib/libc_kernel.a(fclose.o)
__wqueue_default_wake                             build/kernel/components/drivers/src/waitqueue.o
                                                  build/kernel/components/dfs/src/poll.o
_environ                                          /opt/arm-linux-musleabi/bin/../lib/gcc/arm-linux-musleabi/7.3.0/../../../../arm-linux-musleabi/lib/libc_kernel.a(__environ.o)
_lwp_shmdt                                        build/kernel/components/lwp/lwp_shm.o
_lwp_shminfo                                      build/kernel/components/lwp/lwp_shm.o
_rt_errno                                         build/kernel/src/kservice.o
                                                  build/kernel/components/libc/aio/posix_aio.o
                                                  build/kernel/components/libc/termios/posix_termios.o
                                                  build/kernel/components/libc/mmap/posix_mmap.o
_rt_hw_mmu_map                                    build/libcpu/mmu.o
_rt_hw_mmu_map_auto                               build/libcpu/mmu.o
_rt_hw_mmu_unmap                                  build/libcpu/mmu.o
_rt_hw_mmu_v2p                                    build/libcpu/mmu.o
                                                  build/drivers/drv_wdg.o
                                                  build/drivers/drv_uart.o
                                                  build/drivers/drv_gpio.o
                                                  build/drivers/drv_clock.o
                                                  build/drivers/board.o
                                                  build/libcpu/interrupt.o
_sys_clone                                        build/kernel/components/lwp/lwp_syscall.o
                                                  build/kernel/components/lwp/arch/arm/arm926/lwp_gcc.o
_sys_fork                                         build/kernel/components/lwp/lwp_syscall.o
                                                  build/kernel/components/lwp/arch/arm/arm926/lwp_gcc.o
_syscall_table_begin                              build/kernel/components/finsh/shell.o
                                                  build/kernel/components/finsh/msh.o
                                                  build/kernel/components/finsh/cmd.o
_syscall_table_end                                build/kernel/components/finsh/shell.o
                                                  build/kernel/components/finsh/msh.o
                                                  build/kernel/components/finsh/cmd.o
_uart_ops                                         build/drivers/drv_uart.o
abt_stack_start                                   build/libcpu/start_gcc.o
access                                            build/kernel/components/dfs/src/dfs_posix.o
                                                  build/kernel/components/lwp/lwp_syscall.o
ahb_get_clk                                       build/drivers/drv_clock.o
aio_cancel                                        build/kernel/components/libc/aio/posix_aio.o
aio_error                                         build/kernel/components/libc/aio/posix_aio.o
aio_fsync                                         build/kernel/components/libc/aio/posix_aio.o
aio_queue                                         build/kernel/components/libc/aio/posix_aio.o
aio_read                                          build/kernel/components/libc/aio/posix_aio.o
aio_return                                        build/kernel/components/libc/aio/posix_aio.o
aio_suspend                                       build/kernel/components/libc/aio/posix_aio.o
aio_system_init                                   build/kernel/components/libc/aio/posix_aio.o
aio_write                                         build/kernel/components/libc/aio/posix_aio.o
apb_get_clk                                       build/drivers/drv_clock.o
                                                  build/drivers/drv_uart.o
arch_expand_user_stack                            build/kernel/components/lwp/arch/arm/arm926/arch_user_stack.o
                                                  build/libcpu/trap.o
arch_kernel_mmu_table_get                         build/kernel/components/lwp/arch/arm/arm926/arch_user_space_init.o
                                                  build/kernel/components/lwp/lwp_user_mm.o
arch_kuser_init                                   build/kernel/components/lwp/arch/arm/arm926/arch_user_space_init.o
                                                  build/drivers/board.o
arch_user_space_init                              build/kernel/components/lwp/arch/arm/arm926/arch_user_space_init.o
                                                  build/kernel/components/lwp/lwp_user_mm.o
                                                  build/kernel/components/lwp/lwp_syscall.o
arch_user_space_vtable_free                       build/kernel/components/lwp/arch/arm/arm926/arch_user_space_init.o
                                                  build/kernel/components/lwp/lwp_user_mm.o
atoi                                              /opt/arm-linux-musleabi/bin/../lib/gcc/arm-linux-musleabi/7.3.0/../../../../arm-linux-musleabi/lib/libc_kernel.a(atoi.o)
                                                  build/kernel/components/dfs/src/dfs.o
                                                  build/kernel/components/lwp/lwp_syscall.o
                                                  build/kernel/components/lwp/lwp_pid.o
audio_get_pll_clk                                 build/drivers/drv_clock.o
audio_set_pll_clk                                 build/drivers/drv_clock.o
bus_gate_clk_disalbe                              build/drivers/drv_clock.o
bus_gate_clk_enalbe                               build/drivers/drv_clock.o
                                                  build/drivers/drv_uart.o
bus_software_reset_disalbe                        build/drivers/drv_clock.o
                                                  build/drivers/drv_uart.o
bus_software_reset_enalbe                         build/drivers/drv_clock.o
                                                  build/drivers/drv_uart.o
calloc                                            build/kernel/components/libc/compilers/musl/mem.o
cat                                               build/kernel/components/dfs/src/dfs_file.o
                                                  build/kernel/components/finsh/msh_file.o
ccu_init                                          build/drivers/drv_clock.o
                                                  build/drivers/board.o
cfgetispeed                                       build/kernel/components/libc/termios/posix_termios.o
cfgetospeed                                       build/kernel/components/libc/termios/posix_termios.o
                                                  build/kernel/components/drivers/serial/serial.o
cfmakeraw                                         build/kernel/components/libc/termios/posix_termios.o
cfsetispeed                                       build/kernel/components/libc/termios/posix_termios.o
cfsetospeed                                       build/kernel/components/libc/termios/posix_termios.o
                                                  build/kernel/components/drivers/serial/serial.o
cfsetspeed                                        build/kernel/components/libc/termios/posix_termios.o
chdir                                             build/kernel/components/dfs/src/dfs_posix.o
                                                  build/kernel/components/finsh/msh_file.o
                                                  build/kernel/components/lwp/lwp_syscall.o
check_user_fault                                  build/libcpu/trap.o
check_user_stack                                  build/libcpu/trap.o
check_vfp                                         build/kernel/components/lwp/arch/arm/arm926/lwp_gcc.o
clock                                             build/kernel/components/libc/compilers/musl/time.o
clock_getres                                      build/kernel/components/libc/time/clock_time.o
clock_gettime                                     build/kernel/components/libc/time/clock_time.o
clock_settime                                     build/kernel/components/libc/time/clock_time.o
clock_time_system_init                            build/kernel/components/libc/time/clock_time.o
clock_time_to_tick                                build/kernel/components/libc/time/clock_time.o
                                                  build/kernel/components/lwp/lwp_pmutex.o
                                                  build/kernel/components/lwp/lwp_futex.o
close                                             build/kernel/components/dfs/src/dfs_posix.o
                                                  /opt/arm-linux-musleabi/bin/../lib/gcc/arm-linux-musleabi/7.3.0/../../../../arm-linux-musleabi/lib/libc_kernel.a(rtt_syscall.o)
                                                  build/kernel/components/drivers/src/pipe.o
                                                  build/kernel/components/finsh/msh_file.o
                                                  build/kernel/components/finsh/msh.o
                                                  build/kernel/components/lwp/lwp_syscall.o
                                                  build/kernel/components/lwp/lwp.o
closedir                                          build/kernel/components/dfs/src/dfs_posix.o
                                                  build/kernel/components/finsh/msh_file.o
                                                  build/kernel/components/finsh/msh.o
cmd_cat                                           build/kernel/components/finsh/msh_file.o
cmd_cd                                            build/kernel/components/finsh/msh_file.o
cmd_cp                                            build/kernel/components/finsh/msh_file.o
cmd_df                                            build/kernel/components/finsh/msh_file.o
cmd_echo                                          build/kernel/components/finsh/msh_file.o
cmd_free                                          build/kernel/components/finsh/msh.o
cmd_ls                                            build/kernel/components/finsh/msh_file.o
cmd_mkdir                                         build/kernel/components/finsh/msh_file.o
cmd_mkfs                                          build/kernel/components/finsh/msh_file.o
cmd_mv                                            build/kernel/components/finsh/msh_file.o
cmd_ps                                            build/kernel/components/finsh/msh.o
cmd_pwd                                           build/kernel/components/finsh/msh_file.o
cmd_rm                                            build/kernel/components/finsh/msh_file.o
copy                                              build/kernel/components/dfs/src/dfs_file.o
                                                  build/kernel/components/finsh/msh_file.o
cpu_get_clk                                       build/drivers/drv_clock.o
cpu_get_pll_clk                                   build/drivers/drv_clock.o
cpu_set_clk                                       build/drivers/drv_clock.o
cpu_set_pll_clk                                   build/drivers/drv_clock.o
ddr_get_pll_clk                                   build/drivers/drv_clock.o
devfs_init                                        build/kernel/components/dfs/filesystems/devfs/devfs.o
                                                  build/kernel/components/dfs/src/dfs.o
df                                                build/kernel/components/dfs/src/dfs_fs.o
                                                  build/kernel/components/finsh/msh_file.o
dfs_device_fs_close                               build/kernel/components/dfs/filesystems/devfs/devfs.o
dfs_device_fs_getdents                            build/kernel/components/dfs/filesystems/devfs/devfs.o
dfs_device_fs_ioctl                               build/kernel/components/dfs/filesystems/devfs/devfs.o
dfs_device_fs_mount                               build/kernel/components/dfs/filesystems/devfs/devfs.o
dfs_device_fs_open                                build/kernel/components/dfs/filesystems/devfs/devfs.o
dfs_device_fs_read                                build/kernel/components/dfs/filesystems/devfs/devfs.o
dfs_device_fs_stat                                build/kernel/components/dfs/filesystems/devfs/devfs.o
dfs_device_fs_write                               build/kernel/components/dfs/filesystems/devfs/devfs.o
dfs_fd_lock                                       build/kernel/components/dfs/src/dfs.o
                                                  build/kernel/components/lwp/lwp_syscall.o
dfs_fd_unlock                                     build/kernel/components/dfs/src/dfs.o
                                                  build/kernel/components/lwp/lwp_syscall.o
dfs_fdtable_get                                   build/kernel/components/dfs/src/dfs.o
                                                  build/kernel/components/lwp/lwp_syscall.o
                                                  build/kernel/components/lwp/lwp_ipc.o
dfs_fdtable_get_global                            build/kernel/components/dfs/src/dfs.o
                                                  build/kernel/components/lwp/lwp_ipc.o
dfs_fdtable_get_pid                               build/kernel/components/dfs/src/dfs.o
dfs_file_close                                    build/kernel/components/dfs/src/dfs_file.o
                                                  build/kernel/components/dfs/src/dfs_posix.o
                                                  build/kernel/components/dfs/src/dfs_fs.o
                                                  build/kernel/components/dfs/src/dfs.o
                                                  build/kernel/components/lwp/lwp_pid.o
dfs_file_flush                                    build/kernel/components/dfs/src/dfs_file.o
                                                  build/kernel/components/dfs/src/dfs_posix.o
dfs_file_ftruncate                                build/kernel/components/dfs/src/dfs_file.o
                                                  build/kernel/components/dfs/src/dfs_posix.o
dfs_file_getdents                                 build/kernel/components/dfs/src/dfs_file.o
                                                  build/kernel/components/dfs/src/dfs_posix.o
                                                  build/kernel/components/lwp/lwp_syscall.o
dfs_file_ioctl                                    build/kernel/components/dfs/src/dfs_file.o
                                                  build/kernel/components/dfs/src/dfs_posix.o
dfs_file_is_open                                  build/kernel/components/dfs/src/dfs_file.o
dfs_file_lseek                                    build/kernel/components/dfs/src/dfs_file.o
                                                  build/kernel/components/dfs/src/dfs_posix.o
dfs_file_open                                     build/kernel/components/dfs/src/dfs_file.o
                                                  build/kernel/components/dfs/src/dfs_posix.o
                                                  build/kernel/components/dfs/src/dfs_fs.o
dfs_file_read                                     build/kernel/components/dfs/src/dfs_file.o
                                                  build/kernel/components/dfs/src/dfs_posix.o
dfs_file_rename                                   build/kernel/components/dfs/src/dfs_file.o
                                                  build/kernel/components/dfs/src/dfs_posix.o
dfs_file_stat                                     build/kernel/components/dfs/src/dfs_file.o
                                                  build/kernel/components/dfs/src/dfs_posix.o
dfs_file_unlink                                   build/kernel/components/dfs/src/dfs_file.o
                                                  build/kernel/components/dfs/src/dfs_posix.o
dfs_file_write                                    build/kernel/components/dfs/src/dfs_file.o
                                                  build/kernel/components/dfs/src/dfs_posix.o
dfs_filesystem_get_mounted_path                   build/kernel/components/dfs/src/dfs_fs.o
dfs_filesystem_get_partition                      build/kernel/components/dfs/src/dfs_fs.o
dfs_filesystem_lookup                             build/kernel/components/dfs/src/dfs_fs.o
                                                  build/kernel/components/dfs/src/dfs_file.o
dfs_fm_lock                                       build/kernel/components/dfs/src/dfs_file.o
                                                  build/kernel/components/lwp/lwp_syscall.o
dfs_fm_unlock                                     build/kernel/components/dfs/src/dfs_file.o
                                                  build/kernel/components/lwp/lwp_syscall.o
dfs_fnode_mgr_init                                build/kernel/components/dfs/src/dfs_file.o
                                                  build/kernel/components/dfs/src/dfs.o
dfs_init                                          build/kernel/components/dfs/src/dfs.o
dfs_lock                                          build/kernel/components/dfs/src/dfs.o
                                                  build/kernel/components/dfs/src/dfs_posix.o
                                                  build/kernel/components/dfs/src/dfs_fs.o
dfs_mkfs                                          build/kernel/components/dfs/src/dfs_fs.o
                                                  build/kernel/components/finsh/msh_file.o
dfs_mount                                         build/kernel/components/dfs/src/dfs_fs.o
                                                  build/kernel/components/dfs/src/dfs.o
dfs_normalize_path                                build/kernel/components/dfs/src/dfs.o
                                                  build/kernel/components/dfs/src/dfs_posix.o
                                                  build/kernel/components/dfs/src/dfs_fs.o
                                                  build/kernel/components/dfs/src/dfs_file.o
dfs_register                                      build/kernel/components/dfs/src/dfs_fs.o
                                                  build/kernel/components/dfs/filesystems/romfs/dfs_romfs.o
                                                  build/kernel/components/dfs/filesystems/devfs/devfs.o
dfs_romfs_close                                   build/kernel/components/dfs/filesystems/romfs/dfs_romfs.o
dfs_romfs_getdents                                build/kernel/components/dfs/filesystems/romfs/dfs_romfs.o
dfs_romfs_init                                    build/kernel/components/dfs/filesystems/romfs/dfs_romfs.o
dfs_romfs_ioctl                                   build/kernel/components/dfs/filesystems/romfs/dfs_romfs.o
dfs_romfs_lookup                                  build/kernel/components/dfs/filesystems/romfs/dfs_romfs.o
dfs_romfs_lseek                                   build/kernel/components/dfs/filesystems/romfs/dfs_romfs.o
dfs_romfs_mount                                   build/kernel/components/dfs/filesystems/romfs/dfs_romfs.o
dfs_romfs_open                                    build/kernel/components/dfs/filesystems/romfs/dfs_romfs.o
dfs_romfs_probe                                   build/kernel/components/dfs/filesystems/romfs/dfs_romfs.o
dfs_romfs_read                                    build/kernel/components/dfs/filesystems/romfs/dfs_romfs.o
dfs_romfs_stat                                    build/kernel/components/dfs/filesystems/romfs/dfs_romfs.o
dfs_romfs_unmount                                 build/kernel/components/dfs/filesystems/romfs/dfs_romfs.o
dfs_statfs                                        build/kernel/components/dfs/src/dfs_fs.o
                                                  build/kernel/components/dfs/src/dfs_posix.o
dfs_subdir                                        build/kernel/components/dfs/src/dfs.o
                                                  build/kernel/components/dfs/src/dfs_file.o
dfs_unlock                                        build/kernel/components/dfs/src/dfs.o
                                                  build/kernel/components/dfs/src/dfs_posix.o
                                                  build/kernel/components/dfs/src/dfs_fs.o
dfs_unmount                                       build/kernel/components/dfs/src/dfs_fs.o
                                                  build/kernel/components/dfs/src/dfs.o
dram_gate_clk_disable                             build/drivers/drv_clock.o
dram_gate_clk_enable                              build/drivers/drv_clock.o
enable_mmu                                        build/libcpu/start_gcc.o
entry                                             build/kernel/src/components.o
env_set                                           build/kernel/components/libc/compilers/musl/libc.o
environ                                           /opt/arm-linux-musleabi/bin/../lib/gcc/arm-linux-musleabi/7.3.0/../../../../arm-linux-musleabi/lib/libc_kernel.a(__environ.o)
exec                                              build/kernel/components/lwp/lwp.o
                                                  build/kernel/components/finsh/msh.o
fclose                                            /opt/arm-linux-musleabi/bin/../lib/gcc/arm-linux-musleabi/7.3.0/../../../../arm-linux-musleabi/lib/libc_kernel.a(fclose.o)
                                                  build/kernel/components/libc/compilers/musl/stdio.o
fcntl                                             build/kernel/components/dfs/src/dfs_posix.o
                                                  build/kernel/components/libc/aio/posix_aio.o
fd_associate                                      build/kernel/components/dfs/src/dfs.o
                                                  build/kernel/components/lwp/lwp.o
fd_get                                            build/kernel/components/dfs/src/dfs.o
                                                  build/kernel/components/dfs/src/poll.o
                                                  build/kernel/components/dfs/src/dfs_posix.o
                                                  build/kernel/components/lwp/lwp_syscall.o
                                                  build/kernel/components/lwp/lwp.o
fd_get_fd_index                                   build/kernel/components/dfs/src/dfs.o
fd_init                                           build/kernel/components/dfs/src/dfs.o
                                                  build/kernel/components/dfs/src/dfs_fs.o
                                                  build/kernel/components/dfs/src/dfs_file.o
fd_new                                            build/kernel/components/dfs/src/dfs.o
                                                  build/kernel/components/dfs/src/dfs_posix.o
fd_release                                        build/kernel/components/dfs/src/dfs.o
                                                  build/kernel/components/dfs/src/dfs_posix.o
fdopen                                            /opt/arm-linux-musleabi/bin/../lib/gcc/arm-linux-musleabi/7.3.0/../../../../arm-linux-musleabi/lib/libc_kernel.a(__fdopen.o)
fdt_fd_get                                        build/kernel/components/dfs/src/dfs.o
                                                  build/kernel/components/lwp/lwp_syscall.o
                                                  build/kernel/components/lwp/lwp_ipc.o
fdt_fd_new                                        build/kernel/components/dfs/src/dfs.o
                                                  build/kernel/components/lwp/lwp_ipc.o
fdt_fd_release                                    build/kernel/components/dfs/src/dfs.o
                                                  build/kernel/components/lwp/lwp_pid.o
                                                  build/kernel/components/lwp/lwp_ipc.o
fflush                                            /opt/arm-linux-musleabi/bin/../lib/gcc/arm-linux-musleabi/7.3.0/../../../../arm-linux-musleabi/lib/libc_kernel.a(fflush.o)
                                                  /opt/arm-linux-musleabi/bin/../lib/gcc/arm-linux-musleabi/7.3.0/../../../../arm-linux-musleabi/lib/libc_kernel.a(fclose.o)
fflush_unlocked                                   /opt/arm-linux-musleabi/bin/../lib/gcc/arm-linux-musleabi/7.3.0/../../../../arm-linux-musleabi/lib/libc_kernel.a(fflush.o)
fileno                                            /opt/arm-linux-musleabi/bin/../lib/gcc/arm-linux-musleabi/7.3.0/../../../../arm-linux-musleabi/lib/libc_kernel.a(fileno.o)
                                                  build/kernel/components/libc/compilers/musl/stdio.o
fileno_unlocked                                   /opt/arm-linux-musleabi/bin/../lib/gcc/arm-linux-musleabi/7.3.0/../../../../arm-linux-musleabi/lib/libc_kernel.a(fileno.o)
filesystem_operation_table                        build/kernel/components/dfs/src/dfs.o
                                                  build/kernel/components/dfs/src/dfs_fs.o
filesystem_table                                  build/kernel/components/dfs/src/dfs.o
                                                  build/kernel/components/dfs/src/dfs_fs.o
finsh_get_echo                                    build/kernel/components/finsh/shell.o
finsh_get_prompt                                  build/kernel/components/finsh/shell.o
finsh_get_prompt_mode                             build/kernel/components/finsh/shell.o
finsh_set_echo                                    build/kernel/components/finsh/shell.o
finsh_set_prompt                                  build/kernel/components/finsh/shell.o
finsh_set_prompt_mode                             build/kernel/components/finsh/shell.o
finsh_system_function_init                        build/kernel/components/finsh/shell.o
finsh_system_init                                 build/kernel/components/finsh/shell.o
finsh_thread_entry                                build/kernel/components/finsh/shell.o
fiq_stack_start                                   build/libcpu/start_gcc.o
fopen                                             /opt/arm-linux-musleabi/bin/../lib/gcc/arm-linux-musleabi/7.3.0/../../../../arm-linux-musleabi/lib/libc_kernel.a(fopen.o)
                                                  build/kernel/components/libc/compilers/musl/stdio.o
fopen64                                           /opt/arm-linux-musleabi/bin/../lib/gcc/arm-linux-musleabi/7.3.0/../../../../arm-linux-musleabi/lib/libc_kernel.a(fopen.o)
free                                              build/kernel/components/libc/compilers/musl/mem.o
                                                  /opt/arm-linux-musleabi/bin/../lib/gcc/arm-linux-musleabi/7.3.0/../../../../arm-linux-musleabi/lib/libc_kernel.a(fclose.o)
                                                  /opt/arm-linux-musleabi/bin/../lib/gcc/arm-linux-musleabi/7.3.0/../../../../arm-linux-musleabi/lib/libc_kernel.a(setenv.o)
                                                  /opt/arm-linux-musleabi/bin/../lib/gcc/arm-linux-musleabi/7.3.0/../../../../arm-linux-musleabi/lib/libc_kernel.a(putenv.o)
                                                  build/kernel/components/libc/mmap/posix_mmap.o
frexp                                             /opt/arm-linux-musleabi/bin/../lib/gcc/arm-linux-musleabi/7.3.0/../../../../arm-linux-musleabi/lib/libc_kernel.a(frexp.o)
                                                  /opt/arm-linux-musleabi/bin/../lib/gcc/arm-linux-musleabi/7.3.0/../../../../arm-linux-musleabi/lib/libc_kernel.a(frexpl.o)
frexpl                                            /opt/arm-linux-musleabi/bin/../lib/gcc/arm-linux-musleabi/7.3.0/../../../../arm-linux-musleabi/lib/libc_kernel.a(frexpl.o)
                                                  /opt/arm-linux-musleabi/bin/../lib/gcc/arm-linux-musleabi/7.3.0/../../../../arm-linux-musleabi/lib/libc_kernel.a(vfprintf.o)
fstat                                             build/kernel/components/dfs/src/dfs_posix.o
                                                  build/kernel/components/lwp/lwp_syscall.o
fsync                                             build/kernel/components/dfs/src/dfs_posix.o
                                                  build/kernel/components/libc/aio/posix_aio.o
ftruncate                                         build/kernel/components/dfs/src/dfs_posix.o
futex_create                                      build/kernel/components/lwp/lwp_futex.o
futex_destory                                     build/kernel/components/lwp/lwp_futex.o
futex_wait                                        build/kernel/components/lwp/lwp_futex.o
futex_wake                                        build/kernel/components/lwp/lwp_futex.o
fwrite                                            /opt/arm-linux-musleabi/bin/../lib/gcc/arm-linux-musleabi/7.3.0/../../../../arm-linux-musleabi/lib/libc_kernel.a(fwrite.o)
fwrite_unlocked                                   /opt/arm-linux-musleabi/bin/../lib/gcc/arm-linux-musleabi/7.3.0/../../../../arm-linux-musleabi/lib/libc_kernel.a(fwrite.o)
get_rtt_syscall                                   /opt/arm-linux-musleabi/bin/../lib/gcc/arm-linux-musleabi/7.3.0/../../../../arm-linux-musleabi/lib/libc_kernel.a(rtt_syscall.o)
                                                  /opt/arm-linux-musleabi/bin/../lib/gcc/arm-linux-musleabi/7.3.0/../../../../arm-linux-musleabi/lib/libc_kernel.a(block.o)
                                                  /opt/arm-linux-musleabi/bin/../lib/gcc/arm-linux-musleabi/7.3.0/../../../../arm-linux-musleabi/lib/libc_kernel.a(raise.o)
                                                  /opt/arm-linux-musleabi/bin/../lib/gcc/arm-linux-musleabi/7.3.0/../../../../arm-linux-musleabi/lib/libc_kernel.a(__stdout_write.o)
                                                  /opt/arm-linux-musleabi/bin/../lib/gcc/arm-linux-musleabi/7.3.0/../../../../arm-linux-musleabi/lib/libc_kernel.a(__stdio_write.o)
                                                  /opt/arm-linux-musleabi/bin/../lib/gcc/arm-linux-musleabi/7.3.0/../../../../arm-linux-musleabi/lib/libc_kernel.a(__stdio_seek.o)
                                                  /opt/arm-linux-musleabi/bin/../lib/gcc/arm-linux-musleabi/7.3.0/../../../../arm-linux-musleabi/lib/libc_kernel.a(__stdio_read.o)
                                                  /opt/arm-linux-musleabi/bin/../lib/gcc/arm-linux-musleabi/7.3.0/../../../../arm-linux-musleabi/lib/libc_kernel.a(__stdio_close.o)
                                                  /opt/arm-linux-musleabi/bin/../lib/gcc/arm-linux-musleabi/7.3.0/../../../../arm-linux-musleabi/lib/libc_kernel.a(__lockfile.o)
                                                  /opt/arm-linux-musleabi/bin/../lib/gcc/arm-linux-musleabi/7.3.0/../../../../arm-linux-musleabi/lib/libc_kernel.a(__fdopen.o)
                                                  /opt/arm-linux-musleabi/bin/../lib/gcc/arm-linux-musleabi/7.3.0/../../../../arm-linux-musleabi/lib/libc_kernel.a(__lock.o)
                                                  /opt/arm-linux-musleabi/bin/../lib/gcc/arm-linux-musleabi/7.3.0/../../../../arm-linux-musleabi/lib/libc_kernel.a(getchar.o)
                                                  /opt/arm-linux-musleabi/bin/../lib/gcc/arm-linux-musleabi/7.3.0/../../../../arm-linux-musleabi/lib/libc_kernel.a(fopen.o)
get_vfp                                           build/kernel/components/lwp/arch/arm/arm926/lwp_gcc.o
getchar                                           /opt/arm-linux-musleabi/bin/../lib/gcc/arm-linux-musleabi/7.3.0/../../../../arm-linux-musleabi/lib/libc_kernel.a(getchar.o)
                                                  build/kernel/components/finsh/cmd.o
                                                  build/kernel/components/finsh/shell.o
getcwd                                            build/kernel/components/dfs/src/dfs_posix.o
                                                  build/kernel/components/finsh/msh.o
                                                  build/kernel/components/finsh/shell.o
                                                  build/kernel/components/lwp/lwp_syscall.o
getenv                                            /opt/arm-linux-musleabi/bin/../lib/gcc/arm-linux-musleabi/7.3.0/../../../../arm-linux-musleabi/lib/libc_kernel.a(getenv.o)
                                                  /opt/arm-linux-musleabi/bin/../lib/gcc/arm-linux-musleabi/7.3.0/../../../../arm-linux-musleabi/lib/libc_kernel.a(setenv.o)
                                                  build/kernel/components/libc/compilers/musl/libc.o
gettimeofday                                      build/kernel/components/libc/compilers/musl/time.o
gpio_clear_irq_callback                           build/drivers/drv_gpio.o
gpio_direction_input                              build/drivers/drv_gpio.o
gpio_direction_output                             build/drivers/drv_gpio.o
gpio_get_value                                    build/drivers/drv_gpio.o
gpio_irq_disable                                  build/drivers/drv_gpio.o
gpio_irq_enable                                   build/drivers/drv_gpio.o
gpio_select_irq_clock                             build/drivers/drv_gpio.o
gpio_set_debounce                                 build/drivers/drv_gpio.o
gpio_set_drive_level                              build/drivers/drv_gpio.o
gpio_set_func                                     build/drivers/drv_gpio.o
                                                  build/drivers/drv_uart.o
gpio_set_irq_callback                             build/drivers/drv_gpio.o
gpio_set_irq_type                                 build/drivers/drv_gpio.o
gpio_set_pull_mode                                build/drivers/drv_gpio.o
gpio_set_value                                    build/drivers/drv_gpio.o
hello                                             build/kernel/components/finsh/cmd.o
hw_watchdog_init                                  build/drivers/drv_wdg.o
                                                  build/libcpu/cpu.o
hw_watchdog_start                                 build/drivers/drv_wdg.o
                                                  build/libcpu/cpu.o
hw_watchdog_stop                                  build/drivers/drv_wdg.o
image_size                                        build/libcpu/start_gcc.o
init_mm_setup                                     build/libcpu/mmu.o
                                                  build/libcpu/start_gcc.o
init_page_region                                  build/drivers/board.o
ioctl                                             build/kernel/components/dfs/src/dfs_posix.o
                                                  build/kernel/components/libc/termios/posix_termios.o
                                                  build/kernel/components/lwp/lwp_syscall.o
irq_stack_start                                   build/libcpu/start_gcc.o
libc_stdio_get_console                            build/kernel/components/libc/compilers/musl/stdio.o
libc_stdio_set_console                            build/kernel/components/libc/compilers/musl/stdio.o
                                                  build/kernel/components/libc/compilers/musl/libc.o
libc_system_init                                  build/kernel/components/libc/compilers/musl/libc.o
lio_listio                                        build/kernel/components/libc/aio/posix_aio.o
list                                              build/kernel/components/finsh/cmd.o
list_device                                       build/kernel/components/finsh/cmd.o
list_event                                        build/kernel/components/finsh/cmd.o
list_fd                                           build/kernel/components/dfs/src/dfs.o
list_mailbox                                      build/kernel/components/finsh/cmd.o
list_mem                                          build/kernel/src/slab.o
                                                  build/kernel/components/finsh/msh.o
                                                  build/kernel/components/finsh/cmd.o
list_memheap                                      build/kernel/components/finsh/cmd.o
list_mempool                                      build/kernel/components/finsh/cmd.o
list_msgqueue                                     build/kernel/components/finsh/cmd.o
list_mutex                                        build/kernel/components/finsh/cmd.o
list_page                                         build/libcpu/page.o
list_process                                      build/kernel/components/lwp/lwp_pid.o
list_sem                                          build/kernel/components/finsh/cmd.o
list_shm                                          build/kernel/components/lwp/lwp_shm.o
list_thread                                       build/kernel/components/finsh/cmd.o
                                                  build/kernel/components/finsh/msh.o
                                                  build/kernel/src/scheduler.o
                                                  build/libcpu/trap.o
list_timer                                        build/kernel/components/finsh/cmd.o
load_ldso                                         build/kernel/components/lwp/lwp_syscall.o
                                                  build/kernel/components/lwp/lwp.o
ls                                                build/kernel/components/dfs/src/dfs_file.o
                                                  build/kernel/components/finsh/msh_file.o
lseek                                             build/kernel/components/dfs/src/dfs_posix.o
                                                  /opt/arm-linux-musleabi/bin/../lib/gcc/arm-linux-musleabi/7.3.0/../../../../arm-linux-musleabi/lib/libc_kernel.a(rtt_syscall.o)
                                                  build/kernel/components/libc/aio/posix_aio.o
                                                  build/kernel/components/libc/mmap/posix_mmap.o
                                                  build/kernel/components/lwp/lwp_syscall.o
                                                  build/kernel/components/lwp/lwp.o
lsof                                              build/kernel/components/dfs/src/dfs.o
lwp_argscopy                                      build/kernel/components/lwp/lwp.o
                                                  build/kernel/components/lwp/lwp_syscall.o
lwp_avl_find                                      build/kernel/components/lwp/lwp_avl.o
                                                  build/kernel/components/lwp/lwp_tid.o
                                                  build/kernel/components/lwp/lwp_shm.o
                                                  build/kernel/components/lwp/lwp_pmutex.o
                                                  build/kernel/components/lwp/lwp_pid.o
                                                  build/kernel/components/lwp/lwp_mm_area.o
                                                  build/kernel/components/lwp/lwp_futex.o
lwp_avl_insert                                    build/kernel/components/lwp/lwp_avl.o
                                                  build/kernel/components/lwp/lwp_tid.o
                                                  build/kernel/components/lwp/lwp_shm.o
                                                  build/kernel/components/lwp/lwp_pmutex.o
                                                  build/kernel/components/lwp/lwp_pid.o
                                                  build/kernel/components/lwp/lwp_mm_area.o
                                                  build/kernel/components/lwp/lwp_futex.o
lwp_avl_remove                                    build/kernel/components/lwp/lwp_avl.o
                                                  build/kernel/components/lwp/lwp_tid.o
                                                  build/kernel/components/lwp/lwp_shm.o
                                                  build/kernel/components/lwp/lwp_pmutex.o
                                                  build/kernel/components/lwp/lwp_pid.o
                                                  build/kernel/components/lwp/lwp_mm_area.o
                                                  build/kernel/components/lwp/lwp_futex.o
lwp_avl_traversal                                 build/kernel/components/lwp/lwp_avl.o
                                                  build/kernel/components/lwp/lwp_syscall.o
                                                  build/kernel/components/lwp/lwp_shm.o
                                                  build/kernel/components/lwp/lwp_pid.o
                                                  build/kernel/components/lwp/lwp_mm_area.o
lwp_brk                                           build/kernel/components/lwp/lwp_user_mm.o
                                                  build/kernel/components/lwp/lwp_syscall.o
lwp_channel_close                                 build/kernel/components/lwp/lwp_ipc.o
                                                  build/kernel/components/lwp/lwp_syscall.o
lwp_channel_open                                  build/kernel/components/lwp/lwp_ipc.o
                                                  build/kernel/components/lwp/lwp_syscall.o
lwp_channel_recv_timeout                          build/kernel/components/lwp/lwp_ipc.o
                                                  build/kernel/components/lwp/lwp_syscall.o
lwp_channel_reply                                 build/kernel/components/lwp/lwp_ipc.o
                                                  build/kernel/components/lwp/lwp_syscall.o
lwp_channel_send                                  build/kernel/components/lwp/lwp_ipc.o
                                                  build/kernel/components/lwp/lwp_syscall.o
lwp_channel_send_recv_timeout                     build/kernel/components/lwp/lwp_ipc.o
                                                  build/kernel/components/lwp/lwp_syscall.o
lwp_check_exit                                    build/kernel/components/lwp/arch/arm/arm926/lwp_gcc.o
                                                  build/libcpu/start_gcc.o
                                                  build/libcpu/context_gcc.o
lwp_check_exit_request                            build/kernel/components/lwp/lwp_pid.o
                                                  build/kernel/components/lwp/arch/arm/arm926/lwp_gcc.o
lwp_cleanup                                       build/kernel/components/lwp/lwp.o
                                                  build/kernel/components/lwp/lwp_syscall.o
lwp_data_cache_flush                              build/kernel/components/lwp/lwp_user_mm.o
lwp_data_get                                      build/kernel/components/lwp/lwp_user_mm.o
lwp_data_put                                      build/kernel/components/lwp/lwp_user_mm.o
lwp_dup_user                                      build/kernel/components/lwp/lwp_user_mm.o
                                                  build/kernel/components/lwp/lwp_syscall.o
lwp_elf_reloc                                     build/kernel/components/lwp/arch/arm/common/reloc.o
                                                  build/kernel/components/lwp/lwp.o
lwp_exec_user                                     build/kernel/components/lwp/arch/arm/arm926/lwp_gcc.o
                                                  build/kernel/components/lwp/lwp_syscall.o
lwp_execve                                        build/kernel/components/lwp/lwp.o
                                                  build/kernel/components/lwp/lwp_syscall.o
lwp_free                                          build/kernel/components/lwp/lwp_pid.o
lwp_from_pid                                      build/kernel/components/lwp/lwp_pid.o
                                                  build/kernel/components/dfs/src/dfs.o
                                                  build/kernel/components/lwp/lwp_signal.o
lwp_get_from_user                                 build/kernel/components/lwp/lwp_user_mm.o
                                                  build/kernel/components/lwp/lwp_syscall.o
lwp_get_kernel_sp                                 build/kernel/components/lwp/lwp.o
lwp_get_pid_ary                                   build/kernel/components/lwp/lwp_pid.o
                                                  build/kernel/components/dfs/src/dfs.o
lwp_get_sys_api                                   build/kernel/components/lwp/lwp_syscall.o
                                                  build/kernel/components/lwp/arch/arm/arm926/lwp_gcc.o
lwp_get_user_sp                                   build/kernel/components/lwp/arch/arm/arm926/lwp_gcc.o
                                                  build/kernel/components/lwp/lwp_syscall.o
lwp_getpid                                        build/kernel/components/lwp/lwp_pid.o
                                                  build/kernel/components/lwp/lwp_syscall.o
lwp_kill                                          build/kernel/components/lwp/lwp_signal.o
                                                  build/kernel/components/lwp/lwp_syscall.o
                                                  build/kernel/components/lwp/lwp_pid.o
                                                  build/kernel/components/lwp/lwp_console.o
lwp_load                                          build/kernel/components/lwp/lwp.o
                                                  build/kernel/components/lwp/lwp_syscall.o
lwp_map_area_insert                               build/kernel/components/lwp/lwp_mm_area.o
                                                  build/kernel/components/lwp/lwp_user_mm.o
                                                  build/kernel/components/lwp/ioremap.o
lwp_map_area_remove                               build/kernel/components/lwp/lwp_mm_area.o
                                                  build/kernel/components/lwp/lwp_user_mm.o
                                                  build/kernel/components/lwp/ioremap.o
lwp_map_find                                      build/kernel/components/lwp/lwp_mm_area.o
                                                  build/kernel/components/lwp/lwp_user_mm.o
                                                  build/kernel/components/lwp/ioremap.o
lwp_map_find_first                                build/kernel/components/lwp/lwp_mm_area.o
                                                  build/kernel/components/lwp/lwp_user_mm.o
                                                  build/kernel/components/lwp/lwp_pid.o
lwp_map_user                                      build/kernel/components/lwp/lwp_user_mm.o
                                                  build/kernel/components/lwp/arch/arm/arm926/arch_user_stack.o
                                                  build/kernel/components/lwp/lwp_syscall.o
                                                  build/kernel/components/lwp/lwp.o
lwp_map_user_phy                                  build/kernel/components/lwp/lwp_user_mm.o
lwp_map_user_type                                 build/kernel/components/lwp/lwp_user_mm.o
                                                  build/kernel/components/lwp/lwp_shm.o
lwp_mmap2                                         build/kernel/components/lwp/lwp_user_mm.o
                                                  build/kernel/components/lwp/lwp_syscall.o
lwp_mmu_switch                                    build/kernel/components/lwp/lwp_user_mm.o
                                                  build/kernel/components/lwp/lwp_syscall.o
                                                  build/libcpu/start_gcc.o
                                                  build/libcpu/context_gcc.o
lwp_munmap                                        build/kernel/components/lwp/lwp_user_mm.o
                                                  build/kernel/components/lwp/lwp_syscall.o
lwp_name2pid                                      build/kernel/components/lwp/lwp_pid.o
lwp_new                                           build/kernel/components/lwp/lwp_pid.o
                                                  build/kernel/components/lwp/lwp_syscall.o
                                                  build/kernel/components/lwp/lwp.o
lwp_pid2name                                      build/kernel/components/lwp/lwp_pid.o
lwp_put_to_user                                   build/kernel/components/lwp/lwp_user_mm.o
                                                  build/kernel/components/lwp/lwp_syscall.o
                                                  build/kernel/src/kservice.o
lwp_ref_dec                                       build/kernel/components/lwp/lwp_pid.o
                                                  build/kernel/components/finsh/cmd.o
                                                  build/kernel/components/lwp/lwp_syscall.o
                                                  build/kernel/components/lwp/lwp.o
lwp_ref_inc                                       build/kernel/components/lwp/lwp_pid.o
                                                  build/kernel/components/finsh/cmd.o
                                                  build/kernel/components/lwp/lwp_syscall.o
lwp_request_thread_exit                           build/kernel/components/lwp/lwp_pid.o
lwp_self                                          build/kernel/components/lwp/lwp.o
                                                  build/kernel/components/lwp/arch/arm/arm926/arch_user_stack.o
                                                  build/kernel/components/lwp/lwp_user_mm.o
                                                  build/kernel/components/lwp/lwp_syscall.o
                                                  build/kernel/components/lwp/lwp_shm.o
                                                  build/kernel/components/lwp/lwp_pmutex.o
                                                  build/kernel/components/lwp/lwp_pid.o
                                                  build/kernel/components/lwp/lwp_futex.o
                                                  build/kernel/components/lwp/lwp_console.o
lwp_set_kernel_sp                                 build/kernel/components/lwp/lwp.o
lwp_set_thread_area                               build/kernel/components/lwp/arch/arm/arm926/lwp_gcc.o
                                                  build/kernel/components/lwp/lwp_syscall.o
lwp_set_thread_context                            build/kernel/components/lwp/arch/arm/arm926/lwp_gcc.o
                                                  build/kernel/components/lwp/lwp_syscall.o
lwp_shm_ref_dec                                   build/kernel/components/lwp/lwp_shm.o
                                                  build/kernel/components/lwp/lwp_user_mm.o
lwp_shm_ref_inc                                   build/kernel/components/lwp/lwp_shm.o
                                                  build/kernel/components/lwp/lwp_user_mm.o
lwp_shmat                                         build/kernel/components/lwp/lwp_shm.o
                                                  build/kernel/components/lwp/lwp_syscall.o
lwp_shmdt                                         build/kernel/components/lwp/lwp_shm.o
                                                  build/kernel/components/lwp/lwp_syscall.o
lwp_shmget                                        build/kernel/components/lwp/lwp_shm.o
                                                  build/kernel/components/lwp/lwp_syscall.o
lwp_shminfo                                       build/kernel/components/lwp/lwp_shm.o
lwp_shmrm                                         build/kernel/components/lwp/lwp_shm.o
                                                  build/kernel/components/lwp/lwp_syscall.o
lwp_sigaction                                     build/kernel/components/lwp/lwp_signal.o
                                                  build/kernel/components/lwp/lwp_syscall.o
lwp_sighandler_get                                build/kernel/components/lwp/lwp_signal.o
                                                  build/kernel/components/lwp/arch/arm/arm926/lwp_gcc.o
lwp_sighandler_set                                build/kernel/components/lwp/lwp_signal.o
lwp_signal_backup                                 build/kernel/components/lwp/lwp_signal.o
                                                  build/kernel/components/lwp/arch/arm/arm926/lwp_gcc.o
lwp_signal_check                                  build/kernel/components/lwp/lwp_signal.o
                                                  build/kernel/components/lwp/arch/arm/arm926/lwp_gcc.o
lwp_signal_restore                                build/kernel/components/lwp/lwp_signal.o
                                                  build/kernel/components/lwp/arch/arm/arm926/lwp_gcc.o
lwp_sigprocmask                                   build/kernel/components/lwp/lwp_signal.o
                                                  build/kernel/components/lwp/lwp_syscall.o
lwp_suspend_sigcheck                              build/kernel/components/lwp/lwp_signal.o
                                                  build/kernel/src/thread.o
lwp_terminate                                     build/kernel/components/lwp/lwp_pid.o
                                                  build/kernel/components/lwp/lwp_syscall.o
                                                  build/kernel/components/lwp/lwp_signal.o
lwp_thread_kill                                   build/kernel/components/lwp/lwp_signal.o
                                                  build/kernel/components/lwp/lwp_syscall.o
lwp_thread_sigprocmask                            build/kernel/components/lwp/lwp_signal.o
                                                  build/kernel/components/lwp/lwp_syscall.o
lwp_tid_get                                       build/kernel/components/lwp/lwp_tid.o
                                                  build/kernel/components/lwp/lwp_syscall.o
                                                  build/kernel/components/lwp/lwp.o
lwp_tid_get_thread                                build/kernel/components/lwp/lwp_tid.o
                                                  build/kernel/components/lwp/lwp_syscall.o
lwp_tid_put                                       build/kernel/components/lwp/lwp_tid.o
                                                  build/kernel/components/lwp/lwp_syscall.o
                                                  build/kernel/components/lwp/lwp.o
lwp_tid_set_thread                                build/kernel/components/lwp/lwp_tid.o
                                                  build/kernel/components/lwp/lwp_syscall.o
                                                  build/kernel/components/lwp/lwp.o
lwp_to_pid                                        build/kernel/components/lwp/lwp_pid.o
                                                  build/kernel/components/dfs/src/dfs.o
                                                  build/kernel/components/finsh/cmd.o
                                                  build/kernel/components/lwp/lwp_syscall.o
                                                  build/kernel/components/lwp/lwp_console.o
                                                  build/kernel/components/lwp/lwp.o
lwp_unmap_user                                    build/kernel/components/lwp/lwp_user_mm.o
                                                  build/kernel/components/lwp/lwp_syscall.o
                                                  build/kernel/components/lwp/lwp.o
lwp_unmap_user_phy                                build/kernel/components/lwp/lwp_user_mm.o
                                                  build/kernel/components/lwp/lwp_shm.o
lwp_unmap_user_space                              build/kernel/components/lwp/lwp_user_mm.o
                                                  build/kernel/components/lwp/lwp_pid.o
lwp_unmap_user_type                               build/kernel/components/lwp/lwp_user_mm.o
lwp_user_accessable                               build/kernel/components/lwp/lwp_user_mm.o
                                                  build/kernel/components/lwp/arch/arm/arm926/arch_user_stack.o
                                                  build/kernel/components/lwp/lwp_syscall.o
                                                  build/kernel/components/lwp/lwp_pmutex.o
                                                  build/kernel/components/lwp/lwp_futex.o
                                                  build/kernel/src/kservice.o
                                                  build/libcpu/backtrace.o
lwp_user_entry                                    build/kernel/components/lwp/arch/arm/arm926/lwp_gcc.o
                                                  build/kernel/components/lwp/lwp_syscall.o
                                                  build/kernel/components/lwp/lwp.o
lwp_user_object_add                               build/kernel/components/lwp/lwp_pid.o
                                                  build/kernel/components/lwp/lwp_syscall.o
                                                  build/kernel/components/lwp/lwp_pmutex.o
                                                  build/kernel/components/lwp/lwp_futex.o
lwp_user_object_clear                             build/kernel/components/lwp/lwp_pid.o
                                                  build/kernel/components/lwp/lwp_syscall.o
lwp_user_object_delete                            build/kernel/components/lwp/lwp_pid.o
                                                  build/kernel/components/lwp/lwp_syscall.o
                                                  build/kernel/components/lwp/lwp_pmutex.o
lwp_user_object_dup                               build/kernel/components/lwp/lwp_pid.o
                                                  build/kernel/components/lwp/lwp_syscall.o
lwp_user_object_lock                              build/kernel/components/lwp/lwp_pid.o
lwp_user_object_lock_destroy                      build/kernel/components/lwp/lwp_pid.o
lwp_user_object_lock_init                         build/kernel/components/lwp/lwp_pid.o
                                                  build/kernel/components/lwp/lwp_syscall.o
lwp_user_object_unlock                            build/kernel/components/lwp/lwp_pid.o
lwp_user_space_init                               build/kernel/components/lwp/lwp_user_mm.o
                                                  build/kernel/components/lwp/lwp_syscall.o
                                                  build/kernel/components/lwp/lwp.o
lwp_user_strlen                                   build/kernel/components/lwp/lwp_syscall.o
lwp_vmem_count                                    build/kernel/components/lwp/lwp_mm_area.o
                                                  build/kernel/components/finsh/cmd.o
lwp_wait_subthread_exit                           build/kernel/components/lwp/lwp_pid.o
                                                  build/kernel/components/lwp/lwp_syscall.o
machine_reset                                     build/libcpu/cpu.o
                                                  build/libcpu/cpuport.o
machine_shutdown                                  build/libcpu/cpu.o
                                                  build/libcpu/cpuport.o
main                                              build/applications/main.o
                                                  build/kernel/src/components.o
main_thread_entry                                 build/kernel/src/components.o
malloc                                            build/kernel/components/libc/compilers/musl/mem.o
                                                  /opt/arm-linux-musleabi/bin/../lib/gcc/arm-linux-musleabi/7.3.0/../../../../arm-linux-musleabi/lib/libc_kernel.a(__fdopen.o)
                                                  /opt/arm-linux-musleabi/bin/../lib/gcc/arm-linux-musleabi/7.3.0/../../../../arm-linux-musleabi/lib/libc_kernel.a(setenv.o)
                                                  /opt/arm-linux-musleabi/bin/../lib/gcc/arm-linux-musleabi/7.3.0/../../../../arm-linux-musleabi/lib/libc_kernel.a(putenv.o)
                                                  build/kernel/components/libc/mmap/posix_mmap.o
memchr                                            /opt/arm-linux-musleabi/bin/../lib/gcc/arm-linux-musleabi/7.3.0/../../../../arm-linux-musleabi/lib/libc_kernel.a(memchr.o)
                                                  /opt/arm-linux-musleabi/bin/../lib/gcc/arm-linux-musleabi/7.3.0/../../../../arm-linux-musleabi/lib/libc_kernel.a(strstr.o)
                                                  /opt/arm-linux-musleabi/bin/../lib/gcc/arm-linux-musleabi/7.3.0/../../../../arm-linux-musleabi/lib/libc_kernel.a(strnlen.o)
memcmp                                            /opt/arm-linux-musleabi/bin/../lib/gcc/arm-linux-musleabi/7.3.0/../../../../arm-linux-musleabi/lib/libc_kernel.a(memcmp.o)
                                                  /opt/arm-linux-musleabi/bin/../lib/gcc/arm-linux-musleabi/7.3.0/../../../../arm-linux-musleabi/lib/libc_kernel.a(strstr.o)
                                                  build/kernel/components/finsh/shell.o
memcpy                                            /opt/arm-linux-musleabi/bin/../lib/gcc/arm-linux-musleabi/7.3.0/../../../../arm-linux-musleabi/lib/libc_kernel.a(memcpy_le.o)
                                                  /opt/arm-linux-musleabi/bin/../lib/gcc/arm-linux-musleabi/7.3.0/../../../../arm-linux-musleabi/lib/libc_kernel.a(fwrite.o)
                                                  /opt/arm-linux-musleabi/bin/../lib/gcc/arm-linux-musleabi/7.3.0/../../../../arm-linux-musleabi/lib/libc_kernel.a(vsnprintf.o)
                                                  /opt/arm-linux-musleabi/bin/../lib/gcc/arm-linux-musleabi/7.3.0/../../../../arm-linux-musleabi/lib/libc_kernel.a(setenv.o)
                                                  /opt/arm-linux-musleabi/bin/../lib/gcc/arm-linux-musleabi/7.3.0/../../../../arm-linux-musleabi/lib/libc_kernel.a(putenv.o)
                                                  build/kernel/components/drivers/src/ringbuffer.o
                                                  build/kernel/components/dfs/filesystems/romfs/dfs_romfs.o
                                                  build/kernel/components/finsh/msh.o
                                                  build/kernel/components/finsh/cmd.o
                                                  build/kernel/components/finsh/shell.o
                                                  build/kernel/components/lwp/arch/arm/common/reloc.o
                                                  build/kernel/components/lwp/lwp_syscall.o
                                                  build/kernel/src/signal.o
memrchr                                           /opt/arm-linux-musleabi/bin/../lib/gcc/arm-linux-musleabi/7.3.0/../../../../arm-linux-musleabi/lib/libc_kernel.a(memrchr.o)
memset                                            /opt/arm-linux-musleabi/bin/../lib/gcc/arm-linux-musleabi/7.3.0/../../../../arm-linux-musleabi/lib/libc_kernel.a(memset.o)
                                                  /opt/arm-linux-musleabi/bin/../lib/gcc/arm-linux-musleabi/7.3.0/../../../../arm-linux-musleabi/lib/libc_kernel.a(stpncpy.o)
                                                  /opt/arm-linux-musleabi/bin/../lib/gcc/arm-linux-musleabi/7.3.0/../../../../arm-linux-musleabi/lib/libc_kernel.a(__fdopen.o)
                                                  /opt/arm-linux-musleabi/bin/../lib/gcc/arm-linux-musleabi/7.3.0/../../../../arm-linux-musleabi/lib/libc_kernel.a(strstr.o)
                                                  /opt/arm-linux-musleabi/bin/../lib/gcc/arm-linux-musleabi/7.3.0/../../../../arm-linux-musleabi/lib/libc_kernel.a(vsnprintf.o)
                                                  /opt/arm-linux-musleabi/bin/../lib/gcc/arm-linux-musleabi/7.3.0/../../../../arm-linux-musleabi/lib/libc_kernel.a(vfprintf.o)
                                                  build/kernel/components/dfs/src/dfs_posix.o
                                                  build/kernel/components/dfs/src/dfs_file.o
                                                  build/kernel/components/dfs/src/dfs.o
                                                  build/kernel/components/finsh/msh.o
                                                  build/kernel/components/finsh/shell.o
                                                  build/kernel/components/lwp/arch/arm/arm926/arch_user_space_init.o
                                                  build/kernel/components/lwp/lwp_mm_area.o
                                                  build/kernel/components/lwp/lwp.o
                                                  build/kernel/src/signal.o
                                                  build/kernel/src/kservice.o
                                                  build/libcpu/page.o
mkdir                                             build/kernel/components/dfs/src/dfs_posix.o
                                                  build/kernel/components/dfs/src/dfs_file.o
                                                  build/kernel/components/finsh/msh_file.o
                                                  build/kernel/components/lwp/lwp_syscall.o
mkfifo                                            build/kernel/components/drivers/src/pipe.o
mkfs                                              build/kernel/components/dfs/src/dfs_fs.o
mmap                                              build/kernel/components/libc/mmap/posix_mmap.o
mmc_set_clk                                       build/drivers/drv_clock.o
mmu_info                                          build/drivers/board.o
                                                  build/kernel/components/lwp/ioremap.o
                                                  build/drivers/drv_wdg.o
                                                  build/drivers/drv_uart.o
                                                  build/drivers/drv_gpio.o
                                                  build/drivers/drv_clock.o
                                                  build/libcpu/interrupt.o
mmu_table_get                                     build/libcpu/mmu_gcc.o
                                                  build/kernel/components/lwp/lwp_user_mm.o
mmu_tlb_invalidate                                build/libcpu/mmu_gcc.o
                                                  build/libcpu/mmu.o
mount                                             build/kernel/components/dfs/src/dfs.o
msh_auto_complete                                 build/kernel/components/finsh/msh.o
                                                  build/kernel/components/finsh/shell.o
msh_auto_complete_path                            build/kernel/components/finsh/msh.o
msh_exec                                          build/kernel/components/finsh/msh.o
                                                  build/kernel/components/finsh/shell.o
msh_exec_script                                   build/kernel/components/finsh/msh.o
msh_help                                          build/kernel/components/finsh/msh.o
munmap                                            build/kernel/components/libc/mmap/posix_mmap.o
open                                              build/kernel/components/dfs/src/dfs_posix.o
                                                  /opt/arm-linux-musleabi/bin/../lib/gcc/arm-linux-musleabi/7.3.0/../../../../arm-linux-musleabi/lib/libc_kernel.a(rtt_syscall.o)
                                                  build/kernel/components/drivers/src/pipe.o
                                                  build/kernel/components/finsh/msh_file.o
                                                  build/kernel/components/finsh/msh.o
                                                  build/kernel/components/lwp/lwp_syscall.o
                                                  build/kernel/components/lwp/lwp.o
opendir                                           build/kernel/components/dfs/src/dfs_posix.o
                                                  build/kernel/components/finsh/msh_file.o
                                                  build/kernel/components/finsh/msh.o
os_clock_init                                     build/drivers/board.o
periph_get_pll_clk                                build/drivers/drv_clock.o
periph_set_pll_clk                                build/drivers/drv_clock.o
pipe                                              build/kernel/components/drivers/src/pipe.o
                                                  build/kernel/components/lwp/lwp_syscall.o
platform_mem_desc                                 build/drivers/board.o
                                                  build/libcpu/start_gcc.o
platform_mem_desc_size                            build/drivers/board.o
                                                  build/libcpu/start_gcc.o
poll                                              build/kernel/components/dfs/src/poll.o
                                                  build/kernel/components/dfs/src/select.o
                                                  build/kernel/components/lwp/lwp_syscall.o
printf                                            /opt/arm-linux-musleabi/bin/../lib/gcc/arm-linux-musleabi/7.3.0/../../../../arm-linux-musleabi/lib/libc_kernel.a(printf.o)
                                                  build/kernel/components/libc/compilers/musl/libc.o
program_invocation_name                           /opt/arm-linux-musleabi/bin/../lib/gcc/arm-linux-musleabi/7.3.0/../../../../arm-linux-musleabi/lib/libc_kernel.a(libc.o)
program_invocation_short_name                     /opt/arm-linux-musleabi/bin/../lib/gcc/arm-linux-musleabi/7.3.0/../../../../arm-linux-musleabi/lib/libc_kernel.a(libc.o)
putenv                                            /opt/arm-linux-musleabi/bin/../lib/gcc/arm-linux-musleabi/7.3.0/../../../../arm-linux-musleabi/lib/libc_kernel.a(putenv.o)
                                                  build/kernel/components/libc/compilers/musl/libc.o
raise                                             /opt/arm-linux-musleabi/bin/../lib/gcc/arm-linux-musleabi/7.3.0/../../../../arm-linux-musleabi/lib/libc_kernel.a(raise.o)
                                                  /opt/arm-linux-musleabi/bin/../lib/gcc/arm-linux-musleabi/7.3.0/libgcc.a(_dvmd_lnx.o)
read                                              build/kernel/components/dfs/src/dfs_posix.o
                                                  /opt/arm-linux-musleabi/bin/../lib/gcc/arm-linux-musleabi/7.3.0/../../../../arm-linux-musleabi/lib/libc_kernel.a(rtt_syscall.o)
                                                  build/kernel/components/libc/aio/posix_aio.o
                                                  build/kernel/components/libc/mmap/posix_mmap.o
                                                  build/kernel/components/finsh/msh.o
                                                  build/kernel/components/lwp/lwp_syscall.o
                                                  build/kernel/components/lwp/lwp.o
readdir                                           build/kernel/components/dfs/src/dfs_posix.o
                                                  build/kernel/components/finsh/msh_file.o
                                                  build/kernel/components/finsh/msh.o
realloc                                           build/kernel/components/libc/compilers/musl/mem.o
                                                  /opt/arm-linux-musleabi/bin/../lib/gcc/arm-linux-musleabi/7.3.0/../../../../arm-linux-musleabi/lib/libc_kernel.a(setenv.o)
                                                  /opt/arm-linux-musleabi/bin/../lib/gcc/arm-linux-musleabi/7.3.0/../../../../arm-linux-musleabi/lib/libc_kernel.a(putenv.o)
rename                                            build/kernel/components/dfs/src/dfs_posix.o
                                                  build/kernel/components/finsh/msh_file.o
                                                  build/kernel/components/lwp/lwp_syscall.o
reset                                             build/libcpu/start_gcc.o
ret_to_user                                       build/kernel/components/lwp/arch/arm/arm926/lwp_gcc.o
                                                  build/libcpu/start_gcc.o
                                                  build/libcpu/context_gcc.o
rewinddir                                         build/kernel/components/dfs/src/dfs_posix.o
                                                  build/kernel/components/finsh/msh.o
rm                                                build/kernel/components/dfs/src/dfs_file.o
rmdir                                             build/kernel/components/dfs/src/dfs_posix.o
rt_application_init                               build/kernel/src/components.o
rt_assert_handler                                 build/kernel/src/kservice.o
                                                  build/kernel/components/drivers/watchdog/watchdog.o
                                                  build/kernel/components/drivers/serial/serial.o
                                                  build/kernel/components/drivers/src/workqueue.o
                                                  build/kernel/components/drivers/src/waitqueue.o
                                                  build/kernel/components/drivers/src/ringbuffer.o
                                                  build/kernel/components/drivers/src/ringblk_buf.o
                                                  build/kernel/components/drivers/src/pipe.o
                                                  build/kernel/components/drivers/src/dataqueue.o
                                                  build/kernel/components/drivers/src/completion.o
                                                  build/kernel/components/dfs/filesystems/romfs/dfs_romfs.o
                                                  build/kernel/components/dfs/filesystems/devfs/devfs.o
                                                  build/kernel/components/dfs/src/select.o
                                                  build/kernel/components/dfs/src/dfs_fs.o
                                                  build/kernel/components/dfs/src/dfs.o
                                                  build/kernel/components/libc/compilers/musl/time.o
                                                  build/kernel/components/libc/aio/posix_aio.o
                                                  build/kernel/components/libc/time/clock_time.o
                                                  build/kernel/components/finsh/shell.o
                                                  build/kernel/components/lwp/lwp_user_mm.o
                                                  build/kernel/components/lwp/lwp_tid.o
                                                  build/kernel/components/lwp/lwp_signal.o
                                                  build/kernel/components/lwp/lwp_pid.o
                                                  build/kernel/components/lwp/lwp_ipc.o
                                                  build/kernel/components/lwp/lwp_console.o
                                                  build/kernel/components/lwp/lwp.o
                                                  build/kernel/src/timer.o
                                                  build/kernel/src/thread.o
                                                  build/kernel/src/slab.o
                                                  build/kernel/src/signal.o
                                                  build/kernel/src/scheduler.o
                                                  build/kernel/src/object.o
                                                  build/kernel/src/mempool.o
                                                  build/kernel/src/memheap.o
                                                  build/kernel/src/ipc.o
                                                  build/kernel/src/idle.o
                                                  build/kernel/src/device.o
                                                  build/kernel/src/components.o
                                                  build/drivers/drv_uart.o
                                                  build/drivers/drv_gpio.o
                                                  build/libcpu/page.o
                                                  build/libcpu/cpuport.o
rt_assert_hook                                    build/kernel/src/kservice.o
rt_assert_set_hook                                build/kernel/src/kservice.o
rt_backtrace                                      build/libcpu/backtrace.o
rt_calloc                                         build/kernel/src/slab.o
                                                  build/kernel/components/dfs/src/select.o
                                                  build/kernel/components/dfs/src/dfs_file.o
                                                  build/kernel/components/dfs/src/dfs.o
                                                  build/kernel/components/libc/compilers/musl/mem.o
                                                  build/kernel/components/finsh/shell.o
                                                  build/kernel/components/lwp/lwp_syscall.o
                                                  build/kernel/components/lwp/lwp_pid.o
                                                  build/kernel/components/lwp/lwp_ipc.o
                                                  build/kernel/components/lwp/lwp.o
rt_channel_close                                  build/kernel/components/lwp/lwp_ipc.o
rt_channel_open                                   build/kernel/components/lwp/lwp_ipc.o
rt_channel_peek                                   build/kernel/components/lwp/lwp_ipc.o
rt_channel_recv                                   build/kernel/components/lwp/lwp_ipc.o
rt_channel_recv_timeout                           build/kernel/components/lwp/lwp_ipc.o
rt_channel_reply                                  build/kernel/components/lwp/lwp_ipc.o
rt_channel_send                                   build/kernel/components/lwp/lwp_ipc.o
rt_channel_send_recv                              build/kernel/components/lwp/lwp_ipc.o
rt_channel_send_recv_timeout                      build/kernel/components/lwp/lwp_ipc.o
rt_clz                                            build/libcpu/start_gcc.o
                                                  build/libcpu/page.o
rt_completion_done                                build/kernel/components/drivers/src/completion.o
                                                  build/kernel/components/drivers/serial/serial.o
rt_completion_init                                build/kernel/components/drivers/src/completion.o
                                                  build/kernel/components/drivers/serial/serial.o
rt_completion_wait                                build/kernel/components/drivers/src/completion.o
                                                  build/kernel/components/drivers/serial/serial.o
rt_components_board_init                          build/kernel/src/components.o
                                                  build/drivers/board.o
rt_components_init                                build/kernel/src/components.o
rt_console_get_device                             build/kernel/src/kservice.o
                                                  build/kernel/components/drivers/serial/serial.o
                                                  build/kernel/components/libc/compilers/musl/libc.o
                                                  build/kernel/components/lwp/lwp_syscall.o
rt_console_get_foreground                         build/kernel/components/lwp/lwp_console.o
                                                  build/kernel/components/lwp/lwp_syscall.o
                                                  build/kernel/components/lwp/lwp_pid.o
                                                  build/kernel/components/lwp/lwp.o
rt_console_get_iodev                              build/kernel/components/lwp/lwp_console.o
rt_console_register                               build/kernel/components/lwp/lwp_console.o
                                                  build/kernel/src/kservice.o
rt_console_set_device                             build/kernel/src/kservice.o
                                                  build/drivers/board.o
rt_console_set_foreground                         build/kernel/components/lwp/lwp_console.o
                                                  build/kernel/components/lwp/lwp_syscall.o
                                                  build/kernel/components/lwp/lwp_pid.o
                                                  build/kernel/components/lwp/lwp.o
rt_console_set_iodev                              build/kernel/components/lwp/lwp_console.o
                                                  build/kernel/src/kservice.o
rt_cpu_get_smp_id                                 build/libcpu/cp15_gcc.o
rt_cpu_get_thread_idr                             build/kernel/components/lwp/arch/arm/arm926/lwp_gcc.o
rt_cpu_icache_flush                               build/libcpu/cp15_gcc.o
rt_cpu_mmu_disable                                build/libcpu/cp15_gcc.o
rt_cpu_mmu_enable                                 build/libcpu/cp15_gcc.o
rt_cpu_set_thread_idr                             build/kernel/components/lwp/arch/arm/arm926/lwp_gcc.o
                                                  build/kernel/components/lwp/lwp_user_mm.o
rt_cpu_tlb_set                                    build/libcpu/cp15_gcc.o
rt_cpu_vector_set_base                            build/libcpu/cp15_gcc.o
rt_critical_level                                 build/kernel/src/scheduler.o
rt_ctz                                            build/libcpu/page.o
rt_current_priority                               build/kernel/src/scheduler.o
rt_current_thread                                 build/kernel/src/scheduler.o
                                                  build/kernel/src/thread.o
                                                  build/libcpu/start_gcc.o
                                                  build/libcpu/context_gcc.o
rt_custom_object_create                           build/kernel/src/object.o
                                                  build/kernel/components/lwp/lwp_pmutex.o
                                                  build/kernel/components/lwp/lwp_futex.o
rt_custom_object_destroy                          build/kernel/src/object.o
                                                  build/kernel/components/lwp/lwp_pmutex.o
                                                  build/kernel/components/lwp/lwp_pid.o
                                                  build/kernel/components/lwp/lwp_futex.o
rt_data_queue_deinit                              build/kernel/components/drivers/src/dataqueue.o
rt_data_queue_init                                build/kernel/components/drivers/src/dataqueue.o
rt_data_queue_len                                 build/kernel/components/drivers/src/dataqueue.o
rt_data_queue_peak                                build/kernel/components/drivers/src/dataqueue.o
rt_data_queue_pop                                 build/kernel/components/drivers/src/dataqueue.o
rt_data_queue_push                                build/kernel/components/drivers/src/dataqueue.o
rt_data_queue_reset                               build/kernel/components/drivers/src/dataqueue.o
rt_delayed_work_init                              build/kernel/components/drivers/src/workqueue.o
rt_device_close                                   build/kernel/src/device.o
                                                  build/kernel/components/drivers/serial/serial.o
                                                  build/kernel/components/dfs/filesystems/devfs/devfs.o
                                                  build/kernel/components/dfs/src/dfs_fs.o
                                                  build/kernel/components/lwp/lwp_syscall.o
                                                  build/kernel/components/lwp/lwp_console.o
rt_device_control                                 build/kernel/src/device.o
                                                  build/kernel/components/drivers/serial/serial.o
                                                  build/kernel/components/dfs/filesystems/devfs/devfs.o
                                                  build/kernel/components/libc/compilers/musl/time.o
                                                  build/kernel/components/libc/time/clock_time.o
                                                  build/kernel/components/lwp/lwp_syscall.o
                                                  build/kernel/components/lwp/lwp_console.o
rt_device_create                                  build/kernel/src/device.o
rt_device_destroy                                 build/kernel/src/device.o
rt_device_find                                    build/kernel/src/device.o
                                                  build/kernel/components/drivers/src/pipe.o
                                                  build/kernel/components/dfs/filesystems/devfs/devfs.o
                                                  build/kernel/components/dfs/src/dfs_fs.o
                                                  build/kernel/components/libc/compilers/musl/time.o
                                                  build/kernel/components/libc/time/clock_time.o
                                                  build/kernel/components/lwp/lwp_syscall.o
                                                  build/kernel/src/kservice.o
rt_device_init                                    build/kernel/src/device.o
                                                  build/kernel/components/lwp/lwp_syscall.o
rt_device_init_all                                build/kernel/src/device.o
rt_device_open                                    build/kernel/src/device.o
                                                  build/kernel/components/drivers/serial/serial.o
                                                  build/kernel/components/dfs/filesystems/devfs/devfs.o
                                                  build/kernel/components/dfs/src/dfs_fs.o
                                                  build/kernel/components/lwp/lwp_syscall.o
                                                  build/kernel/components/lwp/lwp_console.o
                                                  build/kernel/src/kservice.o
rt_device_read                                    build/kernel/src/device.o
                                                  build/kernel/components/drivers/serial/serial.o
                                                  build/kernel/components/dfs/filesystems/devfs/devfs.o
                                                  build/kernel/components/lwp/lwp_syscall.o
                                                  build/kernel/components/lwp/lwp_console.o
rt_device_register                                build/kernel/src/device.o
                                                  build/kernel/components/drivers/watchdog/watchdog.o
                                                  build/kernel/components/drivers/serial/serial.o
                                                  build/kernel/components/drivers/src/pipe.o
                                                  build/kernel/components/lwp/lwp_syscall.o
                                                  build/kernel/components/lwp/lwp_console.o
rt_device_set_rx_indicate                         build/kernel/src/device.o
                                                  build/kernel/components/drivers/serial/serial.o
rt_device_set_tx_complete                         build/kernel/src/device.o
rt_device_unregister                              build/kernel/src/device.o
                                                  build/kernel/components/drivers/src/pipe.o
rt_device_write                                   build/kernel/src/device.o
                                                  build/kernel/components/drivers/serial/serial.o
                                                  build/kernel/components/dfs/filesystems/devfs/devfs.o
                                                  build/kernel/components/lwp/lwp_syscall.o
                                                  build/kernel/components/lwp/lwp_console.o
                                                  build/kernel/src/kservice.o
rt_enter_critical                                 build/kernel/src/scheduler.o
                                                  build/kernel/components/drivers/src/workqueue.o
                                                  build/kernel/components/drivers/src/dataqueue.o
                                                  build/kernel/components/dfs/src/dfs.o
                                                  build/kernel/src/thread.o
                                                  build/kernel/src/object.o
                                                  build/kernel/src/device.o
rt_event_control                                  build/kernel/src/ipc.o
rt_event_create                                   build/kernel/src/ipc.o
                                                  build/kernel/components/lwp/lwp_syscall.o
rt_event_delete                                   build/kernel/src/ipc.o
                                                  build/kernel/components/lwp/lwp_syscall.o
                                                  build/kernel/components/lwp/lwp_pid.o
rt_event_detach                                   build/kernel/src/ipc.o
rt_event_init                                     build/kernel/src/ipc.o
rt_event_recv                                     build/kernel/src/ipc.o
                                                  build/kernel/components/lwp/lwp_syscall.o
rt_event_recv_interruptible                       build/kernel/src/ipc.o
rt_event_recv_killable                            build/kernel/src/ipc.o
rt_event_send                                     build/kernel/src/ipc.o
                                                  build/kernel/components/lwp/lwp_syscall.o
rt_exit_critical                                  build/kernel/src/scheduler.o
                                                  build/kernel/components/drivers/src/workqueue.o
                                                  build/kernel/components/drivers/src/dataqueue.o
                                                  build/kernel/components/dfs/src/dfs.o
                                                  build/kernel/src/thread.o
                                                  build/kernel/src/object.o
                                                  build/kernel/src/device.o
rt_free                                           build/kernel/src/slab.o
                                                  build/kernel/components/drivers/serial/serial.o
                                                  build/kernel/components/drivers/src/workqueue.o
                                                  build/kernel/components/drivers/src/ringbuffer.o
                                                  build/kernel/components/drivers/src/ringblk_buf.o
                                                  build/kernel/components/drivers/src/pipe.o
                                                  build/kernel/components/drivers/src/dataqueue.o
                                                  build/kernel/components/dfs/filesystems/devfs/devfs.o
                                                  build/kernel/components/dfs/src/select.o
                                                  build/kernel/components/dfs/src/poll.o
                                                  build/kernel/components/dfs/src/dfs_posix.o
                                                  build/kernel/components/dfs/src/dfs_fs.o
                                                  build/kernel/components/dfs/src/dfs_file.o
                                                  build/kernel/components/dfs/src/dfs.o
                                                  build/kernel/components/libc/compilers/musl/mem.o
                                                  build/kernel/components/finsh/msh_file.o
                                                  build/kernel/components/finsh/msh.o
                                                  build/kernel/components/finsh/shell.o
                                                  build/kernel/components/lwp/lwp_syscall.o
                                                  build/kernel/components/lwp/lwp_shm.o
                                                  build/kernel/components/lwp/lwp_pmutex.o
                                                  build/kernel/components/lwp/lwp_pid.o
                                                  build/kernel/components/lwp/lwp_mm_area.o
                                                  build/kernel/components/lwp/lwp_ipc.o
                                                  build/kernel/components/lwp/lwp_futex.o
                                                  build/kernel/components/lwp/lwp.o
                                                  build/kernel/src/signal.o
                                                  build/kernel/src/object.o
                                                  build/kernel/src/mempool.o
                                                  build/kernel/src/kservice.o
                                                  build/kernel/src/ipc.o
                                                  build/kernel/src/idle.o
                                                  build/kernel/src/device.o
rt_free_align                                     build/kernel/src/kservice.o
                                                  build/kernel/components/lwp/lwp_pid.o
rt_free_sethook                                   build/kernel/src/slab.o
rt_get_errno                                      build/kernel/src/kservice.o
                                                  build/kernel/components/dfs/src/dfs_fs.o
                                                  build/kernel/components/lwp/lwp_syscall.o
rt_hw_board_init                                  build/drivers/board.o
                                                  build/kernel/src/components.o
rt_hw_console_output                              build/kernel/src/kservice.o
rt_hw_context_switch                              build/libcpu/context_gcc.o
                                                  build/kernel/src/scheduler.o
rt_hw_context_switch_exit                         build/libcpu/context_gcc.o
rt_hw_context_switch_interrupt                    build/libcpu/context_gcc.o
                                                  build/kernel/src/scheduler.o
rt_hw_context_switch_to                           build/libcpu/context_gcc.o
                                                  build/kernel/src/signal.o
                                                  build/kernel/src/scheduler.o
rt_hw_cpu_dcache_clean                            build/libcpu/cache.o
                                                  build/libcpu/mmu.o
rt_hw_cpu_dcache_clean_and_invalidate             build/libcpu/cache.o
rt_hw_cpu_dcache_disable                          build/libcpu/cp15_gcc.o
rt_hw_cpu_dcache_enable                           build/libcpu/cp15_gcc.o
rt_hw_cpu_dcache_invalidate                       build/libcpu/cache.o
rt_hw_cpu_dcache_ops                              build/libcpu/cache.o
                                                  build/kernel/components/lwp/arch/arm/arm926/arch_user_space_init.o
                                                  build/kernel/components/lwp/lwp_user_mm.o
                                                  build/kernel/components/lwp/lwp.o
rt_hw_cpu_dcache_status                           build/libcpu/cache.o
rt_hw_cpu_dump_page_table                         build/libcpu/mmu.o
rt_hw_cpu_dump_page_table_2nd                     build/libcpu/mmu.o
rt_hw_cpu_icache_disable                          build/libcpu/cp15_gcc.o
rt_hw_cpu_icache_enable                           build/libcpu/cp15_gcc.o
rt_hw_cpu_icache_invalidate                       build/libcpu/cache.o
rt_hw_cpu_icache_ops                              build/libcpu/cache.o
                                                  build/kernel/components/lwp/arch/arm/arm926/arch_user_space_init.o
rt_hw_cpu_icache_status                           build/libcpu/cache.o
rt_hw_cpu_id                                      build/libcpu/cpuport.o
rt_hw_cpu_reset                                   build/libcpu/cpuport.o
rt_hw_cpu_shutdown                                build/libcpu/cpuport.o
                                                  build/libcpu/trap.o
rt_hw_gpio_init                                   build/drivers/drv_gpio.o
                                                  build/drivers/board.o
rt_hw_init_mmu_table                              build/libcpu/mmu.o
                                                  build/libcpu/start_gcc.o
rt_hw_interrupt_control                           build/libcpu/interrupt.o
                                                  build/drivers/board.o
rt_hw_interrupt_disable                           build/libcpu/context_gcc.o
                                                  build/kernel/components/drivers/serial/serial.o
                                                  build/kernel/components/drivers/src/workqueue.o
                                                  build/kernel/components/drivers/src/waitqueue.o
                                                  build/kernel/components/drivers/src/ringblk_buf.o
                                                  build/kernel/components/drivers/src/dataqueue.o
                                                  build/kernel/components/drivers/src/completion.o
                                                  build/kernel/components/dfs/filesystems/devfs/devfs.o
                                                  build/kernel/components/dfs/src/poll.o
                                                  build/kernel/components/libc/aio/posix_aio.o
                                                  build/kernel/components/finsh/cmd.o
                                                  build/kernel/components/lwp/lwp_user_mm.o
                                                  build/kernel/components/lwp/lwp_tid.o
                                                  build/kernel/components/lwp/lwp_syscall.o
                                                  build/kernel/components/lwp/lwp_signal.o
                                                  build/kernel/components/lwp/lwp_shm.o
                                                  build/kernel/components/lwp/lwp_pmutex.o
                                                  build/kernel/components/lwp/lwp_pid.o
                                                  build/kernel/components/lwp/lwp_ipc.o
                                                  build/kernel/components/lwp/lwp_futex.o
                                                  build/kernel/components/lwp/lwp_console.o
                                                  build/kernel/components/lwp/lwp.o
                                                  build/kernel/components/lwp/ioremap.o
                                                  build/kernel/src/timer.o
                                                  build/kernel/src/thread.o
                                                  build/kernel/src/slab.o
                                                  build/kernel/src/signal.o
                                                  build/kernel/src/scheduler.o
                                                  build/kernel/src/object.o
                                                  build/kernel/src/mempool.o
                                                  build/kernel/src/irq.o
                                                  build/kernel/src/ipc.o
                                                  build/kernel/src/idle.o
                                                  build/kernel/src/components.o
                                                  build/kernel/src/clock.o
                                                  build/drivers/drv_wdg.o
                                                  build/drivers/drv_uart.o
                                                  build/drivers/drv_gpio.o
                                                  build/drivers/drv_clock.o
                                                  build/drivers/board.o
                                                  build/libcpu/page.o
                                                  build/libcpu/mmu.o
                                                  build/libcpu/interrupt.o
                                                  build/libcpu/cpuport.o
                                                  build/libcpu/cpu.o
rt_hw_interrupt_enable                            build/libcpu/context_gcc.o
                                                  build/kernel/components/drivers/serial/serial.o
                                                  build/kernel/components/drivers/src/workqueue.o
                                                  build/kernel/components/drivers/src/waitqueue.o
                                                  build/kernel/components/drivers/src/ringblk_buf.o
                                                  build/kernel/components/drivers/src/dataqueue.o
                                                  build/kernel/components/drivers/src/completion.o
                                                  build/kernel/components/dfs/filesystems/devfs/devfs.o
                                                  build/kernel/components/dfs/src/poll.o
                                                  build/kernel/components/libc/aio/posix_aio.o
                                                  build/kernel/components/finsh/cmd.o
                                                  build/kernel/components/lwp/lwp_user_mm.o
                                                  build/kernel/components/lwp/lwp_tid.o
                                                  build/kernel/components/lwp/lwp_syscall.o
                                                  build/kernel/components/lwp/lwp_signal.o
                                                  build/kernel/components/lwp/lwp_shm.o
                                                  build/kernel/components/lwp/lwp_pmutex.o
                                                  build/kernel/components/lwp/lwp_pid.o
                                                  build/kernel/components/lwp/lwp_ipc.o
                                                  build/kernel/components/lwp/lwp_futex.o
                                                  build/kernel/components/lwp/lwp_console.o
                                                  build/kernel/components/lwp/lwp.o
                                                  build/kernel/components/lwp/ioremap.o
                                                  build/kernel/src/timer.o
                                                  build/kernel/src/thread.o
                                                  build/kernel/src/slab.o
                                                  build/kernel/src/signal.o
                                                  build/kernel/src/scheduler.o
                                                  build/kernel/src/object.o
                                                  build/kernel/src/mempool.o
                                                  build/kernel/src/irq.o
                                                  build/kernel/src/ipc.o
                                                  build/kernel/src/idle.o
                                                  build/kernel/src/clock.o
                                                  build/drivers/drv_wdg.o
                                                  build/drivers/drv_uart.o
                                                  build/drivers/drv_gpio.o
                                                  build/drivers/drv_clock.o
                                                  build/drivers/board.o
                                                  build/libcpu/page.o
                                                  build/libcpu/mmu.o
                                                  build/libcpu/interrupt.o
rt_hw_interrupt_init                              build/libcpu/interrupt.o
                                                  build/drivers/board.o
rt_hw_interrupt_install                           build/libcpu/interrupt.o
                                                  build/drivers/drv_uart.o
                                                  build/drivers/drv_gpio.o
                                                  build/drivers/board.o
rt_hw_interrupt_mask                              build/libcpu/interrupt.o
                                                  build/drivers/drv_uart.o
rt_hw_interrupt_umask                             build/libcpu/interrupt.o
                                                  build/drivers/drv_uart.o
                                                  build/drivers/drv_gpio.o
                                                  build/drivers/board.o
rt_hw_kernel_virt_to_phys                         build/libcpu/interrupt.o
rt_hw_mmu_ioremap_init                            build/libcpu/mmu.o
                                                  build/drivers/board.o
rt_hw_mmu_map                                     build/libcpu/mmu.o
                                                  build/kernel/components/lwp/lwp_user_mm.o
                                                  build/kernel/components/lwp/ioremap.o
rt_hw_mmu_map_auto                                build/libcpu/mmu.o
                                                  build/kernel/components/lwp/arch/arm/arm926/arch_user_space_init.o
                                                  build/kernel/components/lwp/lwp_user_mm.o
rt_hw_mmu_map_init                                build/libcpu/mmu.o
                                                  build/kernel/components/lwp/arch/arm/arm926/arch_user_space_init.o
                                                  build/drivers/board.o
rt_hw_mmu_setmtt                                  build/libcpu/mmu.o
rt_hw_mmu_unmap                                   build/libcpu/mmu.o
                                                  build/kernel/components/lwp/lwp_user_mm.o
                                                  build/kernel/components/lwp/ioremap.o
rt_hw_mmu_v2p                                     build/libcpu/mmu.o
                                                  build/kernel/components/lwp/arch/arm/common/reloc.o
                                                  build/kernel/components/lwp/lwp_user_mm.o
                                                  build/kernel/components/lwp/lwp_shm.o
                                                  build/kernel/components/lwp/lwp.o
                                                  build/kernel/components/lwp/ioremap.o
rt_hw_serial_isr                                  build/kernel/components/drivers/serial/serial.o
                                                  build/drivers/drv_uart.o
rt_hw_serial_register                             build/kernel/components/drivers/serial/serial.o
                                                  build/drivers/drv_uart.o
rt_hw_set_domain_register                         build/libcpu/mmu.o
rt_hw_show_register                               build/libcpu/trap.o
rt_hw_stack_init                                  build/libcpu/stack.o
                                                  build/kernel/src/thread.o
                                                  build/kernel/src/signal.o
rt_hw_trap_dabt                                   build/libcpu/trap.o
                                                  build/libcpu/start_gcc.o
rt_hw_trap_fiq                                    build/libcpu/trap.o
                                                  build/libcpu/start_gcc.o
rt_hw_trap_irq                                    build/libcpu/trap.o
                                                  build/libcpu/start_gcc.o
rt_hw_trap_pabt                                   build/libcpu/trap.o
                                                  build/libcpu/start_gcc.o
rt_hw_trap_resv                                   build/libcpu/trap.o
                                                  build/libcpu/start_gcc.o
rt_hw_trap_swi                                    build/libcpu/trap.o
                                                  build/libcpu/start_gcc.o
rt_hw_trap_undef                                  build/libcpu/trap.o
                                                  build/libcpu/start_gcc.o
rt_hw_uart_init                                   build/drivers/drv_uart.o
                                                  build/drivers/board.o
rt_hw_watchdog_register                           build/kernel/components/drivers/watchdog/watchdog.o
                                                  build/drivers/drv_wdg.o
rt_hw_wdt_init                                    build/drivers/drv_wdg.o
rt_interrupt_dispatch                             build/libcpu/interrupt.o
                                                  build/libcpu/trap.o
rt_interrupt_enter                                build/kernel/src/irq.o
                                                  build/libcpu/start_gcc.o
rt_interrupt_enter_sethook                        build/kernel/src/irq.o
rt_interrupt_from_thread                          build/libcpu/interrupt.o
                                                  build/libcpu/start_gcc.o
                                                  build/libcpu/context_gcc.o
rt_interrupt_get_nest                             build/kernel/src/irq.o
                                                  build/kernel/components/drivers/src/waitqueue.o
                                                  build/kernel/components/drivers/src/dataqueue.o
                                                  build/kernel/components/drivers/src/completion.o
                                                  build/kernel/components/lwp/lwp_ipc.o
                                                  build/kernel/src/slab.o
                                                  build/kernel/src/signal.o
                                                  build/kernel/src/object.o
                                                  build/kernel/src/mempool.o
                                                  build/kernel/src/kservice.o
                                                  build/kernel/src/ipc.o
                                                  build/kernel/src/idle.o
rt_interrupt_leave                                build/kernel/src/irq.o
                                                  build/libcpu/start_gcc.o
rt_interrupt_leave_sethook                        build/kernel/src/irq.o
rt_interrupt_nest                                 build/kernel/src/irq.o
                                                  build/kernel/src/scheduler.o
                                                  build/libcpu/interrupt.o
rt_interrupt_to_thread                            build/libcpu/interrupt.o
                                                  build/libcpu/start_gcc.o
                                                  build/libcpu/context_gcc.o
rt_ioremap                                        build/kernel/components/lwp/ioremap.o
                                                  build/drivers/drv_wdg.o
                                                  build/drivers/drv_uart.o
                                                  build/drivers/drv_gpio.o
                                                  build/drivers/drv_clock.o
                                                  build/drivers/board.o
                                                  build/libcpu/interrupt.o
rt_ioremap_cached                                 build/kernel/components/lwp/ioremap.o
rt_ioremap_nocache                                build/kernel/components/lwp/ioremap.o
rt_iounmap                                        build/kernel/components/lwp/ioremap.o
rt_kprintf                                        build/kernel/src/kservice.o
                                                  build/kernel/components/drivers/watchdog/watchdog.o
                                                  build/kernel/components/drivers/serial/serial.o
                                                  build/kernel/components/drivers/src/waitqueue.o
                                                  build/kernel/components/drivers/src/dataqueue.o
                                                  build/kernel/components/drivers/src/completion.o
                                                  build/kernel/components/dfs/src/dfs_posix.o
                                                  build/kernel/components/dfs/src/dfs_fs.o
                                                  build/kernel/components/dfs/src/dfs_file.o
                                                  build/kernel/components/dfs/src/dfs.o
                                                  build/kernel/components/finsh/msh_file.o
                                                  build/kernel/components/finsh/msh.o
                                                  build/kernel/components/finsh/cmd.o
                                                  build/kernel/components/finsh/shell.o
                                                  build/kernel/components/lwp/lwp_syscall.o
                                                  build/kernel/components/lwp/lwp_shm.o
                                                  build/kernel/components/lwp/lwp_pid.o
                                                  build/kernel/components/lwp/lwp_ipc.o
                                                  build/kernel/components/lwp/lwp.o
                                                  build/kernel/src/slab.o
                                                  build/kernel/src/signal.o
                                                  build/kernel/src/scheduler.o
                                                  build/kernel/src/object.o
                                                  build/kernel/src/mempool.o
                                                  build/kernel/src/ipc.o
                                                  build/kernel/src/idle.o
                                                  build/kernel/src/device.o
                                                  build/applications/main.o
                                                  build/drivers/drv_wdg.o
                                                  build/drivers/drv_gpio.o
                                                  build/libcpu/trap.o
                                                  build/libcpu/page.o
                                                  build/libcpu/mmu.o
                                                  build/libcpu/interrupt.o
                                                  build/libcpu/cpuport.o
                                                  build/libcpu/cpu.o
                                                  build/libcpu/backtrace.o
rt_kputs                                          build/kernel/src/kservice.o
rt_low_level_init                                 build/libcpu/rt_low_level_init.o
                                                  build/libcpu/start_gcc.o
rt_malloc                                         build/kernel/src/slab.o
                                                  build/kernel/components/drivers/serial/serial.o
                                                  build/kernel/components/drivers/src/workqueue.o
                                                  build/kernel/components/drivers/src/ringbuffer.o
                                                  build/kernel/components/drivers/src/ringblk_buf.o
                                                  build/kernel/components/drivers/src/pipe.o
                                                  build/kernel/components/drivers/src/dataqueue.o
                                                  build/kernel/components/dfs/filesystems/devfs/devfs.o
                                                  build/kernel/components/dfs/src/poll.o
                                                  build/kernel/components/dfs/src/dfs_posix.o
                                                  build/kernel/components/dfs/src/dfs_file.o
                                                  build/kernel/components/dfs/src/dfs.o
                                                  build/kernel/components/libc/compilers/musl/mem.o
                                                  build/kernel/components/finsh/msh_file.o
                                                  build/kernel/components/finsh/msh.o
                                                  build/kernel/components/finsh/shell.o
                                                  build/kernel/components/lwp/lwp_syscall.o
                                                  build/kernel/components/lwp/lwp_shm.o
                                                  build/kernel/components/lwp/lwp_pmutex.o
                                                  build/kernel/components/lwp/lwp_pid.o
                                                  build/kernel/components/lwp/lwp_mm_area.o
                                                  build/kernel/components/lwp/lwp_ipc.o
                                                  build/kernel/components/lwp/lwp_futex.o
                                                  build/kernel/components/lwp/lwp.o
                                                  build/kernel/src/thread.o
                                                  build/kernel/src/signal.o
                                                  build/kernel/src/object.o
                                                  build/kernel/src/mempool.o
                                                  build/kernel/src/kservice.o
                                                  build/kernel/src/ipc.o
                                                  build/kernel/src/device.o
                                                  build/drivers/drv_wdg.o
rt_malloc_align                                   build/kernel/src/kservice.o
rt_malloc_sethook                                 build/kernel/src/slab.o
rt_mb_control                                     build/kernel/src/ipc.o
rt_mb_create                                      build/kernel/src/ipc.o
                                                  build/kernel/components/lwp/lwp_syscall.o
rt_mb_delete                                      build/kernel/src/ipc.o
                                                  build/kernel/components/lwp/lwp_syscall.o
                                                  build/kernel/components/lwp/lwp_pid.o
rt_mb_detach                                      build/kernel/src/ipc.o
rt_mb_init                                        build/kernel/src/ipc.o
rt_mb_recv                                        build/kernel/src/ipc.o
                                                  build/kernel/components/lwp/lwp_syscall.o
rt_mb_recv_interruptibale                         build/kernel/src/ipc.o
rt_mb_recv_killable                               build/kernel/src/ipc.o
rt_mb_send                                        build/kernel/src/ipc.o
                                                  build/kernel/components/lwp/lwp_syscall.o
rt_mb_send_interruptible                          build/kernel/src/ipc.o
rt_mb_send_killable                               build/kernel/src/ipc.o
rt_mb_send_wait                                   build/kernel/src/ipc.o
                                                  build/kernel/components/lwp/lwp_syscall.o
rt_mb_send_wait_interruptible                     build/kernel/src/ipc.o
rt_mb_send_wait_killable                          build/kernel/src/ipc.o
rt_memcmp                                         build/kernel/src/kservice.o
rt_memcpy                                         build/kernel/src/kservice.o
                                                  build/kernel/components/drivers/serial/serial.o
                                                  build/kernel/components/finsh/cmd.o
                                                  build/kernel/components/lwp/arch/arm/arm926/arch_user_space_init.o
                                                  build/kernel/components/lwp/lwp_user_mm.o
                                                  build/kernel/components/lwp/lwp_syscall.o
                                                  build/kernel/components/lwp/lwp_signal.o
                                                  build/kernel/components/lwp/lwp_pid.o
                                                  build/kernel/components/lwp/lwp.o
                                                  build/kernel/src/slab.o
                                                  build/kernel/src/memheap.o
                                                  build/kernel/src/ipc.o
                                                  build/drivers/drv_wdg.o
rt_memheap_alloc                                  build/kernel/src/memheap.o
rt_memheap_detach                                 build/kernel/src/memheap.o
rt_memheap_free                                   build/kernel/src/memheap.o
rt_memheap_init                                   build/kernel/src/memheap.o
rt_memheap_realloc                                build/kernel/src/memheap.o
rt_memmove                                        build/kernel/src/kservice.o
                                                  build/kernel/components/finsh/shell.o
rt_memory_info                                    build/kernel/src/slab.o
rt_memset                                         build/kernel/src/kservice.o
                                                  build/kernel/components/drivers/serial/serial.o
                                                  build/kernel/components/drivers/src/pipe.o
                                                  build/kernel/components/dfs/src/select.o
                                                  build/kernel/components/finsh/msh.o
                                                  build/kernel/components/lwp/lwp_syscall.o
                                                  build/kernel/components/lwp/lwp_pid.o
                                                  build/kernel/components/lwp/lwp_ipc.o
                                                  build/kernel/src/thread.o
                                                  build/kernel/src/slab.o
                                                  build/kernel/src/object.o
                                                  build/kernel/src/device.o
                                                  build/drivers/drv_wdg.o
                                                  build/libcpu/mmu.o
                                                  build/libcpu/interrupt.o
rt_mp_alloc                                       build/kernel/src/mempool.o
                                                  build/kernel/src/signal.o
rt_mp_alloc_sethook                               build/kernel/src/mempool.o
rt_mp_create                                      build/kernel/src/mempool.o
                                                  build/kernel/src/signal.o
rt_mp_delete                                      build/kernel/src/mempool.o
rt_mp_detach                                      build/kernel/src/mempool.o
rt_mp_free                                        build/kernel/src/mempool.o
                                                  build/kernel/src/signal.o
rt_mp_free_sethook                                build/kernel/src/mempool.o
rt_mp_init                                        build/kernel/src/mempool.o
rt_mq_control                                     build/kernel/src/ipc.o
rt_mq_create                                      build/kernel/src/ipc.o
                                                  build/kernel/components/lwp/lwp_syscall.o
rt_mq_delete                                      build/kernel/src/ipc.o
                                                  build/kernel/components/lwp/lwp_syscall.o
                                                  build/kernel/components/lwp/lwp_pid.o
rt_mq_detach                                      build/kernel/src/ipc.o
rt_mq_init                                        build/kernel/src/ipc.o
rt_mq_recv                                        build/kernel/src/ipc.o
                                                  build/kernel/components/lwp/lwp_syscall.o
rt_mq_recv_interruptible                          build/kernel/src/ipc.o
rt_mq_recv_killable                               build/kernel/src/ipc.o
rt_mq_send                                        build/kernel/src/ipc.o
                                                  build/kernel/components/lwp/lwp_syscall.o
rt_mq_send_interrupt                              build/kernel/src/ipc.o
rt_mq_send_killable                               build/kernel/src/ipc.o
rt_mq_send_wait                                   build/kernel/src/ipc.o
rt_mq_send_wait_interruptible                     build/kernel/src/ipc.o
rt_mq_send_wait_killable                          build/kernel/src/ipc.o
rt_mq_urgent                                      build/kernel/src/ipc.o
                                                  build/kernel/components/lwp/lwp_syscall.o
rt_mutex_control                                  build/kernel/src/ipc.o
rt_mutex_create                                   build/kernel/src/ipc.o
                                                  build/kernel/components/lwp/lwp_syscall.o
                                                  build/kernel/components/lwp/lwp_pmutex.o
rt_mutex_delete                                   build/kernel/src/ipc.o
                                                  build/kernel/components/lwp/lwp_syscall.o
                                                  build/kernel/components/lwp/lwp_pmutex.o
                                                  build/kernel/components/lwp/lwp_pid.o
rt_mutex_detach                                   build/kernel/src/ipc.o
                                                  build/kernel/components/drivers/src/pipe.o
                                                  build/kernel/components/lwp/lwp_pid.o
rt_mutex_init                                     build/kernel/src/ipc.o
                                                  build/kernel/components/drivers/src/pipe.o
                                                  build/kernel/components/dfs/src/dfs_file.o
                                                  build/kernel/components/dfs/src/dfs.o
                                                  build/kernel/components/lwp/lwp_pmutex.o
                                                  build/kernel/components/lwp/lwp_pid.o
                                                  build/kernel/components/lwp/lwp_futex.o
rt_mutex_release                                  build/kernel/src/ipc.o
                                                  build/kernel/components/drivers/src/pipe.o
                                                  build/kernel/components/dfs/src/dfs_file.o
                                                  build/kernel/components/dfs/src/dfs.o
                                                  build/kernel/components/lwp/lwp_syscall.o
                                                  build/kernel/components/lwp/lwp_pmutex.o
                                                  build/kernel/components/lwp/lwp_pid.o
                                                  build/kernel/components/lwp/lwp_futex.o
rt_mutex_take                                     build/kernel/src/ipc.o
                                                  build/kernel/components/drivers/src/pipe.o
                                                  build/kernel/components/dfs/src/dfs_file.o
                                                  build/kernel/components/dfs/src/dfs.o
                                                  build/kernel/components/lwp/lwp_pid.o
rt_mutex_take_interruptible                       build/kernel/src/ipc.o
                                                  build/kernel/components/lwp/lwp_syscall.o
                                                  build/kernel/components/lwp/lwp_pmutex.o
                                                  build/kernel/components/lwp/lwp_futex.o
rt_mutex_take_killable                            build/kernel/src/ipc.o
rt_object_allocate                                build/kernel/src/object.o
                                                  build/kernel/components/lwp/lwp_ipc.o
                                                  build/kernel/src/timer.o
                                                  build/kernel/src/thread.o
                                                  build/kernel/src/mempool.o
                                                  build/kernel/src/ipc.o
rt_object_attach_sethook                          build/kernel/src/object.o
rt_object_delete                                  build/kernel/src/object.o
                                                  build/kernel/components/lwp/lwp_ipc.o
                                                  build/kernel/src/timer.o
                                                  build/kernel/src/thread.o
                                                  build/kernel/src/mempool.o
                                                  build/kernel/src/ipc.o
                                                  build/kernel/src/idle.o
rt_object_detach                                  build/kernel/src/object.o
                                                  build/kernel/src/timer.o
                                                  build/kernel/src/thread.o
                                                  build/kernel/src/mempool.o
                                                  build/kernel/src/memheap.o
                                                  build/kernel/src/ipc.o
                                                  build/kernel/src/idle.o
                                                  build/kernel/src/device.o
rt_object_detach_sethook                          build/kernel/src/object.o
rt_object_find                                    build/kernel/src/object.o
rt_object_get_information                         build/kernel/src/object.o
                                                  build/kernel/components/dfs/filesystems/devfs/devfs.o
                                                  build/kernel/components/finsh/cmd.o
                                                  build/kernel/components/lwp/lwp_ipc.o
                                                  build/kernel/src/thread.o
                                                  build/kernel/src/device.o
rt_object_get_length                              build/kernel/src/object.o
                                                  build/kernel/components/lwp/lwp_pid.o
rt_object_get_pointers                            build/kernel/src/object.o
                                                  build/kernel/components/lwp/lwp_pid.o
rt_object_get_type                                build/kernel/src/object.o
                                                  build/kernel/components/lwp/lwp_ipc.o
                                                  build/kernel/src/timer.o
                                                  build/kernel/src/thread.o
                                                  build/kernel/src/mempool.o
                                                  build/kernel/src/memheap.o
                                                  build/kernel/src/ipc.o
                                                  build/kernel/src/device.o
rt_object_init                                    build/kernel/src/object.o
                                                  build/kernel/src/timer.o
                                                  build/kernel/src/thread.o
                                                  build/kernel/src/mempool.o
                                                  build/kernel/src/memheap.o
                                                  build/kernel/src/ipc.o
                                                  build/kernel/src/device.o
rt_object_is_systemobject                         build/kernel/src/object.o
                                                  build/kernel/components/lwp/lwp_ipc.o
                                                  build/kernel/src/timer.o
                                                  build/kernel/src/thread.o
                                                  build/kernel/src/mempool.o
                                                  build/kernel/src/memheap.o
                                                  build/kernel/src/ipc.o
                                                  build/kernel/src/idle.o
                                                  build/kernel/src/device.o
rt_object_put_hook                                build/kernel/src/object.o
                                                  build/kernel/src/timer.o
                                                  build/kernel/src/ipc.o
rt_object_put_sethook                             build/kernel/src/object.o
rt_object_take_hook                               build/kernel/src/object.o
                                                  build/kernel/src/timer.o
                                                  build/kernel/src/ipc.o
rt_object_take_sethook                            build/kernel/src/object.o
rt_object_trytake_hook                            build/kernel/src/object.o
                                                  build/kernel/src/ipc.o
rt_object_trytake_sethook                         build/kernel/src/object.o
rt_page_alloc                                     build/kernel/src/slab.o
rt_page_bits                                      build/libcpu/page.o
                                                  build/kernel/components/lwp/lwp_shm.o
rt_page_free                                      build/kernel/src/slab.o
rt_page_get_info                                  build/libcpu/page.o
rt_page_init                                      build/libcpu/page.o
                                                  build/drivers/board.o
rt_page_ref_inc                                   build/libcpu/page.o
                                                  build/kernel/components/lwp/lwp_user_mm.o
                                                  build/libcpu/mmu.o
rt_pages_alloc                                    build/libcpu/page.o
                                                  build/kernel/components/lwp/arch/arm/arm926/arch_user_space_init.o
                                                  build/kernel/components/lwp/lwp_syscall.o
                                                  build/kernel/components/lwp/lwp_shm.o
                                                  build/libcpu/mmu.o
rt_pages_free                                     build/libcpu/page.o
                                                  build/kernel/components/lwp/arch/arm/arm926/arch_user_space_init.o
                                                  build/kernel/components/lwp/lwp_user_mm.o
                                                  build/kernel/components/lwp/lwp_syscall.o
                                                  build/kernel/components/lwp/lwp_shm.o
                                                  build/libcpu/mmu.o
rt_pipe_close                                     build/kernel/components/drivers/src/pipe.o
rt_pipe_control                                   build/kernel/components/drivers/src/pipe.o
rt_pipe_create                                    build/kernel/components/drivers/src/pipe.o
rt_pipe_delete                                    build/kernel/components/drivers/src/pipe.o
rt_pipe_open                                      build/kernel/components/drivers/src/pipe.o
rt_pipe_read                                      build/kernel/components/drivers/src/pipe.o
rt_pipe_write                                     build/kernel/components/drivers/src/pipe.o
rt_raw_channel_close                              build/kernel/components/lwp/lwp_ipc.o
rt_raw_channel_open                               build/kernel/components/lwp/lwp_ipc.o
rt_raw_channel_peek                               build/kernel/components/lwp/lwp_ipc.o
rt_raw_channel_recv                               build/kernel/components/lwp/lwp_ipc.o
rt_raw_channel_recv_timeout                       build/kernel/components/lwp/lwp_ipc.o
rt_raw_channel_reply                              build/kernel/components/lwp/lwp_ipc.o
rt_raw_channel_send                               build/kernel/components/lwp/lwp_ipc.o
rt_raw_channel_send_recv                          build/kernel/components/lwp/lwp_ipc.o
rt_raw_channel_send_recv_timeout                  build/kernel/components/lwp/lwp_ipc.o
rt_rbb_blk_alloc                                  build/kernel/components/drivers/src/ringblk_buf.o
rt_rbb_blk_buf                                    build/kernel/components/drivers/src/ringblk_buf.o
rt_rbb_blk_free                                   build/kernel/components/drivers/src/ringblk_buf.o
rt_rbb_blk_get                                    build/kernel/components/drivers/src/ringblk_buf.o
rt_rbb_blk_put                                    build/kernel/components/drivers/src/ringblk_buf.o
rt_rbb_blk_queue_buf                              build/kernel/components/drivers/src/ringblk_buf.o
rt_rbb_blk_queue_free                             build/kernel/components/drivers/src/ringblk_buf.o
rt_rbb_blk_queue_get                              build/kernel/components/drivers/src/ringblk_buf.o
rt_rbb_blk_queue_len                              build/kernel/components/drivers/src/ringblk_buf.o
rt_rbb_blk_size                                   build/kernel/components/drivers/src/ringblk_buf.o
rt_rbb_create                                     build/kernel/components/drivers/src/ringblk_buf.o
rt_rbb_destroy                                    build/kernel/components/drivers/src/ringblk_buf.o
rt_rbb_get_buf_size                               build/kernel/components/drivers/src/ringblk_buf.o
rt_rbb_init                                       build/kernel/components/drivers/src/ringblk_buf.o
rt_rbb_next_blk_queue_len                         build/kernel/components/drivers/src/ringblk_buf.o
rt_realloc                                        build/kernel/src/slab.o
                                                  build/kernel/components/dfs/src/dfs.o
                                                  build/kernel/components/libc/compilers/musl/mem.o
rt_ringbuffer_create                              build/kernel/components/drivers/src/ringbuffer.o
                                                  build/kernel/components/drivers/src/pipe.o
rt_ringbuffer_data_len                            build/kernel/components/drivers/src/ringbuffer.o
                                                  build/kernel/components/drivers/src/pipe.o
                                                  build/kernel/components/lwp/lwp_console.o
rt_ringbuffer_destroy                             build/kernel/components/drivers/src/ringbuffer.o
                                                  build/kernel/components/drivers/src/pipe.o
rt_ringbuffer_get                                 build/kernel/components/drivers/src/ringbuffer.o
                                                  build/kernel/components/drivers/src/pipe.o
                                                  build/kernel/components/lwp/lwp_console.o
rt_ringbuffer_getchar                             build/kernel/components/drivers/src/ringbuffer.o
rt_ringbuffer_init                                build/kernel/components/drivers/src/ringbuffer.o
                                                  build/kernel/components/lwp/lwp_console.o
rt_ringbuffer_put                                 build/kernel/components/drivers/src/ringbuffer.o
                                                  build/kernel/components/drivers/src/pipe.o
rt_ringbuffer_put_force                           build/kernel/components/drivers/src/ringbuffer.o
                                                  build/kernel/components/lwp/lwp_console.o
rt_ringbuffer_putchar                             build/kernel/components/drivers/src/ringbuffer.o
rt_ringbuffer_putchar_force                       build/kernel/components/drivers/src/ringbuffer.o
rt_ringbuffer_reset                               build/kernel/components/drivers/src/ringbuffer.o
rt_schedule                                       build/kernel/src/scheduler.o
                                                  build/kernel/components/drivers/src/workqueue.o
                                                  build/kernel/components/drivers/src/waitqueue.o
                                                  build/kernel/components/drivers/src/dataqueue.o
                                                  build/kernel/components/drivers/src/completion.o
                                                  build/kernel/components/dfs/src/poll.o
                                                  build/kernel/components/lwp/lwp_syscall.o
                                                  build/kernel/components/lwp/lwp_signal.o
                                                  build/kernel/components/lwp/lwp_pid.o
                                                  build/kernel/components/lwp/lwp_ipc.o
                                                  build/kernel/components/lwp/lwp_futex.o
                                                  build/kernel/src/timer.o
                                                  build/kernel/src/thread.o
                                                  build/kernel/src/signal.o
                                                  build/kernel/src/mempool.o
                                                  build/kernel/src/ipc.o
                                                  build/kernel/src/clock.o
rt_schedule_insert_thread                         build/kernel/src/scheduler.o
                                                  build/kernel/components/lwp/lwp_ipc.o
                                                  build/kernel/src/thread.o
rt_schedule_remove_thread                         build/kernel/src/scheduler.o
                                                  build/kernel/src/thread.o
rt_scheduler_sethook                              build/kernel/src/scheduler.o
rt_sem_control                                    build/kernel/src/ipc.o
rt_sem_create                                     build/kernel/src/ipc.o
                                                  build/kernel/components/finsh/cmd.o
                                                  build/kernel/components/lwp/lwp_syscall.o
rt_sem_delete                                     build/kernel/src/ipc.o
                                                  build/kernel/components/finsh/cmd.o
                                                  build/kernel/components/lwp/lwp_syscall.o
                                                  build/kernel/components/lwp/lwp_pid.o
rt_sem_detach                                     build/kernel/src/ipc.o
                                                  build/kernel/src/memheap.o
rt_sem_init                                       build/kernel/src/ipc.o
                                                  build/kernel/components/drivers/src/workqueue.o
                                                  build/kernel/components/finsh/shell.o
                                                  build/kernel/components/lwp/lwp_syscall.o
                                                  build/kernel/src/slab.o
                                                  build/kernel/src/memheap.o
rt_sem_release                                    build/kernel/src/ipc.o
                                                  build/kernel/components/drivers/src/workqueue.o
                                                  build/kernel/components/finsh/cmd.o
                                                  build/kernel/components/lwp/lwp_syscall.o
                                                  build/kernel/src/slab.o
                                                  build/kernel/src/memheap.o
rt_sem_take                                       build/kernel/src/ipc.o
                                                  build/kernel/components/drivers/src/workqueue.o
                                                  build/kernel/components/finsh/cmd.o
                                                  build/kernel/components/lwp/lwp_syscall.o
                                                  build/kernel/src/slab.o
                                                  build/kernel/src/memheap.o
rt_sem_take_interruptible                         build/kernel/src/ipc.o
                                                  build/kernel/components/lwp/lwp_syscall.o
rt_sem_take_killable                              build/kernel/src/ipc.o
rt_sem_trytake                                    build/kernel/src/ipc.o
                                                  build/kernel/components/drivers/src/workqueue.o
rt_set_errno                                      build/kernel/src/kservice.o
                                                  build/kernel/components/drivers/src/pipe.o
                                                  build/kernel/components/dfs/src/dfs_posix.o
                                                  build/kernel/components/dfs/src/dfs_fs.o
                                                  build/kernel/components/libc/aio/posix_aio.o
                                                  build/kernel/components/libc/time/clock_time.o
                                                  build/kernel/components/lwp/lwp_syscall.o
                                                  build/kernel/components/lwp/lwp_signal.o
                                                  build/kernel/components/lwp/lwp_pmutex.o
                                                  build/kernel/components/lwp/lwp_futex.o
                                                  build/kernel/src/mempool.o
                                                  build/kernel/src/memheap.o
                                                  build/kernel/src/device.o
rt_show_version                                   build/kernel/src/kservice.o
                                                  build/kernel/components/finsh/cmd.o
                                                  build/kernel/src/components.o
rt_signal_install                                 build/kernel/src/signal.o
rt_signal_mask                                    build/kernel/src/signal.o
rt_signal_unmask                                  build/kernel/src/signal.o
rt_signal_wait                                    build/kernel/src/signal.o
rt_snprintf                                       build/kernel/src/kservice.o
                                                  build/kernel/components/drivers/src/pipe.o
                                                  build/kernel/components/dfs/src/dfs.o
                                                  build/kernel/components/finsh/msh_file.o
                                                  build/kernel/components/finsh/msh.o
rt_soft_timer_check                               build/kernel/src/timer.o
rt_sprintf                                        build/kernel/src/kservice.o
                                                  build/kernel/components/finsh/msh_file.o
                                                  build/kernel/src/idle.o
rt_strcasecmp                                     build/kernel/src/kservice.o
rt_strcmp                                         build/kernel/src/kservice.o
                                                  build/kernel/components/dfs/src/dfs_file.o
                                                  build/kernel/components/finsh/msh_file.o
rt_strdup                                         build/kernel/src/kservice.o
                                                  build/kernel/components/dfs/src/dfs_file.o
                                                  build/kernel/components/dfs/src/dfs.o
rt_strlen                                         build/kernel/src/kservice.o
                                                  build/kernel/components/dfs/filesystems/romfs/dfs_romfs.o
                                                  build/kernel/components/finsh/msh_file.o
                                                  build/kernel/components/finsh/msh.o
                                                  build/kernel/components/finsh/shell.o
                                                  build/kernel/components/lwp/lwp_syscall.o
                                                  build/kernel/components/lwp/lwp.o
rt_strncmp                                        build/kernel/src/kservice.o
                                                  build/kernel/components/dfs/filesystems/romfs/dfs_romfs.o
                                                  build/kernel/components/lwp/lwp_pid.o
                                                  build/kernel/components/lwp/lwp_ipc.o
                                                  build/kernel/src/thread.o
                                                  build/kernel/src/object.o
                                                  build/kernel/src/device.o
rt_strncpy                                        build/kernel/src/kservice.o
                                                  build/kernel/components/dfs/filesystems/romfs/dfs_romfs.o
                                                  build/kernel/components/dfs/filesystems/devfs/devfs.o
                                                  build/kernel/components/finsh/msh.o
                                                  build/kernel/components/lwp/lwp_syscall.o
                                                  build/kernel/components/lwp/lwp.o
                                                  build/kernel/src/object.o
                                                  build/libcpu/interrupt.o
rt_strnlen                                        build/kernel/src/kservice.o
rt_strstr                                         build/kernel/src/kservice.o
rt_system_heap_init                               build/kernel/src/slab.o
                                                  build/drivers/board.o
rt_system_object_init                             build/kernel/src/object.o
rt_system_scheduler_init                          build/kernel/src/scheduler.o
                                                  build/kernel/src/components.o
rt_system_scheduler_start                         build/kernel/src/scheduler.o
                                                  build/kernel/src/components.o
rt_system_signal_init                             build/kernel/src/signal.o
                                                  build/kernel/src/components.o
rt_system_tick_init                               build/kernel/src/clock.o
rt_system_timer_init                              build/kernel/src/timer.o
                                                  build/kernel/src/components.o
rt_system_timer_thread_init                       build/kernel/src/timer.o
                                                  build/kernel/src/components.o
rt_thread_alloc_sig                               build/kernel/src/signal.o
rt_thread_control                                 build/kernel/src/thread.o
                                                  build/kernel/components/lwp/lwp_syscall.o
                                                  build/kernel/src/ipc.o
rt_thread_create                                  build/kernel/src/thread.o
                                                  build/kernel/components/drivers/src/workqueue.o
                                                  build/kernel/components/finsh/cmd.o
                                                  build/kernel/components/finsh/shell.o
                                                  build/kernel/components/lwp/lwp_syscall.o
                                                  build/kernel/components/lwp/lwp.o
                                                  build/kernel/src/components.o
rt_thread_defunct_dequeue                         build/kernel/src/idle.o
rt_thread_defunct_enqueue                         build/kernel/src/idle.o
                                                  build/kernel/src/thread.o
rt_thread_delay                                   build/kernel/src/thread.o
                                                  build/kernel/components/libc/time/posix_sleep.o
                                                  build/kernel/components/lwp/lwp_syscall.o
                                                  build/kernel/src/timer.o
rt_thread_delay_until                             build/kernel/src/thread.o
rt_thread_delete                                  build/kernel/src/thread.o
                                                  build/kernel/components/drivers/src/workqueue.o
                                                  build/kernel/components/lwp/lwp_syscall.o
                                                  build/kernel/components/lwp/lwp_pid.o
rt_thread_detach                                  build/kernel/src/thread.o
rt_thread_exit                                    build/kernel/src/thread.o
rt_thread_find                                    build/kernel/src/thread.o
                                                  build/kernel/components/lwp/lwp_syscall.o
rt_thread_free_sig                                build/kernel/src/signal.o
                                                  build/kernel/src/idle.o
rt_thread_handle_sig                              build/kernel/src/signal.o
                                                  build/kernel/src/scheduler.o
rt_thread_idle_delhook                            build/kernel/src/idle.o
rt_thread_idle_gethandler                         build/kernel/src/idle.o
rt_thread_idle_init                               build/kernel/src/idle.o
                                                  build/kernel/src/components.o
rt_thread_idle_sethook                            build/kernel/src/idle.o
rt_thread_init                                    build/kernel/src/thread.o
                                                  build/kernel/src/timer.o
                                                  build/kernel/src/idle.o
rt_thread_inited_sethook                          build/kernel/src/thread.o
rt_thread_kill                                    build/kernel/src/signal.o
rt_thread_mdelay                                  build/kernel/src/thread.o
                                                  build/kernel/components/lwp/lwp_syscall.o
                                                  build/kernel/components/lwp/lwp_pid.o
                                                  build/applications/main.o
rt_thread_priority_table                          build/kernel/src/scheduler.o
rt_thread_ready_priority_group                    build/kernel/src/scheduler.o
rt_thread_resume                                  build/kernel/src/thread.o
                                                  build/kernel/components/drivers/src/workqueue.o
                                                  build/kernel/components/drivers/src/waitqueue.o
                                                  build/kernel/components/drivers/src/dataqueue.o
                                                  build/kernel/components/drivers/src/completion.o
                                                  build/kernel/components/lwp/lwp_pid.o
                                                  build/kernel/components/lwp/lwp_ipc.o
                                                  build/kernel/components/lwp/lwp_futex.o
                                                  build/kernel/src/timer.o
                                                  build/kernel/src/mempool.o
                                                  build/kernel/src/ipc.o
rt_thread_resume_sethook                          build/kernel/src/thread.o
rt_thread_self                                    build/kernel/src/thread.o
                                                  build/kernel/components/drivers/src/workqueue.o
                                                  build/kernel/components/drivers/src/waitqueue.o
                                                  build/kernel/components/drivers/src/dataqueue.o
                                                  build/kernel/components/drivers/src/completion.o
                                                  build/kernel/components/dfs/src/poll.o
                                                  build/kernel/components/dfs/src/dfs.o
                                                  build/kernel/components/finsh/cmd.o
                                                  build/kernel/components/lwp/lwp_user_mm.o
                                                  build/kernel/components/lwp/lwp_syscall.o
                                                  build/kernel/components/lwp/lwp_signal.o
                                                  build/kernel/components/lwp/lwp_pid.o
                                                  build/kernel/components/lwp/lwp_ipc.o
                                                  build/kernel/components/lwp/lwp_futex.o
                                                  build/kernel/components/lwp/lwp_console.o
                                                  build/kernel/components/lwp/lwp.o
                                                  build/kernel/src/timer.o
                                                  build/kernel/src/signal.o
                                                  build/kernel/src/mempool.o
                                                  build/kernel/src/kservice.o
                                                  build/kernel/src/ipc.o
                                                  build/kernel/src/device.o
                                                  build/kernel/src/clock.o
                                                  build/libcpu/backtrace.o
rt_thread_sleep                                   build/kernel/src/thread.o
rt_thread_startup                                 build/kernel/src/thread.o
                                                  build/kernel/components/drivers/src/workqueue.o
                                                  build/kernel/components/finsh/cmd.o
                                                  build/kernel/components/finsh/shell.o
                                                  build/kernel/components/lwp/lwp_syscall.o
                                                  build/kernel/components/lwp/lwp.o
                                                  build/kernel/src/timer.o
                                                  build/kernel/src/idle.o
                                                  build/kernel/src/components.o
rt_thread_suspend                                 build/kernel/src/thread.o
rt_thread_suspend_sethook                         build/kernel/src/thread.o
rt_thread_suspend_with_flag                       build/kernel/src/thread.o
                                                  build/kernel/components/drivers/src/workqueue.o
                                                  build/kernel/components/drivers/src/waitqueue.o
                                                  build/kernel/components/drivers/src/dataqueue.o
                                                  build/kernel/components/drivers/src/completion.o
                                                  build/kernel/components/dfs/src/poll.o
                                                  build/kernel/components/lwp/lwp_pid.o
                                                  build/kernel/components/lwp/lwp_ipc.o
                                                  build/kernel/components/lwp/lwp_futex.o
                                                  build/kernel/src/timer.o
                                                  build/kernel/src/signal.o
                                                  build/kernel/src/mempool.o
                                                  build/kernel/src/ipc.o
rt_thread_switch_interrupt_flag                   build/libcpu/interrupt.o
                                                  build/libcpu/start_gcc.o
                                                  build/libcpu/context_gcc.o
rt_thread_timeout                                 build/kernel/src/thread.o
rt_thread_wakeup                                  build/kernel/src/thread.o
                                                  build/kernel/components/lwp/lwp_signal.o
                                                  build/kernel/components/lwp/lwp_pid.o
                                                  build/kernel/src/signal.o
rt_thread_wakeup_set                              build/kernel/src/thread.o
                                                  build/kernel/components/lwp/lwp_ipc.o
rt_thread_yield                                   build/kernel/src/thread.o
rt_tick_from_millisecond                          build/kernel/src/clock.o
                                                  build/kernel/components/drivers/src/waitqueue.o
                                                  build/kernel/components/dfs/src/poll.o
                                                  build/kernel/src/thread.o
rt_tick_get                                       build/kernel/src/clock.o
                                                  build/kernel/components/libc/compilers/musl/time.o
                                                  build/kernel/components/libc/time/posix_sleep.o
                                                  build/kernel/components/libc/time/clock_time.o
                                                  build/kernel/components/finsh/cmd.o
                                                  build/kernel/components/lwp/lwp_syscall.o
                                                  build/kernel/components/lwp/lwp.o
                                                  build/kernel/src/timer.o
                                                  build/kernel/src/thread.o
                                                  build/kernel/src/mempool.o
                                                  build/kernel/src/ipc.o
rt_tick_increase                                  build/kernel/src/clock.o
                                                  build/drivers/board.o
rt_tick_set                                       build/kernel/src/clock.o
rt_tick_sethook                                   build/kernel/src/clock.o
                                                  build/kernel/components/finsh/cmd.o
rt_timer_check                                    build/kernel/src/timer.o
                                                  build/kernel/src/clock.o
rt_timer_control                                  build/kernel/src/timer.o
                                                  build/kernel/components/drivers/src/waitqueue.o
                                                  build/kernel/components/drivers/src/dataqueue.o
                                                  build/kernel/components/drivers/src/completion.o
                                                  build/kernel/components/dfs/src/poll.o
                                                  build/kernel/components/lwp/lwp_syscall.o
                                                  build/kernel/components/lwp/lwp_ipc.o
                                                  build/kernel/components/lwp/lwp_futex.o
                                                  build/kernel/src/thread.o
                                                  build/kernel/src/signal.o
                                                  build/kernel/src/mempool.o
                                                  build/kernel/src/ipc.o
rt_timer_create                                   build/kernel/src/timer.o
                                                  build/kernel/components/lwp/lwp_syscall.o
rt_timer_delete                                   build/kernel/src/timer.o
                                                  build/kernel/components/lwp/lwp_syscall.o
                                                  build/kernel/components/lwp/lwp_pid.o
rt_timer_detach                                   build/kernel/src/timer.o
                                                  build/kernel/components/drivers/src/workqueue.o
                                                  build/kernel/src/thread.o
rt_timer_enter_sethook                            build/kernel/src/timer.o
rt_timer_exit_sethook                             build/kernel/src/timer.o
rt_timer_init                                     build/kernel/src/timer.o
                                                  build/kernel/components/drivers/src/workqueue.o
                                                  build/kernel/src/thread.o
rt_timer_next_timeout_tick                        build/kernel/src/timer.o
rt_timer_start                                    build/kernel/src/timer.o
                                                  build/kernel/components/drivers/src/workqueue.o
                                                  build/kernel/components/drivers/src/waitqueue.o
                                                  build/kernel/components/drivers/src/dataqueue.o
                                                  build/kernel/components/drivers/src/completion.o
                                                  build/kernel/components/dfs/src/poll.o
                                                  build/kernel/components/lwp/lwp_syscall.o
                                                  build/kernel/components/lwp/lwp_ipc.o
                                                  build/kernel/components/lwp/lwp_futex.o
                                                  build/kernel/src/thread.o
                                                  build/kernel/src/signal.o
                                                  build/kernel/src/mempool.o
                                                  build/kernel/src/ipc.o
rt_timer_stop                                     build/kernel/src/timer.o
                                                  build/kernel/components/drivers/src/workqueue.o
                                                  build/kernel/components/lwp/lwp_syscall.o
                                                  build/kernel/src/thread.o
rt_unwind                                         build/libcpu/backtrace.o
                                                  build/libcpu/trap.o
rt_vsnprintf                                      build/kernel/src/kservice.o
rt_vsprintf                                       build/kernel/src/kservice.o
rt_work_cancel                                    build/kernel/components/drivers/src/workqueue.o
rt_work_submit                                    build/kernel/components/drivers/src/workqueue.o
rt_work_sys_workqueue_init                        build/kernel/components/drivers/src/workqueue.o
rt_workqueue_cancel_all_work                      build/kernel/components/drivers/src/workqueue.o
rt_workqueue_cancel_work                          build/kernel/components/drivers/src/workqueue.o
rt_workqueue_cancel_work_sync                     build/kernel/components/drivers/src/workqueue.o
                                                  build/kernel/components/libc/aio/posix_aio.o
rt_workqueue_create                               build/kernel/components/drivers/src/workqueue.o
                                                  build/kernel/components/libc/aio/posix_aio.o
rt_workqueue_critical_work                        build/kernel/components/drivers/src/workqueue.o
rt_workqueue_destroy                              build/kernel/components/drivers/src/workqueue.o
rt_workqueue_dowork                               build/kernel/components/drivers/src/workqueue.o
                                                  build/kernel/components/libc/aio/posix_aio.o
rt_workqueue_submit_work                          build/kernel/components/drivers/src/workqueue.o
rt_wqueue_add                                     build/kernel/components/drivers/src/waitqueue.o
                                                  build/kernel/components/dfs/src/poll.o
rt_wqueue_remove                                  build/kernel/components/drivers/src/waitqueue.o
                                                  build/kernel/components/dfs/src/poll.o
rt_wqueue_wait                                    build/kernel/components/drivers/src/waitqueue.o
                                                  build/kernel/components/drivers/src/pipe.o
rt_wqueue_wait_interruptible                      build/kernel/components/drivers/src/waitqueue.o
                                                  build/kernel/components/drivers/serial/serial.o
                                                  build/kernel/components/lwp/lwp_console.o
rt_wqueue_wait_killable                           build/kernel/components/drivers/src/waitqueue.o
rt_wqueue_wakeup                                  build/kernel/components/drivers/src/waitqueue.o
                                                  build/kernel/components/drivers/serial/serial.o
                                                  build/kernel/components/drivers/src/pipe.o
                                                  build/kernel/components/lwp/lwp_ipc.o
                                                  build/kernel/components/lwp/lwp_console.o
rtthread_startup                                  build/kernel/src/components.o
                                                  build/libcpu/start_gcc.o
seekdir                                           build/kernel/components/dfs/src/dfs_posix.o
select                                            build/kernel/components/dfs/src/select.o
                                                  build/kernel/components/lwp/lwp_syscall.o
set_process_id                                    build/libcpu/start_gcc.o
set_user_context                                  build/kernel/components/lwp/arch/arm/arm926/lwp_gcc.o
                                                  build/kernel/components/lwp/lwp_syscall.o
setenv                                            /opt/arm-linux-musleabi/bin/../lib/gcc/arm-linux-musleabi/7.3.0/../../../../arm-linux-musleabi/lib/libc_kernel.a(setenv.o)
                                                  build/kernel/components/libc/compilers/musl/libc.o
setvbuf                                           /opt/arm-linux-musleabi/bin/../lib/gcc/arm-linux-musleabi/7.3.0/../../../../arm-linux-musleabi/lib/libc_kernel.a(setvbuf.o)
                                                  build/kernel/components/libc/compilers/musl/stdio.o
shell                                             build/kernel/components/finsh/shell.o
sleep                                             build/kernel/components/libc/time/posix_sleep.o
snprintf                                          /opt/arm-linux-musleabi/bin/../lib/gcc/arm-linux-musleabi/7.3.0/../../../../arm-linux-musleabi/lib/libc_kernel.a(snprintf.o)
                                                  build/kernel/components/libc/compilers/musl/stdio.o
                                                  build/kernel/components/finsh/msh.o
stack_top                                         build/libcpu/start_gcc.o
stat                                              build/kernel/components/dfs/src/dfs_posix.o
                                                  build/kernel/components/finsh/msh_file.o
                                                  build/kernel/components/lwp/lwp_syscall.o
statfs                                            build/kernel/components/dfs/src/dfs_posix.o
stdin                                             /opt/arm-linux-musleabi/bin/../lib/gcc/arm-linux-musleabi/7.3.0/../../../../arm-linux-musleabi/lib/libc_kernel.a(stdin.o)
stdout                                            /opt/arm-linux-musleabi/bin/../lib/gcc/arm-linux-musleabi/7.3.0/../../../../arm-linux-musleabi/lib/libc_kernel.a(stdout.o)
stpcpy                                            /opt/arm-linux-musleabi/bin/../lib/gcc/arm-linux-musleabi/7.3.0/../../../../arm-linux-musleabi/lib/libc_kernel.a(stpcpy.o)
                                                  build/kernel/components/finsh/msh.o
stpncpy                                           /opt/arm-linux-musleabi/bin/../lib/gcc/arm-linux-musleabi/7.3.0/../../../../arm-linux-musleabi/lib/libc_kernel.a(stpncpy.o)
strchr                                            /opt/arm-linux-musleabi/bin/../lib/gcc/arm-linux-musleabi/7.3.0/../../../../arm-linux-musleabi/lib/libc_kernel.a(strchr.o)
                                                  /opt/arm-linux-musleabi/bin/../lib/gcc/arm-linux-musleabi/7.3.0/../../../../arm-linux-musleabi/lib/libc_kernel.a(__fmodeflags.o)
                                                  /opt/arm-linux-musleabi/bin/../lib/gcc/arm-linux-musleabi/7.3.0/../../../../arm-linux-musleabi/lib/libc_kernel.a(__fdopen.o)
                                                  /opt/arm-linux-musleabi/bin/../lib/gcc/arm-linux-musleabi/7.3.0/../../../../arm-linux-musleabi/lib/libc_kernel.a(strstr.o)
                                                  /opt/arm-linux-musleabi/bin/../lib/gcc/arm-linux-musleabi/7.3.0/../../../../arm-linux-musleabi/lib/libc_kernel.a(fopen.o)
                                                  build/kernel/components/libc/compilers/musl/libc.o
                                                  build/kernel/components/lwp/lwp_syscall.o
strchrnul                                         /opt/arm-linux-musleabi/bin/../lib/gcc/arm-linux-musleabi/7.3.0/../../../../arm-linux-musleabi/lib/libc_kernel.a(strchrnul.o)
strcmp                                            /opt/arm-linux-musleabi/bin/../lib/gcc/arm-linux-musleabi/7.3.0/../../../../arm-linux-musleabi/lib/libc_kernel.a(strcmp.o)
                                                  build/kernel/components/dfs/src/dfs_fs.o
                                                  build/kernel/components/dfs/src/dfs_file.o
                                                  build/kernel/components/finsh/msh_file.o
                                                  build/kernel/components/lwp/lwp.o
strcpy                                            /opt/arm-linux-musleabi/bin/../lib/gcc/arm-linux-musleabi/7.3.0/../../../../arm-linux-musleabi/lib/libc_kernel.a(strcpy.o)
                                                  build/kernel/components/finsh/msh.o
                                                  build/kernel/components/finsh/shell.o
                                                  build/kernel/components/lwp/lwp_syscall.o
strerror                                          /opt/arm-linux-musleabi/bin/../lib/gcc/arm-linux-musleabi/7.3.0/../../../../arm-linux-musleabi/lib/libc_kernel.a(strerror.o)
                                                  /opt/arm-linux-musleabi/bin/../lib/gcc/arm-linux-musleabi/7.3.0/../../../../arm-linux-musleabi/lib/libc_kernel.a(vfprintf.o)
strerror_l                                        /opt/arm-linux-musleabi/bin/../lib/gcc/arm-linux-musleabi/7.3.0/../../../../arm-linux-musleabi/lib/libc_kernel.a(strerror.o)
strlen                                            /opt/arm-linux-musleabi/bin/../lib/gcc/arm-linux-musleabi/7.3.0/../../../../arm-linux-musleabi/lib/libc_kernel.a(strlen.o)
                                                  /opt/arm-linux-musleabi/bin/../lib/gcc/arm-linux-musleabi/7.3.0/../../../../arm-linux-musleabi/lib/libc_kernel.a(strrchr.o)
                                                  /opt/arm-linux-musleabi/bin/../lib/gcc/arm-linux-musleabi/7.3.0/../../../../arm-linux-musleabi/lib/libc_kernel.a(strchrnul.o)
                                                  /opt/arm-linux-musleabi/bin/../lib/gcc/arm-linux-musleabi/7.3.0/../../../../arm-linux-musleabi/lib/libc_kernel.a(setenv.o)
                                                  build/kernel/components/dfs/src/dfs_posix.o
                                                  build/kernel/components/dfs/src/dfs_fs.o
                                                  build/kernel/components/dfs/src/dfs.o
                                                  build/kernel/components/finsh/msh_file.o
                                                  build/kernel/components/finsh/msh.o
                                                  build/kernel/components/finsh/shell.o
strncmp                                           /opt/arm-linux-musleabi/bin/../lib/gcc/arm-linux-musleabi/7.3.0/../../../../arm-linux-musleabi/lib/libc_kernel.a(strncmp.o)
                                                  /opt/arm-linux-musleabi/bin/../lib/gcc/arm-linux-musleabi/7.3.0/../../../../arm-linux-musleabi/lib/libc_kernel.a(unsetenv.o)
                                                  /opt/arm-linux-musleabi/bin/../lib/gcc/arm-linux-musleabi/7.3.0/../../../../arm-linux-musleabi/lib/libc_kernel.a(putenv.o)
                                                  /opt/arm-linux-musleabi/bin/../lib/gcc/arm-linux-musleabi/7.3.0/../../../../arm-linux-musleabi/lib/libc_kernel.a(getenv.o)
                                                  build/kernel/components/dfs/src/dfs_fs.o
                                                  build/kernel/components/finsh/msh.o
                                                  build/kernel/components/finsh/cmd.o
strncpy                                           /opt/arm-linux-musleabi/bin/../lib/gcc/arm-linux-musleabi/7.3.0/../../../../arm-linux-musleabi/lib/libc_kernel.a(strncpy.o)
                                                  build/kernel/components/dfs/src/dfs_posix.o
                                                  build/kernel/components/finsh/shell.o
strnlen                                           /opt/arm-linux-musleabi/bin/../lib/gcc/arm-linux-musleabi/7.3.0/../../../../arm-linux-musleabi/lib/libc_kernel.a(strnlen.o)
                                                  /opt/arm-linux-musleabi/bin/../lib/gcc/arm-linux-musleabi/7.3.0/../../../../arm-linux-musleabi/lib/libc_kernel.a(vfprintf.o)
strrchr                                           /opt/arm-linux-musleabi/bin/../lib/gcc/arm-linux-musleabi/7.3.0/../../../../arm-linux-musleabi/lib/libc_kernel.a(strrchr.o)
                                                  build/kernel/components/dfs/src/dfs_file.o
                                                  build/kernel/components/lwp/lwp_pid.o
                                                  build/kernel/components/lwp/lwp.o
strstr                                            /opt/arm-linux-musleabi/bin/../lib/gcc/arm-linux-musleabi/7.3.0/../../../../arm-linux-musleabi/lib/libc_kernel.a(strstr.o)
                                                  build/kernel/components/finsh/msh.o
svc_stack_start                                   build/libcpu/start_gcc.o
switch_mmu                                        build/libcpu/mmu_gcc.o
                                                  build/kernel/components/lwp/lwp_user_mm.o
                                                  build/libcpu/start_gcc.o
sys_access                                        build/kernel/components/lwp/lwp_syscall.o
sys_brk                                           build/kernel/components/lwp/lwp_syscall.o
sys_cacheflush                                    build/libcpu/cache.o
                                                  build/kernel/components/lwp/lwp_syscall.o
sys_channel_close                                 build/kernel/components/lwp/lwp_syscall.o
sys_channel_open                                  build/kernel/components/lwp/lwp_syscall.o
sys_channel_recv_timeout                          build/kernel/components/lwp/lwp_syscall.o
sys_channel_reply                                 build/kernel/components/lwp/lwp_syscall.o
sys_channel_send                                  build/kernel/components/lwp/lwp_syscall.o
sys_channel_send_recv_timeout                     build/kernel/components/lwp/lwp_syscall.o
sys_chdir                                         build/kernel/components/lwp/lwp_syscall.o
sys_clock_getres                                  build/kernel/components/lwp/lwp_syscall.o
sys_clock_gettime                                 build/kernel/components/lwp/lwp_syscall.o
sys_clock_settime                                 build/kernel/components/lwp/lwp_syscall.o
sys_clone                                         build/kernel/components/lwp/arch/arm/arm926/lwp_gcc.o
                                                  build/kernel/components/lwp/lwp_syscall.o
sys_clone_exit                                    build/kernel/components/lwp/arch/arm/arm926/lwp_gcc.o
                                                  build/kernel/components/lwp/lwp_syscall.o
sys_close                                         build/kernel/components/lwp/lwp_syscall.o
sys_device_close                                  build/kernel/components/lwp/lwp_syscall.o
sys_device_control                                build/kernel/components/lwp/lwp_syscall.o
sys_device_find                                   build/kernel/components/lwp/lwp_syscall.o
sys_device_init                                   build/kernel/components/lwp/lwp_syscall.o
sys_device_open                                   build/kernel/components/lwp/lwp_syscall.o
sys_device_read                                   build/kernel/components/lwp/lwp_syscall.o
sys_device_register                               build/kernel/components/lwp/lwp_syscall.o
sys_device_write                                  build/kernel/components/lwp/lwp_syscall.o
sys_dup                                           build/kernel/components/dfs/src/dfs.o
                                                  build/kernel/components/lwp/lwp_syscall.o
sys_dup2                                          build/kernel/components/dfs/src/dfs.o
                                                  build/kernel/components/libc/compilers/musl/stdio.o
                                                  build/kernel/components/lwp/lwp_syscall.o
sys_enter_critical                                build/kernel/components/lwp/lwp_syscall.o
sys_event_create                                  build/kernel/components/lwp/lwp_syscall.o
sys_event_delete                                  build/kernel/components/lwp/lwp_syscall.o
sys_event_recv                                    build/kernel/components/lwp/lwp_syscall.o
sys_event_send                                    build/kernel/components/lwp/lwp_syscall.o
sys_exec                                          build/kernel/components/lwp/lwp_syscall.o
sys_execve                                        build/kernel/components/lwp/lwp_syscall.o
sys_exit                                          build/kernel/components/lwp/lwp_syscall.o
                                                  build/kernel/components/lwp/arch/arm/arm926/lwp_gcc.o
                                                  build/kernel/components/lwp/lwp_signal.o
                                                  build/libcpu/trap.o
sys_exit_critical                                 build/kernel/components/lwp/lwp_syscall.o
sys_exit_group                                    build/kernel/components/lwp/lwp_syscall.o
sys_fork                                          build/kernel/components/lwp/arch/arm/arm926/lwp_gcc.o
                                                  build/kernel/components/lwp/lwp_syscall.o
sys_fork_exit                                     build/kernel/components/lwp/arch/arm/arm926/lwp_gcc.o
                                                  build/kernel/components/lwp/lwp_syscall.o
sys_fstat                                         build/kernel/components/lwp/lwp_syscall.o
sys_futex                                         build/kernel/components/lwp/lwp_futex.o
                                                  build/kernel/components/lwp/lwp_syscall.o
sys_get_errno                                     build/kernel/components/lwp/lwp_syscall.o
sys_getcwd                                        build/kernel/components/lwp/lwp_syscall.o
sys_getdents                                      build/kernel/components/lwp/lwp_syscall.o
sys_getpid                                        build/kernel/components/lwp/lwp_syscall.o
sys_getpriority                                   build/kernel/components/lwp/lwp_syscall.o
sys_getrlimit                                     build/kernel/components/lwp/lwp_syscall.o
sys_gettid                                        build/kernel/components/lwp/lwp_syscall.o
sys_gettimeofday                                  build/kernel/components/lwp/lwp_syscall.o
sys_hw_interrupt_disable                          build/kernel/components/lwp/lwp_syscall.o
sys_hw_interrupt_enable                           build/kernel/components/lwp/lwp_syscall.o
sys_ioctl                                         build/kernel/components/lwp/lwp_syscall.o
sys_kill                                          build/kernel/components/lwp/lwp_syscall.o
sys_log                                           build/kernel/components/lwp/lwp_syscall.o
sys_lseek                                         build/kernel/components/lwp/lwp_syscall.o
sys_mb_create                                     build/kernel/components/lwp/lwp_syscall.o
sys_mb_delete                                     build/kernel/components/lwp/lwp_syscall.o
sys_mb_recv                                       build/kernel/components/lwp/lwp_syscall.o
sys_mb_send                                       build/kernel/components/lwp/lwp_syscall.o
sys_mb_send_wait                                  build/kernel/components/lwp/lwp_syscall.o
sys_mkdir                                         build/kernel/components/lwp/lwp_syscall.o
sys_mmap2                                         build/kernel/components/lwp/lwp_syscall.o
sys_mq_create                                     build/kernel/components/lwp/lwp_syscall.o
sys_mq_delete                                     build/kernel/components/lwp/lwp_syscall.o
sys_mq_recv                                       build/kernel/components/lwp/lwp_syscall.o
sys_mq_send                                       build/kernel/components/lwp/lwp_syscall.o
sys_mq_urgent                                     build/kernel/components/lwp/lwp_syscall.o
sys_munmap                                        build/kernel/components/lwp/lwp_syscall.o
sys_mutex_create                                  build/kernel/components/lwp/lwp_syscall.o
sys_mutex_delete                                  build/kernel/components/lwp/lwp_syscall.o
sys_mutex_release                                 build/kernel/components/lwp/lwp_syscall.o
sys_mutex_take                                    build/kernel/components/lwp/lwp_syscall.o
sys_nanosleep                                     build/kernel/components/lwp/lwp_syscall.o
sys_notimpl                                       build/kernel/components/lwp/lwp_syscall.o
sys_open                                          build/kernel/components/lwp/lwp_syscall.o
sys_pipe                                          build/kernel/components/lwp/lwp_syscall.o
sys_pmutex                                        build/kernel/components/lwp/lwp_pmutex.o
                                                  build/kernel/components/lwp/lwp_syscall.o
sys_poll                                          build/kernel/components/lwp/lwp_syscall.o
sys_prlimit64                                     build/kernel/components/lwp/lwp_syscall.o
sys_read                                          build/kernel/components/lwp/lwp_syscall.o
sys_rename                                        build/kernel/components/lwp/lwp_syscall.o
sys_rmdir                                         build/kernel/components/lwp/lwp_syscall.o
sys_select                                        build/kernel/components/lwp/lwp_syscall.o
sys_sem_create                                    build/kernel/components/lwp/lwp_syscall.o
sys_sem_delete                                    build/kernel/components/lwp/lwp_syscall.o
sys_sem_release                                   build/kernel/components/lwp/lwp_syscall.o
sys_sem_take                                      build/kernel/components/lwp/lwp_syscall.o
sys_set_thread_area                               build/kernel/components/lwp/lwp_syscall.o
sys_set_tid_address                               build/kernel/components/lwp/lwp_syscall.o
sys_setpriority                                   build/kernel/components/lwp/lwp_syscall.o
sys_setrlimit                                     build/kernel/components/lwp/lwp_syscall.o
sys_settimeofday                                  build/kernel/components/lwp/lwp_syscall.o
sys_shmat                                         build/kernel/components/lwp/lwp_syscall.o
sys_shmdt                                         build/kernel/components/lwp/lwp_syscall.o
sys_shmget                                        build/kernel/components/lwp/lwp_syscall.o
sys_shmrm                                         build/kernel/components/lwp/lwp_syscall.o
sys_sigaction                                     build/kernel/components/lwp/lwp_syscall.o
sys_sigprocmask                                   build/kernel/components/lwp/lwp_syscall.o
sys_stack_start                                   build/libcpu/start_gcc.o
sys_stat                                          build/kernel/components/lwp/lwp_syscall.o
sys_thread_create                                 build/kernel/components/lwp/lwp_syscall.o
sys_thread_delete                                 build/kernel/components/lwp/lwp_syscall.o
sys_thread_find                                   build/kernel/components/lwp/lwp_syscall.o
sys_thread_mdelay                                 build/kernel/components/lwp/lwp_syscall.o
sys_thread_self                                   build/kernel/components/lwp/lwp_syscall.o
sys_thread_sigprocmask                            build/kernel/components/lwp/lwp_syscall.o
sys_thread_startup                                build/kernel/components/lwp/lwp_syscall.o
sys_tick_get                                      build/kernel/components/lwp/lwp_syscall.o
sys_timer_control                                 build/kernel/components/lwp/lwp_syscall.o
sys_timer_create                                  build/kernel/components/lwp/lwp_syscall.o
sys_timer_delete                                  build/kernel/components/lwp/lwp_syscall.o
sys_timer_start                                   build/kernel/components/lwp/lwp_syscall.o
sys_timer_stop                                    build/kernel/components/lwp/lwp_syscall.o
sys_tkill                                         build/kernel/components/lwp/lwp_syscall.o
sys_unlink                                        build/kernel/components/lwp/lwp_syscall.o
sys_vfork                                         build/kernel/components/lwp/arch/arm/arm926/lwp_gcc.o
                                                  build/kernel/components/lwp/lwp_syscall.o
sys_waitpid                                       build/kernel/components/lwp/lwp_syscall.o
sys_write                                         build/kernel/components/lwp/lwp_syscall.o
syscall                                           /opt/arm-linux-musleabi/bin/../lib/gcc/arm-linux-musleabi/7.3.0/../../../../arm-linux-musleabi/lib/libc_kernel.a(syscall.o)
                                                  /opt/arm-linux-musleabi/bin/../lib/gcc/arm-linux-musleabi/7.3.0/../../../../arm-linux-musleabi/lib/libc_kernel.a(rtt_syscall.o)
system_vectors                                    build/libcpu/start_gcc.o
tcdrain                                           build/kernel/components/libc/termios/posix_termios.o
tcflow                                            build/kernel/components/libc/termios/posix_termios.o
tcflush                                           build/kernel/components/libc/termios/posix_termios.o
tcgetattr                                         build/kernel/components/libc/termios/posix_termios.o
tcgetsid                                          build/kernel/components/libc/termios/posix_termios.o
tcsendbreak                                       build/kernel/components/libc/termios/posix_termios.o
tcsetattr                                         build/kernel/components/libc/termios/posix_termios.o
telldir                                           build/kernel/components/dfs/src/dfs_posix.o
time                                              build/kernel/components/libc/compilers/musl/time.o
top                                               build/kernel/components/finsh/cmd.o
top_mem_fun                                       build/kernel/components/lwp/lwp_mm_area.o
uart_irq_handler                                  build/drivers/drv_uart.o
und_stack_start                                   build/libcpu/start_gcc.o
unlink                                            build/kernel/components/dfs/src/dfs_posix.o
                                                  build/kernel/components/finsh/msh_file.o
                                                  build/kernel/components/lwp/lwp_syscall.o
unmount                                           build/kernel/components/dfs/src/dfs.o
unsetenv                                          /opt/arm-linux-musleabi/bin/../lib/gcc/arm-linux-musleabi/7.3.0/../../../../arm-linux-musleabi/lib/libc_kernel.a(unsetenv.o)
                                                  /opt/arm-linux-musleabi/bin/../lib/gcc/arm-linux-musleabi/7.3.0/../../../../arm-linux-musleabi/lib/libc_kernel.a(putenv.o)
unwind_backtrace                                  build/libcpu/backtrace.o
unwind_frame                                      build/libcpu/backtrace.o
ve_get_pll_clk                                    build/drivers/drv_clock.o
ve_set_pll_clk                                    build/drivers/drv_clock.o
vector_dabt                                       build/libcpu/start_gcc.o
vector_fiq                                        build/libcpu/start_gcc.o
vector_irq                                        build/libcpu/start_gcc.o
vector_pabt                                       build/libcpu/start_gcc.o
vector_resv                                       build/libcpu/start_gcc.o
vector_swi                                        build/kernel/components/lwp/arch/arm/arm926/lwp_gcc.o
                                                  build/libcpu/start_gcc.o
vector_undef                                      build/libcpu/start_gcc.o
version                                           build/kernel/components/finsh/cmd.o
vfprintf                                          /opt/arm-linux-musleabi/bin/../lib/gcc/arm-linux-musleabi/7.3.0/../../../../arm-linux-musleabi/lib/libc_kernel.a(vfprintf.o)
                                                  /opt/arm-linux-musleabi/bin/../lib/gcc/arm-linux-musleabi/7.3.0/../../../../arm-linux-musleabi/lib/libc_kernel.a(vsnprintf.o)
                                                  /opt/arm-linux-musleabi/bin/../lib/gcc/arm-linux-musleabi/7.3.0/../../../../arm-linux-musleabi/lib/libc_kernel.a(printf.o)
video_get_pll_clk                                 build/drivers/drv_clock.o
video_set_pll_clk                                 build/drivers/drv_clock.o
vmm_thread                                        build/libcpu/start_gcc.o
vmm_virq_check                                    build/libcpu/start_gcc.o
vmm_virq_update                                   build/libcpu/context_gcc.o
vsnprintf                                         /opt/arm-linux-musleabi/bin/../lib/gcc/arm-linux-musleabi/7.3.0/../../../../arm-linux-musleabi/lib/libc_kernel.a(vsnprintf.o)
                                                  /opt/arm-linux-musleabi/bin/../lib/gcc/arm-linux-musleabi/7.3.0/../../../../arm-linux-musleabi/lib/libc_kernel.a(snprintf.o)
waitpid                                           build/kernel/components/lwp/lwp_pid.o
                                                  build/kernel/components/lwp/lwp_syscall.o
watchdog_ops                                      build/drivers/drv_wdg.o
wcrtomb                                           /opt/arm-linux-musleabi/bin/../lib/gcc/arm-linux-musleabi/7.3.0/../../../../arm-linux-musleabi/lib/libc_kernel.a(wcrtomb.o)
                                                  /opt/arm-linux-musleabi/bin/../lib/gcc/arm-linux-musleabi/7.3.0/../../../../arm-linux-musleabi/lib/libc_kernel.a(wctomb.o)
wctomb                                            /opt/arm-linux-musleabi/bin/../lib/gcc/arm-linux-musleabi/7.3.0/../../../../arm-linux-musleabi/lib/libc_kernel.a(wctomb.o)
                                                  /opt/arm-linux-musleabi/bin/../lib/gcc/arm-linux-musleabi/7.3.0/../../../../arm-linux-musleabi/lib/libc_kernel.a(vfprintf.o)
working_directory                                 build/kernel/components/dfs/src/dfs.o
                                                  build/kernel/components/dfs/src/dfs_posix.o
                                                  build/kernel/components/dfs/src/dfs_file.o
                                                  build/kernel/components/finsh/msh_file.o
write                                             build/kernel/components/dfs/src/dfs_posix.o
                                                  /opt/arm-linux-musleabi/bin/../lib/gcc/arm-linux-musleabi/7.3.0/../../../../arm-linux-musleabi/lib/libc_kernel.a(rtt_syscall.o)
                                                  build/kernel/components/finsh/msh_file.o
                                                  build/kernel/components/lwp/lwp_syscall.o
